uc:_glClearStencil
rRh:_UInt16_System_IConvertible_ToChar_m2096055221_AdjustorThunk
HUf:_MaskableGraphic_OnCanvasHierarchyChanged_m1780820310
yfh:_Array_TrueForAll_TisRuntimeObject_m1084992726_gshared
Qye:__ZL95CanvasRenderer_t2598313366_CustomAttributesCacheGenerator_CanvasRenderer_SetMaterial_m824577244P21CustomAttributesCache
v8j:__ZN6il2cpp2vm5Array13GetByteLengthEP11Il2CppArray
WGi:_Array_InternalArray__set_Item_TisDateTime_t3738529785_m1331437427_gshared
Sjj:_KeyBuilder_get_Rng_m3373220441
lpd:__ZN15DownloadHandler7OnAbortEv
fFi:__Z37RuntimeInvoker_Enumerator_t1666852615PFvvEPK10MethodInfoPvPS4_
Kle:__ZL51AIUpdate_t2336814084_CustomAttributesCacheGeneratorP21CustomAttributesCache
Dya:__Z30GetIntermediateRendererManagerv
u6h:_U3CCreateWhereIteratorU3Ec__Iterator1D_1_System_Collections_Generic_IEnumeratorU3CTSourceU3E_get_Current_m1909387290_gshared
mSa:__Z21SourceMipLevelForBlitiiii
wEa:__ZN31CanvasBatchIntermediateRenderer15AddAsRenderNodeER15RenderNodeQueueRK20DeprecatedSourceData
FOh:_TimeSpan_get_Hours_m550761902
Owe:__ZL72GUISkin_t1244372282_CustomAttributesCacheGenerator_m_verticalSliderThumbP21CustomAttributesCache
Lic:__ZN9ShaderLab9SubShader15FindNamedPassesERKN4core12basic_stringIcNS1_20StringStorageDefaultIcEEEER13dynamic_arrayIPNS_4PassELj0EE
svg:_Capture_get_Index_m745081289
Ipe:__ZL63PlayableOutputHandle_t4208053793_CustomAttributesCacheGeneratorP21CustomAttributesCache
F_:__ZN11UnityEngine15CloudWebService26CloudServiceEventWithParam12ToJsonStringER9JSONWrite
BKe:_UnmanagedMemoryStream_Write_m930787521
Skd:__ZN11UnityEngine7Connect14AppUpdateEventD0Ev
HFj:__ZNK15dense_hashtableINSt3__24pairIK10KeyWrapperIPK19Il2CppGenericMethodEPK26Il2CppGenericMethodIndicesEES6_N6il2cpp8metadata23Il2CppGenericMethodHashEN14dense_hash_mapIS6_SA_SE_NS6_14EqualsComparerINSD_26Il2CppGenericMethodCompareEEENS0_9allocatorISB_EEE9SelectKeyESI_SK_E10test_emptyEj
dpc:__Z59Register_UnityEngine_PlayerConnectionInternal_DisconnectAllv
g_d:__ZL66RuntimeArray_CustomAttributesCacheGenerator_Array_Sort_m3287581440P21CustomAttributesCache
flj:_AnalyticsEventTracker_SendEvent_m1365958832
p2:__ZdlPv
bs:__ZN11UnityEngine9Animation28GenericAnimationBindingCacheD2Ev
bMh:_UTF8Encoding_GetHashCode_m641510078
maj:_X509Store_LoadCrl_m1881903843
vJi:_Array_Sort_TisUICharInfo_t75501106_TisUICharInfo_t75501106_m722747892_gshared
YJg:_CaseInsensitiveComparer__ctor_m2101975011
Rhi:__Z67RuntimeInvoker_Byte_t1134296376_Int32_t2950945753_Int32_t2950945753PFvvEPK10MethodInfoPvPS4_
ugi:__Z53RuntimeInvoker_UInt32_t2560061978_Decimal_t2948259380PFvvEPK10MethodInfoPvPS4_
vuj:__ZL25UnresolvedVirtualCall_242P12Il2CppObjecti22OrderBlock_t1585977831PK10MethodInfo
F8b:__Z18RestoreRenderStateR20CameraRenderOldStateR17ShaderPassContext
Vyb:__Z18Transfer_BlittableI18StreamedBinaryReadILb1EELb1E5RectTIfEEvRK29SerializationCommandArgumentsR31RuntimeSerializationCommandInfo
Iub:__Z18Transfer_BlittableI24GenerateTypeTreeTransferLb0E11ColorRGBA32EvRK29SerializationCommandArgumentsR31RuntimeSerializationCommandInfo
NDb:__Z25scripting_class_from_name17ScriptingImagePtrPKcS1_
kGi:_Array_InternalArray__Insert_TisSingle_t1397266774_m3161726127_gshared
XUj:__ZN14dense_hash_mapI10KeyWrapperINSt3__24pairIPK12PropertyInfoP11Il2CppClassEEEj17ReflectionMapHashIS8_ENS9_14EqualsComparerINS1_8equal_toIS8_EEEENS1_9allocatorINS2_IKS9_jEEEEE15set_deleted_keyERSH_
FFb:__Z29scripting_class_enum_basetype17ScriptingClassPtr
cWi:_List_1_Clear_m3097985365_gshared
Prg:_OidCollection_get_SyncRoot_m3531934854
aKc:__ZN6IDList10BeginOnGUIEv
Exa:__ZNK12BaseRenderer18GetRenderNodeCountEv
U0j:__ZN6il2cpp2vm9Exception25RaiseOutOfMemoryExceptionERKNS_5utils10StringViewIDsEEP19Il2CppSequencePoint
boj:__ZN30GenericInterfaceActionInvoker1IP24SingleU5BU5D_t1444911251E6InvokeEPK10MethodInfoP12Il2CppObjectS1_
hId:_PropertyBuilder_get_CanWrite_m2657562188
Eka:__ZL43__ManagedRegistrationHelperFunction_TexturePv
U6e:_InternalEnumerator_1_get_Current_m1477715453_gshared
iEh:_Enumerator__ctor_m2827156589_AdjustorThunk
wcb:__ZNK20LocalFileSystemPosix6ParentERK13FileEntryDataRN4core12basic_stringIcNS3_20StringStorageDefaultIcEEEE
Pje:__ZL118TouchScreenKeyboard_t731888065_CustomAttributesCacheGenerator_TouchScreenKeyboard_Open_m3609399077____textPlaceholder6P21CustomAttributesCache
S0i:_Collection_1_System_Collections_IList_Remove_m1476284619_gshared
umh:_ContractionComparer__ctor_m3439667810
NMe:_MonoType_IsPrimitiveImpl_m2401722705
Acg:_SHA1CryptoServiceProvider__ctor_m4195188793
Sna:__ZN9Scripting11UnityEngine9Profiling8Recorder12CleanupProxyEv
zde:__ZL64MissingFieldException_t1989070983_CustomAttributesCacheGeneratorP21CustomAttributesCache
VCb:__ZN18StreamedBinaryReadILb0EE21TransferSTLStyleArrayI13dynamic_arrayI11ColorRGBA32Lj0EEEEvRT_17TransferMetaFlags
LDd:_Dropdown_Hide_m504034854
$Sa:__ZN9Texture2D25CreateScaledAndPaddedDataEPP17SharedTextureDataS2_
zeh:_Array_InternalArray__ICollection_Remove_TisLink_t3209266973_m897088622_gshared
ZMf:_Vector2_get_up_m2647420593
uPb:__ZN7ApiGLES17CopyBufferSubDataEjjlll
wlh:_Array_InternalArray__ICollection_CopyTo_TisUInt64_t4134040092_m691431926_gshared
x0i:__ZN23InterfaceActionInvoker2Ii22OrderBlock_t1585977831E6InvokeEjP11Il2CppClassP12Il2CppObjectiS0_
Spg:_IPAddress_ToString_m1181734207
aKh:_StringBuilder_Append_m1965104174
bMc:__ZN5Unity9rapidjson15GenericDocumentINS0_4UTF8IcEE13JSONAllocatorS4_E11ParseStreamILj1ES3_NS0_25GenericInsituStringStreamIS3_EEEERS5_RT1_
CDj:__ZNSt3__26vectorIPK10Il2CppTypeNS_9allocatorIS3_EEE7reserveEj
fyh:_EqualityComparer_1__cctor_m3766928733_gshared
jai:_UnityAction_1_Invoke_m610765085_gshared
FCg:_Array_GetValue_m116098292
D0f:_Kernel_modInverse_m652700340
GOa:__ZNK14Texture2DArray26CanReuploadDataToGfxDeviceEv
Iye:__ZL57CanvasRenderer_t2598313366_CustomAttributesCacheGeneratorP21CustomAttributesCache
cwa:__ZN17GlobalGameManager23VirtualRedirectTransferER17RemapPPtrTransfer
g6c:_sfnt_stream_close
BAb:__ZN18StreamedBinaryReadILb1EE8TransferI13dynamic_arrayIsLj0EEEEvRT_PKc17TransferMetaFlags
jsj:__ZL25UnresolvedVirtualCall_122P12Il2CppObject29CullingGroupEvent_t1722745023PK10MethodInfo
iLc:__ZN5IMGUI18RepaintModalWindowER8GUIState
ing:_HybridDictionary_get_IsSynchronized_m2987560362
Asj:__ZL25UnresolvedVirtualCall_139P12Il2CppObject17Color_t2555686324PK10MethodInfo
qBa:__ZNK15dense_hashtableINSt3__24pairIKN9ShaderLab7Program23ShaderKeywordSetAndHashEPKNS2_10SubProgramEEES4_NS3_24ShaderKeywordHashFunctorEN14dense_hash_mapIS4_S8_SA_NS0_8equal_toIS4_EE13stl_allocatorIS9_L18MemLabelIdentifier67ELi16EEE9SelectKeyESD_SG_E23find_position_with_hashERS5_j
vNg:_CompareInfo_Finalize_m404687489
gXa:__Z23SetSpriteMeshIndexCountP14SharedMeshDataj
eMh:_UTF8Decoder_GetChars_m1236346907
xGf:_Quaternion_GetHashCode_m2636680144_AdjustorThunk
Hve:__ZL99AudioSource_t3935305588_CustomAttributesCacheGenerator_AudioSource_t3935305588____clip_PropertyInfoP21CustomAttributesCache
jck:__ZN6il2cpp8metadata13GenericMethod9GetMethodEPK19Il2CppGenericMethod
Nq:__ZNSt3__26vectorIN4core12basic_stringIcNS1_20StringStorageDefaultIcEEEENS_9allocatorIS5_EEE7reserveEj
qRe:_Default_SelectProperty_m1220817815
Kkf:_RemotingConfiguration_IsRemotelyActivatedClientType_m4117048589
YLf:_Transform_TransformPoint_m226827784
Yci:_ListPool_1_Get_m738675669_gshared
tLb:__ZN13GfxDeviceGLES11SetViewportERK5RectTIiE
hGc:__Z24Time_Get_Custom_PropTimev
Nd:_emscripten_glDepthRange
M4i:_SslStreamBase_BeginNegotiateHandshake_m4180435790
zXc:__ZN9Scripting11UnityEngine10UILineInfo12CleanupProxyEv
Yac:__ZNSt3__26vectorINS_4pairIN4core12basic_stringIcNS2_20StringStorageDefaultIcEEEES6_EE13stl_allocatorIS7_L18MemLabelIdentifier38ELi16EEE12__move_rangeEPS7_SC_SC_
kfc:__Z14resize_trimmedINSt3__26vectorIN9ShaderLab20SerializedSubProgram12UAVParameterENS0_9allocatorIS4_EEEEEvRT_j
hMc:__ZN5Unity9rapidjson13GenericReaderINS0_4UTF8IcEES3_13JSONAllocatorE11ParseObjectILj1ENS0_25GenericInsituStringStreamIS3_EENS0_15GenericDocumentIS3_S4_S4_EEEEvRT0_RT1_
jyd:_StandaloneInputModule_GetRawMoveVector_m2737091079
eFe:__ZL62Selectable_t3250028441_CustomAttributesCacheGenerator_m_ColorsP21CustomAttributesCache
d2g:_Convert_ToDateTime_m2616935982
GNb:__ZThn10632_N13GfxDeviceGLES22SetScissorRectPlatformERK5RectTIiE
u5i:_SslStreamBase_EndWrite_m4073224031
yaa:__ZNSt3__218__insertion_sort_3IRNS_6__lessI14ObjectLoadDataS2_EEPS2_EEvT0_S6_T_
Pve:__ZL92Event_t2956885303_CustomAttributesCacheGenerator_Event_Internal_GetMousePosition_m1101229675P21CustomAttributesCache
sPi:_List_1_System_Collections_ICollection_get_SyncRoot_m1244917400_gshared
_ka:__ZL50__ManagedRegistrationHelperFunction_PostLateUpdatePv
PRa:__ZN4crndL20crnd_default_reallocEPvjPjbS0_
zDi:__Z54RuntimeInvoker_CustomAttributeNamedArgument_t287865710PFvvEPK10MethodInfoPvPS4_
Cqe:__ZL122SupportedRenderingFeatures_t353898663_CustomAttributesCacheGenerator_U3CrendererSupportsReflectionProbesU3Ek__BackingFieldP21CustomAttributesCache
mUj:__ZN15dense_hashtableINSt3__24pairIK10KeyWrapperIPK22Il2CppGenericParameterEPK24MonoGenericParameterInfoEES6_N6il2cpp5utils11PointerHashIS4_EEN14dense_hash_mapIS6_SA_SF_NS6_14EqualsComparerINS0_8equal_toIS5_EEEENS0_9allocatorISB_EEE9SelectKeyESK_SM_E13set_empty_keyERKSB_
oYa:__ZN18SpriteAtlasManager19AddRequestingSpriteE4PPtrI6SpriteE
x7h:_Predicate_1_EndInvoke_m3987519925_gshared
exe:__ZL102GUIStyle_t3956901511_CustomAttributesCacheGenerator_GUIStyle_INTERNAL_CALL_GetRectOffsetPtr_m152975056P21CustomAttributesCache
AQ:__ZNK4PPtrI9AudioClipEptEv
Xzd:_CanvasScaler_get_defaultSpriteDPI_m871626936
K7b:__ZN23ScriptableRenderContextC2Ev
AGd:_GridLayoutGroup_get_spacing_m2409263614
Wya:__ZN4PPtrI13RenderTextureE8TransferI18StreamedBinaryReadILb0EEEEvRT_
hIh:_List_1_CheckIndex_m581273900_gshared
X7c:_UNITY_FT_Stream_GetChar
QNf:_WaitForSeconds_t1699091251_marshal_pinvoke
mdi:_ObjectPool_1_get_countAll_m819305395_gshared
uzb:__Z18Transfer_BlittableI18StreamedBinaryReadILb1EELb1EdEvRK29SerializationCommandArgumentsR31RuntimeSerializationCommandInfo
ORi:_List_1_ToArray_m190175978_gshared
MFb:__Z26BuildSerializationCacheFor17ScriptingClassPtrRb
oud:_EventSystem_get_firstSelectedGameObject_m1576206896
pRb:__ZN7ApiGLES15BlitFramebufferEN2gl6HandleILNS0_10ObjectTypeE9EEENS0_15FramebufferReadES3_S3_iiiiiiiiNS0_15FramebufferTypeE
kXj:_il2cpp_class_get_name
aqi:__Z112RuntimeInvoker_RuntimeObject_RuntimeObject_RuntimeObject_RuntimeObject_RuntimeObject_RuntimeObject_RuntimeObjectPFvvEPK10MethodInfoPvPS4_
h6e:_InternalEnumerator_1_System_Collections_IEnumerator_get_Current_m3553395619_AdjustorThunk
J0d:__ZL70AssemblyVersionCompatibility_t766556580_CustomAttributesCacheGeneratorP21CustomAttributesCache
ape:__ZL60ReadOnlyAttribute_t3518714744_CustomAttributesCacheGeneratorP21CustomAttributesCache
wCg:_Array_SetValue_m3998268557
CSc:__ZN8JSONRead8TransferI8Vector4fEEvRT_PKc17TransferMetaFlagsb
UAd:_ColorBlock_set_highlightedColor_m2089444414_AdjustorThunk
zzi:__Z59RuntimeInvoker_Boolean_t97287965_X509ChainStatus_t133602714PFvvEPK10MethodInfoPvPS4_
CIf:_RectTransform_INTERNAL_set_anchoredPosition_m939517950
B8f:_Context_EndSwitchingSecurityParameters_m4148956166
g3c:_otv_PairPos_validate
Dae:__ZL63ThreadStateException_t3003788475_CustomAttributesCacheGeneratorP21CustomAttributesCache
qy:__ZN7mecanim9animation14CopyHumanPosesEPKNS0_18AnimationNodeStateEPS1_RKNS_6bitsetILj83EEE
cNj:__ZN6il2cpp6icalls8mscorlib6SystemL8IsStaticEPK12PropertyInfo
RGb:__Z9InitInputv
hUj:__ZN30dense_hashtable_const_iteratorINSt3__24pairIK10KeyWrapperIPK22Il2CppGenericParameterEPK24MonoGenericParameterInfoEES6_N6il2cpp5utils11PointerHashIS4_EEN14dense_hash_mapIS6_SA_SF_NS6_14EqualsComparerINS0_8equal_toIS5_EEEENS0_9allocatorISB_EEE9SelectKeyESK_SM_E30advance_past_empty_and_deletedEv
a5c:_UNITY_tt_face_build_cmaps
tQj:__ZN6il2cpp2gc19AppendOnlyGCHashMapINSt3__24pairIPK10MethodInfoP11Il2CppClassEEP22Il2CppReflectionMethod17ReflectionMapHashIS9_ENS2_8equal_toIS9_EEE3AddERKS9_SB_
vgb:__ZN16MemoryFileSystem6DeleteER13FileEntryDatab
Lki:__Z81RuntimeInvoker_Void_t1185182177_RuntimeObject_Int64_t3736567304_Int32_t2950945753PFvvEPK10MethodInfoPvPS4_
sJh:_List_1_set_Item_m1979164443_gshared
Ljh:_Array_InternalArray__ICollection_Add_TisLink_t3209266973_m77922316_gshared
XOa:__ZL21BlitScaleStbImageImplRK14ImageReferenceRS_NS_10ColorSpaceE
LEg:_Boolean_System_IConvertible_ToUInt16_m3465173538_AdjustorThunk
Is:__ZL48__ManagedRegistrationHelperFunction_SkeletonBonePv
Uuj:__ZL25UnresolvedVirtualCall_267P12Il2CppObjectiiPK10MethodInfo
zPf:_InputField_get_keyboardType_m1248105267
yqb:__Z29Transfer_Blittable_ArrayFieldI14SafeBinaryReadyEvRT_R9ArrayInfoRK23StaticTransferFieldInfo
HQ:__ZN20SoundChannelInstance15setChannelGroupEPN4FMOD12ChannelGroupE
Yaj:_Match__ctor_m2425511580
Lrh:_KeyPairPersistence_Remove_m1876145547
I1d:__ZL63FileNotFoundException_t225391025_CustomAttributesCacheGeneratorP21CustomAttributesCache
ic:invoke_vifffii
hCb:__Z35Transfer_Blittable_FixedBufferFieldI18StreamedBinaryReadILb0EEaEvRK29SerializationCommandArgumentsR31RuntimeSerializationCommandInfo
Peb:__ZNK25MultiBlocksMemoryFileData5CloneEv
NDg:_AsyncCallback_BeginInvoke_m2710486612
Whk:_GC_add_ext_descriptor
KOj:__ZNK15dense_hashtableINSt3__24pairIK10KeyWrapperINS1_IPK14Il2CppAssemblyP11Il2CppClassEEEjEES9_17ReflectionMapHashIS8_EN14dense_hash_mapIS9_jSD_NS9_14EqualsComparerINS0_8equal_toIS8_EEEENS0_9allocatorISB_EEE9SelectKeyESI_SK_E23find_position_with_hashERSA_j
sLi:_LayoutGroup_SetProperty_TisSingle_t1397266774_m793506911_gshared
$ik:__ZN6il2cpp2os14WindowsRuntime22GetRestrictedErrorInfoEv
mqf:_CryptoConfig_CreateFromName_m1538277313
Zdb:__ZN17ArchiveFileSystem11CreateAsDirER13FileEntryData
lsk:dynCall_iiiiiiiiiiii
op:__ZN9Scripting11UnityEngine2AI18NavMeshBuildSource9InitProxyEv
KPf:_InputField_set_caretPositionInternal_m3823580651
Rjd:__ZN18UnityConnectClient16IsServiceEnabledEv
Fqa:__ZN9Scripting11UnityEngine10ColorGamut9InitProxyEv
Vgb:__ZN22VertexDeclarationCacheD0Ev
GZf:_Selectable_set_interactable_m3105888815
LEa:__ZL26KeywordSetToStringDontSortRKNSt3__26vectorIN4core12basic_stringIcNS1_20StringStorageDefaultIcEEEENS_9allocatorIS5_EEEERS5_
tha:__ZN6prcoreL17RemapGenericFloatI16TexFormatRGFloat17TexFormatRGBAHalfEEvPKNS_9InnerInfoE
IS:__ZN12AudioManager22CreateFMODSoundFromWWWEP10IWWWStream15FMOD_SOUND_TYPE17FMOD_SOUND_FORMATjjbbP10SampleClip
cxc:__ZNK32RendererMaterialAnimationBinding15GenerateBindingERKN4core12basic_stringIcNS0_20StringStorageDefaultIcEEEEbRN11UnityEngine9Animation14GenericBindingE
rOd:_TargetException__ctor_m4172127019
LQi:_List_1_CheckCollection_m274117203_gshared
Hze:__ZL70EventSystem_t1003666588_CustomAttributesCacheGenerator_m_FirstSelectedP21CustomAttributesCache
L8:__ZN8Remapper23GetOrGenerateInstanceIDERK26SerializedObjectIdentifier
GBd:_ColorTween_get_startColor_m3792586410_AdjustorThunk
gbb:__ZN17FileSystemHandler10AtomicMoveER13FileEntryDataS1_
cIe:__ZL105TrackableField_t1772682203_CustomAttributesCacheGenerator_TrackableField__ctor_m3758796351____validTypes0P21CustomAttributesCache
vmf:_BinaryFormatter_get_SurrogateSelector_m2111882017
zxg:_X509CertificateCollection__ctor_m3365535796
glb:__ZN11TextureData17GetImageReferenceEii
vPe:_CustomInfo__ctor_m426096741
Gud:_EventSystem_ToString_m3779610692
yXa:__ZN6Sprite8TransferI24GenerateTypeTreeTransferEEvRT_
Fjf:_SoapTypeAttribute_get_IsInteropXmlType_m629667929
Jqc:__Z48Register_UnityEngine_Transform_SetAsFirstSiblingv
nOa:__ZNK18DelayedCallManager22GetTypeVirtualInternalEv
DXa:__ZN7SubMesh8TransferI24GenerateTypeTreeTransferEEvRT_
hfj:_Literal_IsComplex_m4067122560
$Aj:_NativeTypeAttribute__ctor_m133676646
sUb:__ZN19GfxThreadableDevice20SetShadersThreadableEPP10GpuProgramPPK20GpuProgramParametersPKPKh
hVh:_Collection_1_System_Collections_IList_Contains_m296643274_gshared
WVg:_DirectoryInfo__ctor_m126519516
JKd:_MethodBase_GetMethodFromIntPtr_m3014201362
W$h:__ZN21InterfaceFuncInvoker1I19Color32_t2600501292iE6InvokeEjP11Il2CppClassP12Il2CppObjecti
lej:_Reference_get_CapturingGroup_m3861468528
qhi:__Z40RuntimeInvoker_TypeAttributes_t113483779PFvvEPK10MethodInfoPvPS4_
oqc:__ZN9Transform23SetSiblingIndexInternalEib
wRi:_List_1_Clear_m1143167521_gshared
iPc:__ZN9JSONWrite8TransferI13dynamic_arrayIaLj0EEEEvRT_PKc17TransferMetaFlags
hXh:_Collection_1_SetItem_m794903769_gshared
C$g:_Enumerator_MoveNext_m635366482
qzg:_X509Extension_Equals_m1222951829
Gw:__ZN7mecanim5human12HumanPoseSubERNS0_9HumanPoseERKS1_S4_
bFi:__Z37RuntimeInvoker_Enumerator_t1789501480PFvvEPK10MethodInfoPvPS4_
Q5j:__ZN6il2cpp8metadata15GenericMetadata15GetGenericClassEiPK17Il2CppGenericInst
fHg:_Char_GetTypeCode_m2433327340_AdjustorThunk
Zob:__Z18Transfer_BlittableI14SafeBinaryReadLb0E10Matrix4x4fEvRK29SerializationCommandArgumentsR31RuntimeSerializationCommandInfo
bFb:__Z24GetFixedBehaviourManagerv
TYd:__ZL69IntPtr_t_CustomAttributesCacheGenerator_IntPtr_op_Equality_m408849716P21CustomAttributesCache
_Lj:__ZN6il2cpp2vm10ThreadPool4WaitEP17Il2CppAsyncResultPPv
Lyg:_PKCS12_Encrypt_m2617413749
Y9i:_X509Crl_VerifySignature_m1377612461
znk:_vfprintf
KLc:__ZN10GUIManager12AddGUIScriptER8ListNodeI13MonoBehaviourE
nma:__ZL53__ManagedRegistrationHelperFunction_StackTraceUtilityPv
S$g:_Stack_Clear_m2010200235
MNa:__ZL13SortTexByNameRKNSt3__24pairIN9ShaderLab16FastPropertyNameEN18UnityPropertySheet11UnityTexEnvEEES7_
S$c:_cf2_getVStore
wwd:_PointerEventData_set_pointerPressRaycast_m1363193059
IZb:__ZN20DynamicPropertySheetD0Ev
SQd:_SafeHandle_Dispose_m4229010569
abc:__ZN14SafeBinaryRead17RegisterConverterEPKcS1_PFbPvRS_E
tie:__ZL77RuntimePlatform_t4159857903_CustomAttributesCacheGenerator_OSXDashboardPlayerP21CustomAttributesCache
$0:__ZN35RegisterRuntimeInitializeAndCleanup8RegisterEPFvPvES2_iS0_
C7i:_SubjectAltNameExtension_get_IPAddresses_m1641002124
rUe:_FieldBuilder_SetValue_m828035213
J1h:_ReadOnlyCollection_1_System_Collections_IList_get_IsFixedSize_m733459177_gshared
f6h:__ZN28GenericInterfaceFuncInvoker0IfE6InvokeEPK10MethodInfoP12Il2CppObject
oZd:__ZL72Enum_t4135868527_CustomAttributesCacheGenerator_Enum_ToObject_m121962870P21CustomAttributesCache
SIh:__ZN23InterfaceActionInvoker2IP24ObjectU5BU5D_t2843939325iE6InvokeEjP11Il2CppClassP12Il2CppObjectS1_i
vGc:__Z21Object_CUSTOM_DestroyP12Il2CppObjectf
kje:__ZL99SetupCoroutine_t2062820429_CustomAttributesCacheGenerator_SetupCoroutine_InvokeMoveNext_m3199342729P21CustomAttributesCache
rWb:__ZN8Material26ResetAllCachedMaterialDataEP6Shader
Eoi:__Z63RuntimeInvoker_Void_t1185182177_RuntimeObject_Int16_t2552820387PFvvEPK10MethodInfoPvPS4_
h8c:_UNITY_TT_Get_MM_Var
Jnf:_ObjectManager_AddFixup_m2154325362
q8e:_Comparer_1__cctor_m3761458313_gshared
Y7g:_DateTimeOffset_CompareTo_m1350732322_AdjustorThunk
aa:invoke_diddi
Ucd:__ZNK2UI6Canvas13GetRenderModeEv
uyf:_PersistentCall__ctor_m1217622171
Ahh:_Array_compare_TisCustomAttributeTypedArgument_t2723150157_m1384644047_gshared
vth:_StrongName_get_TokenAlgorithm_m1794722022
iob:__Z18Transfer_BlittableI14SafeBinaryReadLb0EiEvRK29SerializationCommandArgumentsR31RuntimeSerializationCommandInfo
MJj:__ZN6il2cpp2vm13MetadataCache30GetPropertyDefinitionFromIndexEi
_jj:_SymmetricTransform_Transform_m1683494363
JHf:_Rect_Contains_m1232228501
Umd:__ZN22BaseUnityConnectClient17InitializeSessionERKN4core12basic_stringIcNS0_20StringStorageDefaultIcEEEES6_N19CloudServiceHandler13InitModeFlagsE
X$d:__ZL56KeyCollection_t4251528776_CustomAttributesCacheGeneratorP21CustomAttributesCache
Lui:__Z74RuntimeInvoker_RuntimeObject_Int32_t2950945753_RuntimeObject_RuntimeObjectPFvvEPK10MethodInfoPvPS4_
zWi:_List_1_get_Item_m200663048_gshared
iXd:_ReturnMessage_get_Exception_m3375728265
cyk:_emscripten_glDeleteBuffers__wrapper
O1e:_InternalEnumerator_1_MoveNext_m3664960764_AdjustorThunk
lDc:__ZN13MonoBehaviour34StopCoroutineFromEnumeratorManagedE18ScriptingObjectPtr
mje:__ZL57DebugLogHandler_t826086171_CustomAttributesCacheGeneratorP21CustomAttributesCache
fPi:_List_1__ctor_m1345008423_gshared
i6c:_gray_raster_reset
Rs:__ZN9Scripting11UnityEngine9HumanBone12CleanupProxyEv
bUc:__ZN11UnityEngine9Analytics18SceneLoadTimeEvent12SetSceneLoadERKN4core12basic_stringIcNS2_20StringStorageDefaultIcEEEEiyyyy
C4a:__ZN30RuntimeInitializeOnLoadManager8TransferI18StreamedBinaryReadILb0EEEEvRT_
M1g:_DateTimeOffset__ctor_m2084804982
D4c:_UNITY_tt_face_load_pclt
Wnb:__ZN9profiling17ScriptingProfiler31UpdateRegisteredScriptingEventsEv
$mc:__ZL34GetComponentsImplementationRecurseILb1ELi0ELi2EEbR10GameObjectbRK17CompareParametersRK39GetComponentsImplementation_ReturnValue
YCg:_Array_Sort_m3698291233
oBf:_Material_GetTexture_m3545614349
GYa:__ZN13ScreenManager22SetResolutionImmediateEii14FullscreenModei
vfi:__Z64RuntimeInvoker_RuntimeObject_Int32_t2950945753_Int16_t2552820387PFvvEPK10MethodInfoPvPS4_
iqh:_ASN1_get_Length_m1923878580
Yyh:_EqualityComparer_1__cctor_m4244842342_gshared
bZb:__ZNK6Camera18WorldToScreenPointERK8Vector3fPb
PJf:_SendMouseEvents_DoSendMouseEvents_m2140870850
Fhd:__ZN14UnityAnalyticsD0Ev
Ybj:_PatternCompiler_EmitJump_m3915926156
QKb:__Z18IsCompressedFormat14GraphicsFormat
_w:__ZN7mecanim9animation19AdjustPoseForMotionERKNS0_14AvatarConstantERKNS0_14SkeletonTQSMapERKN4math4trsXERNS_10ValueArrayERNS_8skeleton13SkeletonPoseTIS8_EESG_
bof:_SerializationEntry_get_Name_m1530029541_AdjustorThunk
wMd:_MonoMethod_GetBaseDefinition_m2844667474
UOh:__Z33il2cpp_codegen_check_add_overflowxx
P6:__ZNSt3__227__insertion_sort_incompleteIRPFbRKN18AwakeFromLoadQueue4ItemES4_EPS2_EEbT0_S9_T_
Dui:__Z71RuntimeInvoker_Boolean_t97287965_AnimatorControllerPlayable_t1015767841PFvvEPK10MethodInfoPvPS4_
Bie:__ZL73RuntimePlatform_t4159857903_CustomAttributesCacheGenerator_MetroPlayerARMP21CustomAttributesCache
nVg:_InvalidOperationException__ctor_m1685032583
MHj:__ZN14dense_hash_mapI10KeyWrapperIN6il2cpp5utils13dynamic_arrayIPK10Il2CppTypeLj4EEEEPFvvENS1_8metadata19Il2CppSignatureHashENS8_14EqualsComparerINSB_22Il2CppSignatureCompareEEENSt3__29allocatorINSG_4pairIKS8_SA_EEEEE15set_deleted_keyERSJ_
APh:_TimeSpan_op_Subtraction_m3592306516
WAh:_EqualityComparer_1_System_Collections_IEqualityComparer_GetHashCode_m1517903420_gshared
fWa:__ZN26EnlightenSystemInformation8TransferI14SafeBinaryReadEEvRT_
q5a:__ZN24GenerateTypeTreeTransfer8TransferINSt3__26vectorIN15ResourceManager10DependencyE13stl_allocatorIS4_L18MemLabelIdentifier52ELi16EEEEEEvRT_PKc17TransferMetaFlags
_xj:_CanvasRenderer_SplitUIVertexStreams_m2753637362
kwi:__Z119RuntimeInvoker_Void_t1185182177_RuntimeObject_Single_t1397266774_Single_t1397266774_SByte_t1669577662_Int32_t2950945753PFvvEPK10MethodInfoPvPS4_
bAa:__ZN27PerObjectLightCullingOutputD2Ev
V0a:__ZN12MeshRendererD0Ev
TT:__ZN12AudioManager35GetCurrentSpatializerDefinitionNameEv
kLf:_TouchScreenKeyboard_get_active_m4267591905
Cma:__ZN9Scripting11UnityEngine14WaitForSeconds9InitProxyEv
FTj:__ZNK15dense_hashtableINSt3__24pairIK10KeyWrapperIPK14Il2CppAssemblyEPK22Il2CppMonoAssemblyNameEES6_N6il2cpp5utils11PointerHashIS4_EEN14dense_hash_mapIS6_SA_SF_NS6_14EqualsComparerINS0_8equal_toIS5_EEEENS0_9allocatorISB_EEE9SelectKeyESK_SM_E8min_sizeEjj
yh:_utime
Dpe:__ZL56PlayableGraph_t3515989261_CustomAttributesCacheGeneratorP21CustomAttributesCache
pej:_BalancingGroup_Compile_m2575117193
fWj:__ZNSt3__26vectorIN6il2cpp2vm17TypeNameParseInfoENS_9allocatorIS3_EEE8allocateEj
Ws:__ZN9Scripting11UnityEngine22AnimatorTransitionInfo9InitProxyEv
Taj:_Mark_get_Index_m3048692661_AdjustorThunk
u6i:_TlsServerSettings_get_CertificateRequest_m842655670
on:FUNCTION_TABLE_viiiiif
S7e:_DefaultComparer_Compare_m3931992727_gshared
tn:FUNCTION_TABLE_viiiiii
L6e:_InternalEnumerator_1_System_Collections_IEnumerator_get_Current_m1847780851_AdjustorThunk
Qij:_GUILayoutUtility_get_spaceStyle_m3392862907
Zgg:_SecurityException_ToString_m3228070608
N1g:_DateTimeOffset__ctor_m74032857
Fzg:_SmallXmlParser_Error_m3899025466
ZF:__ZN7mecanim9animation22DestroyAvatarWorkspaceEPNS0_15AvatarWorkspaceERNS_6memory9AllocatorE
uQh:_Type_type_is_assignable_from_m76737532
JIc:__ZN9Scripting11UnityEngine14GUILayoutGroup12CleanupProxyEv
GUf:_MaskableGraphic_ParentMaskStateChanged_m1092090553
fOa:__ZN14PlayableOutput17SetSourcePlayableEP8Playable
u4a:__ZNSt3__26vectorIN4core12basic_stringIcNS1_20StringStorageDefaultIcEEEE13stl_allocatorIS5_L18MemLabelIdentifier13ELi16EEE8__appendEj
AF:__ZN7mecanim9animation29MotionOutputGetDeltaTransformEPKNS0_12MotionOutputE
aUc:__ZN27PerformanceReportingManager21OnSceneTimingCallbackERK15SceneLoadTimingRKN4core12basic_stringIcNS3_20StringStorageDefaultIcEEEE
X6i:_ValidationResult_get_ErrorCode_m1533688152
Vpc:__Z43Transform_CUSTOM_INTERNAL_get_localRotationP12Il2CppObjectP11Quaternionf
cOg:_CultureInfo_get_Parent_m672689885
rik:__ZN6il2cpp6icalls8mscorlib6System10Reflection4Emit13ModuleBuilder13RegisterTokenEP29Il2CppReflectionModuleBuilderP12Il2CppObjecti
ini:__Z50RuntimeInvoker_Int64_t3736567304_SByte_t1669577662PFvvEPK10MethodInfoPvPS4_
hwk:_glGetShaderInfoLog__wrapper
Xqe:__ZL63SpriteBone_t303320096_CustomAttributesCacheGenerator_m_ParentIdP21CustomAttributesCache
Uef:_Transform_1_EndInvoke_m2716226219_gshared
bi:_emscripten_glGetTexParameteriv
Aka:__ZL49__ManagedRegistrationHelperFunction_ComputeBufferPv
dkd:__ZN11UnityEngine7Connect15DeviceInfoEvent7GFXInfoD2Ev
Fxk:_glGenTextures__wrapper
XZj:__ZN15dense_hashtableINSt3__24pairIK10KeyWrapperINS1_IP11Il2CppClassjEEES4_EES6_N6il2cpp8metadata14ArrayClassHashEN14dense_hash_mapIS6_S4_SB_NS6_14EqualsComparerINSA_17ArrayClassCompareEEENS0_9allocatorIS8_EEE9SelectKeyESF_SH_EC2EjRKSB_RKSF_RKSJ_
MKh:_UnicodeEncoding_GetHashCode_m354003420
Hfc:__ZN9ShaderLab20SerializedSubProgram14ConstantBufferaSERKS1_
Lch:_Enum_Equals_m3617313991
GZd:__ZL69RuntimeArray_CustomAttributesCacheGenerator_Array_SetValue_m394135409P21CustomAttributesCache
Lyi:__Z74RuntimeInvoker_Boolean_t97287965_LineTypeU26_t2430394419_Int32_t2950945753PFvvEPK10MethodInfoPvPS4_
cLa:__ZN8PlayableD0Ev
vg:emscriptenWebGLGetBufferBinding
gM:__ZN12AudioManager8TransferI19StreamedBinaryWriteILb0EEEEvRT_
h_f:_Slider_UpdateCachedReferences_m3259451627
Vfe:__ZL63X509ChainStatusFlags_t1026973125_CustomAttributesCacheGeneratorP21CustomAttributesCache
Zmi:__Z50RuntimeInvoker_Double_t594665363_Double_t594665363PFvvEPK10MethodInfoPvPS4_
Gli:__Z60RuntimeInvoker_Void_t1185182177_StreamingContext_t3711869237PFvvEPK10MethodInfoPvPS4_
CHe:__ZL62Shadow_t773074319_CustomAttributesCacheGenerator_m_EffectColorP21CustomAttributesCache
P_j:__ZN15dense_hashtableINSt3__24pairIK10KeyWrapperINS1_IP11Il2CppClassjEEES4_EES6_N6il2cpp8metadata14ArrayClassHashEN14dense_hash_mapIS6_S4_SB_NS6_14EqualsComparerINSA_17ArrayClassCompareEEENS0_9allocatorIS8_EEE9SelectKeyESF_SH_E6insertERKS8_
gEd:_U3CShowU3Ec__AnonStorey1_U3CU3Em__0_m2340880019
Xmd:__ZN22BaseUnityConnectClient38PrepareConfigRequestOnMainThreadStaticEPS_
uZf:_Selectable_OnSetProperty_m1693943217
dIh:_List_1_GetIndex_m2300811709_gshared
bxc:__ZNK32RendererMaterialAnimationBinding12GetPPtrValueERKN11UnityEngine9Animation10BoundCurveE
sBb:__Z18Transfer_BlittableI18StreamedBinaryReadILb0EELb0E8Vector2fEvRK29SerializationCommandArgumentsR31RuntimeSerializationCommandInfo
dgd:__ZN2UI11CanvasGroup12CleanupClassEv
R6i:_TlsStream_Flush_m3793197834
$Ih:_List_1_GetIndex_m2832472557_gshared
ibb:__ZN22LocalFileSystemHandler9MakeLocalER13FileEntryDatab
Mdk:__ZN6il2cpp2vm8Profiler10AllocationEP12Il2CppObjectP11Il2CppClass
ZCe:__ZL61Graphic_t1660335611_CustomAttributesCacheGenerator_m_MaterialP21CustomAttributesCache
Kga:__Z13FormatOrderedPKcz
zNj:__ZN6il2cpp2vm8basepathEPKc
N4e:_InternalEnumerator_1_get_Current_m1506120701_AdjustorThunk
ptg:_X509Chain_GetAuthorityKeyIdentifier_m614536199
WXc:__ZN14SafeBinaryRead21TransferSTLStyleArrayI10vector_mapINSt3__24pairIttEEfN20TextRenderingPrivate8FontImpl14KerningCompareENS2_9allocatorINS3_IS4_fEEEEEEEvRT_17TransferMetaFlags
o7f:_TlsServerFinished__ctor_m1445633918
nPe:_NumberFormatter_FastIntegerToString_m390846811
LTf:__ZN21InterfaceFuncInvoker0IfE6InvokeEjP11Il2CppClassP12Il2CppObject
m0a:__ZN14CompressedMesh10GetQualityE15MeshCompression
z4b:__ZN25DeferredRenderLoopScratchD0Ev
gz:__ZN27AnimationLayerMixerPlayable14SetInputWeightEif
vsi:__Z83RuntimeInvoker_Void_t1185182177_RuntimeObject_Single_t1397266774_Single_t1397266774PFvvEPK10MethodInfoPvPS4_
$vd:_PhysicsRaycaster_Raycast_m776323695
yMf:_UnityException__ctor_m1456865679
Cw:__ZN7mecanim9animation17EvaluateHumanPoseERKNS0_18ClipMuscleConstantERKNS0_15ClipMuscleInputEPKfRKNS0_12MotionOutputERNS_5human9HumanPoseE
AAe:__ZL92PointerEventData_t3807901092_CustomAttributesCacheGenerator_U3CscrollDeltaU3Ek__BackingFieldP21CustomAttributesCache
Sec:__ZN15dense_hashtableINSt3__24pairIKiN4core17string_with_labelILi1EEEEEi18SInt32HashFunctionN14dense_hash_mapIiS5_S7_NS0_8equal_toIiEE13stl_allocatorIS6_L18MemLabelIdentifier1ELi16EEE9SelectKeyESA_SD_E9copy_fromERKSG_j
PRe:_CustomAttributeNamedArgument_GetHashCode_m2317130892
N4a:__ZN15ResourceManagerD0Ev
Wyh:_EqualityComparer_1_get_Default_m990790318_gshared
WVf:_GetRayIntersectionAllCallback__ctor_m391992746
DBa:__ZN22CreateGpuProgramOutputD2Ev
DVi:_List_1_get_Item_m1378751541_gshared
Ewb:__Z18Transfer_BlittableI19StreamedBinaryWriteILb0EELb1EsEvRK29SerializationCommandArgumentsR31RuntimeSerializationCommandInfo
V7d:__ZL52HMACSHA512_t923916539_CustomAttributesCacheGeneratorP21CustomAttributesCache
Fhf:_ValueCollection_CopyTo_m2188334703_gshared
RIf:__ZN23InterfaceActionInvoker1IP25RectTransform_t3704657025E6InvokeEjP11Il2CppClassP12Il2CppObjectS1_
Ccg:_SHA1CryptoServiceProvider_Finalize_m1793183797
S0g:_Convert_ToByte_m4146281512
DCh:_HashSet_1_System_Collections_Generic_ICollectionU3CTU3E_CopyTo_m408073502_gshared
z3f:_EncryptedPrivateKeyInfo_get_EncryptedData_m491452551
xbb:__ZN12HandlerChain4OpenER13FileEntryData14FilePermission16FileAutoBehavior
wkh:_Array_InternalArray__ICollection_Add_TisPlayerLoopSystem_t105772105_m1930641144_gshared
lCi:__Z72RuntimeInvoker_Void_t1185182177_Int32_t2950945753_RaycastHit_t1056001966PFvvEPK10MethodInfoPvPS4_
lce:__ZL79Convert_t2465617642_CustomAttributesCacheGenerator_Convert_ToUInt16_m1147931813P21CustomAttributesCache
xQj:__ZN15dense_hashtableINSt3__24pairIK10KeyWrapperINS1_IPK10MethodInfoP11Il2CppClassEEEjEES9_17ReflectionMapHashIS8_EN14dense_hash_mapIS9_jSD_NS9_14EqualsComparerINS0_8equal_toIS8_EEEENS0_9allocatorISB_EEE9SelectKeyESI_SK_E6insertERKSB_
VK:__ZL55__ManagedRegistrationHelperFunction_AudioPlayableOutputPv
mUc:__ZN27PerformanceReportingManager29OnSceneLoadedAfterAwakeStaticEPS_iR18AwakeFromLoadQueueN19RuntimeSceneManager11LoadingModeE
uCg:_Array_SetValue_m394135409
T9:__ZN14FileCacherReadD2Ev
H7a:__ZN13RendererScene23UpdatePreviousFrameDataEii
qDf:_MonoBehaviour_StopCoroutine_m615723318
Jmc:__Z50Register_UnityEngine_CullingGroup_FinalizerFailurev
aNi:_Mesh_GetAllocArrayFromChannel_TisVector2_t2156229523_m1057679375_gshared
qfg:_SecurityPermission_IsSubsetOf_m545000671
FAa:__ZNK4PPtrI5FlareEcvPS0_Ev
Zz:__ZN26AnimatorControllerPlayable6MemoryD2Ev
UEi:__Z56RuntimeInvoker_Int32_t2950945753_SpriteState_t1362986479PFvvEPK10MethodInfoPvPS4_
Jjc:__ZN12ShaderErrors11ShaderErrorC2EOS0_
jqk:__ZNKSt3__221__basic_string_commonILb1EE20__throw_out_of_rangeEv
Vwf:_Cursor_get_lockState_m2828192107
aii:__Z78RuntimeInvoker_Boolean_t97287965_RuntimeObject_RuntimeObject_Int32_t2950945753PFvvEPK10MethodInfoPvPS4_
dLj:_UpdatedEventHandler_Invoke_m1320302085
hkg:_String_Format_m630303134
D3j:__ZNK15dense_hashtableINSt3__24pairIK10KeyWrapperIP14Il2CppIUnknownEjEES5_N6il2cpp5utils11PointerHashIS3_EEN14dense_hash_mapIS5_jSB_NS5_14EqualsComparerINS0_8equal_toIS4_EEEENS0_9allocatorIS7_EEE9SelectKeyESG_SI_E12test_deletedERK24dense_hashtable_iteratorIS7_S5_SB_SK_SG_SI_E
vS:__ZN9AudioClip23VirtualRedirectTransferER18StreamedBinaryReadILb0EE
VG:__ZN26AnimatorOverrideController23VirtualRedirectTransferER24GenerateTypeTreeTransfer
_Vi:_List_1_AddEnumerable_m2724989594_gshared
$Wi:_List_1_Contains_m2043463915_gshared
cvi:__Z82RuntimeInvoker_Vector2_t2156229523_Vector2_t2156229523_RuntimeObject_RuntimeObjectPFvvEPK10MethodInfoPvPS4_
YEc:__Z70Register_UnityEngine_Playables_PlayableHandle_GetPlayableType_Injectedv
oJb:__ZNK4PPtrI23ShaderVariantCollectionEcvPS0_Ev
s2f:_ARC4Managed_TransformBlock_m1687647868
Cj:_glCopyTexSubImage2D
jxc:__ZNK24RendererAnimationBinding13GetFloatValueERKN11UnityEngine9Animation10BoundCurveE
$Z:__ZNK15DownloadHandler14HasPendingDataEv
DMf:_UnitySynchronizationContext_ExecuteTasks_m1310741010
$3i:_RIPEMD160Managed_CompressFinal_m497690796
wGb:__ZN18ScreenManagerWebGL13SetShowCursorEb
l_e:_InternalEnumerator_1_MoveNext_m1773160976_gshared
tUb:__ZN13DrawImmediateC2ER9GfxDevice
bEa:__ZN18VertexChannelsInfoC2ERA12_K11ChannelInfo
Ddd:__ZN2UI13CanvasManager14GetRenderOrderEPKNS_6CanvasE
Vob:__Z18Transfer_BlittableI14SafeBinaryReadLb0E5RectTIfEEvRK29SerializationCommandArgumentsR31RuntimeSerializationCommandInfo
rPe:_NumberFormatter_NumberToString_m2562899600
Sdg:_SymmetricAlgorithm_get_FeedbackSize_m3666584308
o3c:_otv_u_C_x_Ox
ZVc:__ZL44__ManagedRegistrationHelperFunction_ColliderPv
EZd:__ZL70RuntimeArray_CustomAttributesCacheGenerator_Array_GetValue_m1062368071P21CustomAttributesCache
tyk:_emscripten_glGenVertexArrays__wrapper
NUh:_Version_Clone_m1749041863
Ndf:_ShimEnumerator_get_Key_m4155849607_gshared
xPa:__ZN6prcoreL21CreateRemapAnyBlitterE13TextureFormatS0_
b4f:_RSAManaged_ExportParameters_m1754454264
FBc:__ZN17AnimationCurveTplIfE16StripInvalidKeysEv
XEg:_Boolean_Equals_m535526264_AdjustorThunk
vEi:__Z71RuntimeInvoker_KeyValuePair_2_t71524366_Int32_t2950945753_RuntimeObjectPFvvEPK10MethodInfoPvPS4_
Hod:__ZN13dynamic_arrayIiLj0EE6insertEPiPKiS3_
Ndd:__ZNK2UI6Canvas17GetSortingLayerIDEv
T4g:_Convert_ToUInt16_m3116648921
ACc:__ZL12HashLen0to16PKcj
dYj:_il2cpp_method_has_attribute
AVa:__ZN8Renderer24SetupNewRendererForSceneEv
oQh:_Type_internal_from_name_m1721940673
wYj:_il2cpp_type_get_class_or_element_class
VJi:_Array_swap_TisCustomAttributeTypedArgument_t2723150157_TisCustomAttributeTypedArgument_t2723150157_m365781156_gshared
Sch:_Environment_get_TickCount_m2088073110
llf:_RemotingServices_GetMethodBaseFromName_m3194612939
MQc:__Z35Transfer_Blittable_FixedBufferFieldI8JSONReadtEvRK29SerializationCommandArgumentsR31RuntimeSerializationCommandInfo
BAa:__ZN4PPtrI7TextureE8TransferI14SafeBinaryReadEEvRT_
Ezc:__ZN14PlayableOutput6HandleEv
MWa:__ZNK6Sprite22GetTypeVirtualInternalEv
Rpa:__ZN9Scripting11UnityEngine12Experimental9Playables22MaterialEffectPlayable9InitProxyEv
Lmd:__ZNSt3__26__treeINS_12__value_typeIN4core12basic_stringIcNS2_20StringStorageDefaultIcEEEEN11UnityEngine7Connect19RemoteSettingsValueEEENS_19__map_value_compareIS6_SA_NS_4lessIS6_EELb1EEE13stl_allocatorISA_L18MemLabelIdentifier6ELi16EEE16__construct_nodeIJNS_4pairIS6_S9_EEEEENS_10unique_ptrINS_11__tree_nodeISA_PvEENS_22__tree_node_destructorISF_ISP_LSG_6ELi16EEEEEEDpOT_
nn:FUNCTION_TABLE_iiiiiiiiiiiiii
XAj:_NativePropertyAttribute__ctor_m2033094153
Yod:__ZN19UnityConnectService18OnPlayerQuitStaticEPS_
f4c:_UNITY_tt_get_cmap_info
xbg:_SslClientStream_RaiseServerCertificateValidation_m3477149273
Jvb:__Z29Transfer_Blittable_ArrayFieldI24GenerateTypeTreeTransfer5RectTIiEEvRT_R9ArrayInfoRK23StaticTransferFieldInfo
AGa:__ZN16ReflectionProbes8ScheduleEN18ReflectionProbeJob7JobTypeEP15ReflectionProbei
s7f:_ClientSessionInfo_KeepAlive_m1020179566
qXi:_List_1_ToArray_m4056539300_gshared
U0d:__ZL51Calendar_t1661121569_CustomAttributesCacheGeneratorP21CustomAttributesCache
$aa:__ZN16MessageForwarder13HandleMessageEPviR11MessageData
Ycb:__Z18IsDirectoryCreatedRKN4core12basic_stringIcNS_20StringStorageDefaultIcEEEE
cfg:_String_FormatHelper_m3913915042
Lbd:__ZN2UI13CanvasManagerD2Ev
uRe:_ConstructorInfo__cctor_m1016079270
yEj:__ZN15dense_hashtableINSt3__24pairIK10KeyWrapperIPKcEP11Il2CppClassEES5_N6il2cpp5utils11StringUtils12StringHasherIS4_EEN14dense_hash_mapIS5_S8_SE_NS5_14EqualsComparerINSB_13VmStringUtils21CaseSensitiveComparerEEENS0_9allocatorIS9_EEE9SelectKeyESJ_SL_E15set_deleted_keyERKS9_
iVh:__ZN21InterfaceFuncInvoker1Ib20UIVertex_t4057497605E6InvokeEjP11Il2CppClassP12Il2CppObjectS0_
xYh:_ReadOnlyCollection_1_Contains_m1700717617_gshared
rAg:_AttrListImpl_get_Names_m977594476
NRe:_CustomAttributeData_GetHashCode_m3727773664
m_c:_UNITY_FT_GlyphLoader_Done
lga:__ZNSt3__23mapIiN11TypeManager18TypeCallbackStructENS_4lessIiEENS_9allocatorINS_4pairIKiS2_EEEEEixERS7_
hxe:__ZL89GUIStyle_t3956901511_CustomAttributesCacheGenerator_GUIStyle_get_stretchWidth_m3556443132P21CustomAttributesCache
jOd:_Pointer_Box_m389276611
snb:__ZNK17InstancingBatcher15RenderInstancesERK19ShaderPropertySheetRKNS_22RenderInstancesConfigsERK11MeshBuffersRK16DrawBuffersRange16VertexInputMasks
Qah:_StackTrace_get_FrameCount_m344690939
H9:__ZN13dynamic_arrayIcLj0EE6insertEPcPKcS3_
mKe:_UnexceptionalStreamWriter_Write_m363195622
PBe:__ZL108U3CStartU3Ec__Iterator0_t1249263001_CustomAttributesCacheGenerator_U3CStartU3Ec__Iterator0__ctor_m1316384627P21CustomAttributesCache
f5c:_tt_cmap14_char_var_index
qCb:__Z35Transfer_Blittable_FixedBufferFieldI18StreamedBinaryReadILb0EEdEvRK29SerializationCommandArgumentsR31RuntimeSerializationCommandInfo
xQf:_Selectable_OnPointerDown_m1086067264
k9c:_psh_globals_new
ADd:_Dropdown_SetupTemplate_m628218778
kMh:_Thread_GetCompressedStack_m2923422412
Q4f:__ZN28GenericInterfaceFuncInvoker2IbP26X509Certificate_t713131622P22Int32U5BU5D_t385246372E6InvokeEPK10MethodInfoP12Il2CppObjectS1_S3_
dCf:_Matrix4x4_MultiplyPoint3x4_m4145063176
Erg:_X509BasicConstraintsExtension_ToString_m1809935297
chb:__ZN9GfxDevice20SetMaxBufferedFramesEi
Jci:_TweenRunner_1_StartTween_m1055628540_gshared
E_h:_ReadOnlyCollection_1_System_Collections_IList_Remove_m4129318771_gshared
eLi:_GameObject_GetComponents_TisRuntimeObject_m1246177135_gshared
mP:__ZN24AudioScriptBufferManagerD2Ev
Bsk:dynCall_vdd
eLe:_MethodAccessException__ctor_m3542088436
vcc:__Z23ConvertIntegerToTypePtrIsEbPvR14SafeBinaryRead
ut:__ZN9Scripting11UnityEngine10Animations26AnimatorControllerPlayable9InitProxyEv
fIg:_ArrayListWrapper_get_Capacity_m51087796
cSf:_LayoutElement_get_minHeight_m4160507569
end:__ZN11UnityEngine7Connect13ConfigHandler13ConfigChangedERKN4core12basic_stringIcNS2_20StringStorageDefaultIcEEEEb
qyh:_EqualityComparer_1_System_Collections_IEqualityComparer_GetHashCode_m2230215241_gshared
eGe:__ZL60ContentSizeFitter_t3850442145_CustomAttributesCacheGeneratorP21CustomAttributesCache
yLg:_Hashtable_Contains_m2145146412
Ghe:__ZL64UnmarshalledAttribute_t1517743549_CustomAttributesCacheGeneratorP21CustomAttributesCache
Dja:__ZN6prcoreL29inner_stretch_rgb565_bilinearEPKNS_9InnerInfoE
rzf:_MaterialEffectPlayable_Equals_m3750885802
nDa:__Z26TransformVerticesInnerLoopILb0ELb0ELb1EEvPhRK10Matrix4x4fRK10Matrix3x3fjPKhiS8_ii25GfxTransformVerticesFlagsj
Xkk:__ZN6il2cpp2os9FastMutex4LockEv
ySg:_Int32_FindCurrency_m3541026887
vxg:_Interval_CompareTo_m3282557545
rzk:_pthread_cond_wait__wrapper
G3b:__ZNK14RenderSettings19GetFlatAmbientColorEv
ICa:__ZN8DrawUtil24DrawMeshRawFromNodeQueueERK15RenderNodeQueuej16VertexInputMasksi
E3a:__ZN18StreamedBinaryReadILb0EE21TransferSTLStyleArrayI10vector_mapIPKN5Unity4TypeE7Hash128NSt3__24lessIS6_EENS8_9allocatorINS8_4pairIS6_S7_EEEEEEEvRT_17TransferMetaFlags
dB:__ZNK27StateMachineBehaviourPlayer15IsSenderEnabledEv
_Qj:__ZN6il2cpp2gc19AppendOnlyGCHashMapINSt3__24pairIPK11Il2CppImageP11Il2CppClassEEP22Il2CppReflectionModule17ReflectionMapHashIS9_ENS2_8equal_toIS9_EEE11TryGetValueERKS9_PSB_
HFe:__ZL58Text_t1901882714_CustomAttributesCacheGenerator_m_FontDataP21CustomAttributesCache
NUe:_GenericTypeParameterBuilder_IsPrimitiveImpl_m1952010459
h_h:_ReadOnlyCollection_1_CopyTo_m3474153465_gshared
K3i:_RijndaelManagedTransform_TransformBlock_m1610137419
Dqc:__Z40Register_UnityEngine_Transform_SetParentv
X8d:__ZL94WindowsIdentity_t2948242406_CustomAttributesCacheGenerator_WindowsIdentity_Dispose_m3466258450P21CustomAttributesCache
OOa:__ZN14Texture2DArray17UploadToGfxDeviceEv
dO:__Z14FMODMemoryFreePvjPKc
lte:__ZL100RectTransform_t3704657025_CustomAttributesCacheGenerator_RectTransform_INTERNAL_get_rect_m3130887130P21CustomAttributesCache
LFh:_Enumerator__ctor_m2029608698_gshared
Kpa:__ZN9Scripting11UnityEngine12Experimental10PlayerLoop11FixedUpdate12CleanupProxyEv
nyf:_NetFxCoreExtensions_GetMethodInfo_m444570327
fQh:_Type_get_IsSystemType_m624798880
GCf:_Mesh_SetNormals_m2521889643
i1d:__ZL77RegionInfo_t1090270226_CustomAttributesCacheGenerator_U3CU3Ef__switchU24map1BP21CustomAttributesCache
x0c:_cf2_glyphpath_moveTo
bVi:_List_1_AddCollection_m1469681717_gshared
fEc:__Z51Register_UnityEngine_Texture_get_texelSize_Injectedv
xKf:_StackTraceUtility_SetProjectFolder_m830524047
Dx:__ZN7mecanim23TransformValueArrayLoopEiiiRKN4math4trsXES3_RNS_10ValueArrayEf
H7f:_ClientSessionInfo_Finalize_m2165787049
jLc:__ZN5IMGUI14GUIWindowStateD2Ev
E6f:_ClientContext_Clear_m1774063253
X2a:__ZN26PlayerSettingsSplashScreen16CheckConsistencyEv
YAc:__ZN4Mesh17SetIndicesComplexEPKvjj16GfxPrimitiveTypeij
i7g:_DateTime_AddSeconds_m332574389_AdjustorThunk
kMf:_RequestAtlasCallback_Invoke_m378128467
yFg:_Byte_System_IConvertible_ToSByte_m1869482168
_ki:__Z99RuntimeInvoker_RuntimeObject_RuntimeObject_RuntimeObject_StreamingContext_t3711869237_RuntimeObjectPFvvEPK10MethodInfoPvPS4_
olj:_AnalyticsEventTracker_Awake_m2780522130
FE:__ZN7mecanim5human10RetargetToEPKNS0_5HumanEPKNS0_9HumanPoseES6_RKN4math4trsXEPS4_PNS_8skeleton13SkeletonPoseTIS8_EESF_
wx:__ZN7mecanim9animation8SeekClipERKNS0_12StreamedClipERNS0_18StreamedClipMemoryEf
_zf:_GameObject_Internal_AddComponentWithType_m3797731663
lm:_emscripten_glIsTexture
Sk:_emscripten_glHint
skj:_Check_SourceAndPredicate_m2332465641
uZd:__ZL70RuntimeArray_CustomAttributesCacheGenerator_Array_get_Length_m21610649P21CustomAttributesCache
V7c:_ft_var_readpackeddeltas
Spe:__ZL80Logger_t274032455_CustomAttributesCacheGenerator_U3ClogEnabledU3Ek__BackingFieldP21CustomAttributesCache
Rvh:_Dictionary_2_Clear_m1938428402_gshared
Ryb:__Z35Transfer_Blittable_FixedBufferFieldI18StreamedBinaryReadILb1EEtEvRK29SerializationCommandArgumentsR31RuntimeSerializationCommandInfo
zSh:_UInt32_System_IConvertible_ToInt64_m2261037378
om:_SDL_UpperBlit
vGa:__Z35GetTextureDecodeValuesWithIntensity16TextureUsageMode17TextureColorSpace10ColorSpacef
adj:_Parser_ParseRepetitionBounds_m1246581246
xeh:_Array_InternalArray__ICollection_Remove_TisChar_t3634460470_m4143749387_gshared
HUb:__ZN15dense_hashtableINSt3__24pairIK9TextureIDiEES2_14GfxGenericHashIS2_EN14GfxDoubleCacheIS2_iS6_NS0_8equal_toIS2_EEN31GfxDoubleCacheConcurrencyPolicy11LocklessGetE42GfxDoubleCacheDefaultEmptyDeletedGeneratorIS2_EE9SelectKeyES9_13stl_allocatorIS4_L18MemLabelIdentifier24ELi16EEE14squash_deletedEv
esc:__Z13RegisterClassI14Texture2DArrayEvPKc
YRj:__ZN15dense_hashtableINSt3__24pairIK10KeyWrapperINS1_IPK12PropertyInfoP11Il2CppClassEEEjEES9_17ReflectionMapHashIS8_EN14dense_hash_mapIS9_jSD_NS9_14EqualsComparerINS0_8equal_toIS8_EEEENS0_9allocatorISB_EEE9SelectKeyESI_SK_ED2Ev
Nmg:_Encoding_GetBytes_m3823106599
nNg:_GregorianCalendar__ctor_m979779718
Yag:_SslClientStream__ctor_m2402546929
kFb:__ZN14SafeBinaryRead20OverrideRootTypeNameEPKc
Mng:_DictionaryNodeEnumerator_get_Entry_m2309234501
DBj:__ZNK10KeyWrapperIPK22Il2CppGenericParameterE14EqualsComparerINSt3__28equal_toIS2_EEEclERKS3_SA_
X9:__ZN14FileCacherRead16UnlockCacheBlockEj
YEh:_Enumerator_Dispose_m951715887_AdjustorThunk
w$e:_InternalEnumerator_1_System_Collections_IEnumerator_Reset_m521819017_AdjustorThunk
uH:__ZN26AnimatorOverrideController8TransferI24GenerateTypeTreeTransferEEvRT_
kXg:_IsolatedStorageException__ctor_m1022659452
c4:__ZN10InstancingL21OnGraphicsCapsChangedEv
qsb:__Z18Transfer_BlittableI17RemapPPtrTransferLb1E8Vector3fEvRK29SerializationCommandArgumentsR31RuntimeSerializationCommandInfo
q4d:__ZL61ClassInterfaceType_t4029497327_CustomAttributesCacheGeneratorP21CustomAttributesCache
Une:__ZL101SystemInfo_t3561985952_CustomAttributesCacheGenerator_SystemInfo_GetOperatingSystemFamily_m1440411909P21CustomAttributesCache
nOh:_WaitHandle_get_Handle_m3260446580
TFh:_Enumerator_VerifyState_m1745883925_AdjustorThunk
Gc:_emscripten_glUniform1f
X_g:_SortedList__ctor_m1261191695
iZj:__ZN6il2cpp2vm6Thread28GetThreadStaticDataForThreadEiP12Il2CppThread
X3h:_ReadOnlyCollection_1_System_Collections_IList_get_IsReadOnly_m165706550_gshared
jgi:__Z75RuntimeInvoker_Int32_t2950945753_DecimalU26_t3714369516_Int64U26_t200113976PFvvEPK10MethodInfoPvPS4_
Z_c:__Z20ParseImageParametersR11UTF16StringRiRN20TextRenderingPrivate16TextFormatChangeE
VFe:__ZL55CanvasScaler_t2767979955_CustomAttributesCacheGeneratorP21CustomAttributesCache
rWh:_Collection_1_RemoveItem_m2942561924_gshared
Lc:_emscripten_glUniform1i
eub:__Z18Transfer_BlittableI24GenerateTypeTreeTransferLb1EN4math12int3_storageEEvRK29SerializationCommandArgumentsR31RuntimeSerializationCommandInfo
NE:__ZN12_GLOBAL__N_119PreProcessAnimationER35AnimationPlayableEvaluationConstantR17AnimationPlayable
KWf:__Z14bankers_roundff
OQj:__ZN15dense_hashtableINSt3__24pairIK10KeyWrapperINS1_IPK10MethodInfoP11Il2CppClassEEEjEES9_17ReflectionMapHashIS8_EN14dense_hash_mapIS9_jSD_NS9_14EqualsComparerINS0_8equal_toIS8_EEEENS0_9allocatorISB_EEE9SelectKeyESI_SK_E12expand_arrayEjN21dense_hash_map_traits17integral_constantIbLb0EEE
uY:__ZN11UnityEngine15CloudWebService16SessionContainer20RestoreSessionHeaderERKN4core12basic_stringIcNS2_20StringStorageDefaultIcEEEES8_RNS0_13SessionHeaderE
rpd:__ZN22UnityWebRequestManager13BackendRetainEv
yAc:__ZN8Material28ApplyMaterialPropertyDrawersEv
jkk:__ZN6il2cpp2os12Cryptography23GetCryptographyProviderEv
iCj:__ZN24dense_hashtable_iteratorINSt3__24pairIK10KeyWrapperIPK22Il2CppGenericParameterEP11Il2CppClassEES6_N6il2cpp5utils11PointerHashIS4_EEN14dense_hash_mapIS6_S9_SE_NS6_14EqualsComparerINS0_8equal_toIS5_EEEENS0_9allocatorISA_EEE9SelectKeyESJ_SL_E30advance_past_empty_and_deletedEv
pu:__ZN11UnityEngine9Animation27CreateAvatarBindingConstantER9TransformPKN7mecanim9animation14AvatarConstantERNS3_6memory9AllocatorE
Jog:_MonoTODOAttribute__ctor_m1298576268
mUf:_MaskableGraphic_get_onCullStateChanged_m3331479633
oki:__Z151RuntimeInvoker_RuntimeObject_Int32_t2950945753_RuntimeObject_ObjectU5BU5DU26_t712384779_RuntimeObject_RuntimeObject_RuntimeObject_ObjectU26_t2146539884PFvvEPK10MethodInfoPvPS4_
Rhd:__ZN8JSONRead19TransferSTLStyleMapINSt3__23mapIN4core12basic_stringIcNS3_20StringStorageDefaultIcEEEEN11UnityEngine9Analytics16LimitEventConfigENS1_4lessIS7_EE13stl_allocatorINS1_4pairIKS7_SA_EEL18MemLabelIdentifier6ELi16EEEEEEvRT_17TransferMetaFlags
wDc:__ZN9BlobWriteC2ER13dynamic_arrayIhLj16EE24TransferInstructionFlags19BuildTargetPlatform
jAd:_CanvasUpdateRegistry__ctor_m2005397069
Zre:__ZL77Input_t1431474628_CustomAttributesCacheGenerator_Input_GetAxisRaw_m2316819917P21CustomAttributesCache
d8:__ZN14MessageHandler3GetEv
ALd:_MonoMethodInfo_GetCallingConvention_m3156036493
Jzf:_SupportedRenderingFeatures_FallbackMixedLightingModeByRef_m3859171964
_c:_emscripten_glAttachShader
c2:__Z40DebugStringToFilePostprocessedStacktraceRK21DebugStringToFileData
bId:_Image__cctor_m1927508576
XMh:_SendOrPostCallback_EndInvoke_m2485163446
_gc:__ZNSt3__26vectorIN4core12basic_stringIcNS1_20StringStorageDefaultIcEEEENS_9allocatorIS5_EEE6assignIPS5_EENS_9enable_ifIXaasr21__is_forward_iteratorIT_EE5valuesr16is_constructibleIS5_NS_15iterator_traitsISC_E9referenceEEE5valueEvE4typeESC_SC_
OUa:__ZThn32_N8Renderer15AddAsRenderNodeER15RenderNodeQueueRK20DeprecatedSourceData
dRb:__ZN13dynamic_arrayIN18GlslGpuProgramGLES9GLProgramELj0EE6insertEPS1_jRKS1_
P6e:_InternalEnumerator_1_get_Current_m3331252162_AdjustorThunk
oYd:__ZL76String_t_CustomAttributesCacheGenerator_String_Concat_m1809518182____values0P21CustomAttributesCache
Cob:__Z18Transfer_BlittableI14SafeBinaryReadLb0E11QuaternionfEvRK29SerializationCommandArgumentsR31RuntimeSerializationCommandInfo
_Bb:__Z18Transfer_BlittableI18StreamedBinaryReadILb0EELb1E12PropertyNameEvRK29SerializationCommandArgumentsR31RuntimeSerializationCommandInfo
M1:_tlsf_walk_heap
dki:__Z49RuntimeInvoker_Void_t1185182177_OpCode_t123070264PFvvEPK10MethodInfoPvPS4_
c$j:__ZNK15dense_hashtableINSt3__24pairIK10KeyWrapperIP11Il2CppClassES4_EES5_N6il2cpp8metadata16SZArrayClassHashEN14dense_hash_mapIS5_S4_SA_NS5_14EqualsComparerINS9_19SZArrayClassCompareEEENS0_9allocatorIS7_EEE9SelectKeyESE_SG_E10test_emptyERK24dense_hashtable_iteratorIS7_S5_SA_SI_SE_SG_E
ysi:__Z69RuntimeInvoker_Void_t1185182177_Int32_t2950945753_HitInfo_t3229609740PFvvEPK10MethodInfoPvPS4_
gue:__ZL59AnimatorClipInfo_t3156717155_CustomAttributesCacheGeneratorP21CustomAttributesCache
q5g:_Convert_ToUInt32_m3592050311
gb:invoke_vif
VKi:_Component_GetComponents_TisRuntimeObject_m2416546752_gshared
hb:invoke_vid
p3e:_InternalEnumerator_1__ctor_m2202456613_AdjustorThunk
Bqk:__ZNSt3__212basic_stringIcNS_11char_traitsIcEENS_9allocatorIcEEE6insertEjPKc
jb:invoke_vii
ZPe:_Random_Sample_m2289397474
Pua:__ZN12TLSAllocatorI14StackAllocatorE16ThreadInitializeEP13BaseAllocator
Dli:__Z82RuntimeInvoker_Boolean_t97287965_SByte_t1669577662_RuntimeObject_SByte_t1669577662PFvvEPK10MethodInfoPvPS4_
nhb:__ZN9GfxDevice32UpdateStereoViewProjectionMatrixE21MonoOrStereoscopicEye
M_:__Z29GetCloudWebServicesModuleSpecv
Ied:__Z41CanvasRenderer_CUSTOM_DisableRectClippingP12Il2CppObject
qMe:_MonoType_GetConstructorImpl_m441167626
Cka:__ZL45__ManagedRegistrationHelperFunction_CoroutinePv
$ld:__ZNSt3__26__treeINS_12__value_typeIN4core12basic_stringIcNS2_20StringStorageDefaultIcEEEE14CallbackArray3IRKS6_R8JSONReadbEEENS_19__map_value_compareIS6_SD_NS_4lessIS6_EELb1EEE13stl_allocatorISD_L18MemLabelIdentifier6ELi16EEE4findIS6_EENS_15__tree_iteratorISD_PNS_11__tree_nodeISD_PvEEiEERKT_
p$i:_Collection_1_IsFixedSize_m3709118201_gshared
Afb:__ZN25SingleBlockMemoryFileDataD0Ev
lK:__ZNSt3__26vectorI14ConstantStringNS_9allocatorIS1_EEE6assignINS_11__wrap_iterIPS1_EEEENS_9enable_ifIXaasr21__is_forward_iteratorIT_EE5valuesr16is_constructibleIS1_NS_15iterator_traitsISA_E9referenceEEE5valueEvE4typeESA_SA_
$3h:_ReadOnlyCollection_1_CopyTo_m586367390_gshared
pY:__ZN11UnityEngine15CloudWebService16SessionContainer21ConvertFromFolderTimeERKN4core12basic_stringIcNS2_20StringStorageDefaultIcEEEEPjPt
Upf:_CodeAccessPermission_Equals_m1555575992
mqb:__ZNSt3__26vectorI8GUIStyle13stl_allocatorIS1_L18MemLabelIdentifier1ELi16EEE7reserveEj
M_h:_ReadOnlyCollection_1_Contains_m3869904379_gshared
a0j:__ZN6il2cpp6icalls8mscorlib6System9Threading6Thread27GetSerializedCurrentCultureEP12Il2CppThread
vhh:__ZN21InterfaceFuncInvoker2IibbE6InvokeEjP11Il2CppClassP12Il2CppObjectbb
c8f:_Context_set_ReadSequenceNumber_m2154909392
F3i:_RijndaelTransform_SubByte_m3037693507
Ftc:__Z31CalculateHierarchyTransformType23TransformAccessReadOnly
FN:__ZN4FMOD8ChannelI11setPositionEjj
EAf:_Input_INTERNAL_CALL_GetTouch_m3481893561
Zfk:_GC_set_fl_marks
h4a:__ZNSt3__26vectorIN30RuntimeInitializeOnLoadManager15ClassMethodInfoE13stl_allocatorIS2_L18MemLabelIdentifier13ELi16EEE7reserveEj
qhb:__ZN9GfxDevice17SetStereoViewportE15StereoscopicEyeRK5RectTIiE
bga:__ZN17BaseObjectManager13StaticDestroyEPv
F0:__GLOBAL__sub_I_Runtime_Graphics_Mesh_1_cpp
Lxj:_CanvasRenderer_INTERNAL_CALL_GetColor_m597074473
C8e:_Comparer_1__cctor_m3891417387_gshared
CLh:_UTF7Decoder_GetChars_m3413809261
nT:__ZN12AudioManager14UpdateListenerERK8Vector3fS2_S2_S2_
wZd:__ZL70RuntimeArray_CustomAttributesCacheGenerator_Array_get_Rank_m3448755881P21CustomAttributesCache
QTe:_EnumBuilder_GetEvent_m4074915332
wYg:_FileSystemInfo_get_FullName_m3468398407
ILf:_Vector3_get_forward_m3100859705
HL:__ZN4FMOD6Reverb13setPropertiesEPK22FMOD_REVERB_PROPERTIES
h_j:__ZN15dense_hashtableINSt3__24pairIK10KeyWrapperIP11Il2CppClassES4_EES5_N6il2cpp8metadata16SZArrayClassHashEN14dense_hash_mapIS5_S4_SA_NS5_14EqualsComparerINS9_19SZArrayClassCompareEEENS0_9allocatorIS7_EEE9SelectKeyESE_SG_E5clearEv
r_b:__ZN9DepthPass13PrepareSubsetEjRK10RenderNodeifRK17ShaderReplaceData
djg:_String_IndexOf_m3406607758
Qfc:__ZN9ShaderLab20SerializedSubProgram16TextureParameter8TransferI14SafeBinaryReadEEvRT_
I1f:_ASN1__ctor_m3517592395
V3c:_otv_BaseCoord_validate
eBc:__Z35SetMeshComponentFromArrayFromScriptR4Mesh30InternalScriptingShaderChannel34InternalScriptingVertexChannelTypei17ScriptingArrayPtri
fGa:__ZN4PPtrI6ShaderE8TransferI19StreamedBinaryWriteILb0EEEEvRT_
$jh:_Array_InternalArray__ICollection_Add_TisCustomAttributeNamedArgument_t287865710_m4157175270_gshared
Gq:__ZN4core20StringStorageDefaultIcE6assignEPKcj
ETh:_UInt64_System_IConvertible_ToUInt64_m2135047981_AdjustorThunk
W0f:_BigInteger_ModPow_m3776562770
r7j:__ZN15dense_hashtableINSt3__24pairIK10KeyWrapperIP12Il2CppObjectEN6il2cpp2gc9CachedCCWEEES5_NS7_5utils11PointerHashIS3_EEN14dense_hash_mapIS5_S9_SD_NS5_14EqualsComparerINS0_8equal_toIS4_EEEENS0_9allocatorISA_EEE9SelectKeyESI_SK_E3endEv
amd:__ZNSt3__26__treeINS_12__value_typeIN4core12basic_stringIcNS2_20StringStorageDefaultIcEEEE14CallbackArray3IRKS6_R8JSONReadbEEENS_19__map_value_compareIS6_SD_NS_4lessIS6_EELb1EEE13stl_allocatorISD_L18MemLabelIdentifier6ELi16EEE25__emplace_unique_key_argsIS6_JNS_4pairIS6_SC_EEEEENSN_INS_15__tree_iteratorISD_PNS_11__tree_nodeISD_PvEEiEEbEERKT_DpOT0_
dag:_RecordProtocol_ProcessChangeCipherSpec_m15839975
IHg:_ArrayList_IndexOf_m305368842
TWi:_List_1_Add_m2996644200_gshared
r8b:__ZN6Camera6SetFarEf
hmf:_FormatterConverter_ToBoolean_m1680758923
nja:__ZN6prcoreL12RemapGenericI17TexFormatABGR888817TexFormatARGB8888EEvPKNS_9InnerInfoE
mva:__ZN11GameManager17MainThreadCleanupEv
P$g:_Stack_get_Count_m2258661097
DYh:_ReadOnlyCollection_1__ctor_m1345363288_gshared
ped:__Z50Register_UnityEngine_UISystemProfilerApi_EndSamplev
rif:_Dictionary_2_System_Collections_ICollection_get_SyncRoot_m2020472285_gshared
s5e:_InternalEnumerator_1_System_Collections_IEnumerator_Reset_m1775752715_AdjustorThunk
Zhe:__ZL91Application_t1852185770_CustomAttributesCacheGenerator_Application_get_isPlaying_m100394690P21CustomAttributesCache
rSd:_ConfigHandler_OnProcessingInstruction_m4212209262
HSi:_List_1_Reverse_m3290386475_gshared
inf:_SerializationCallbacks_GetSerializationCallbacks_m2939476649
omb:__ZNSt3__26vectorIN20GpuProgramParameters19AtomicCounterBufferENS_9allocatorIS2_EEE21__push_back_slow_pathIRKS2_EEvOT_
H6c:_UNITY_tt_slot_init
$Vb:__ZZ23InitPlayerLoopCallbacksvEN41PostLateUpdateUpdateResolutionRegistrator7ForwardEv
$cf:_KeyCollection_GetEnumerator_m1168803204_gshared
PDb:__Z25scripting_array_class_get17ScriptingClassPtrj
NOc:__ZL22Transfer_ManagedObjectI9JSONWriteLb1EEvRK29SerializationCommandArgumentsR31RuntimeSerializationCommandInfo
gS:__ZNK10SampleClip22GetTypeVirtualInternalEv
iib:__ZN9GfxDevice20DestroyRenderSurfaceER12ObjectHandleI17RenderSurface_TagP17RenderSurfaceBaseE
M$g:_Stack__ctor_m2602729586
Eei:__Z77RuntimeInvoker_Byte_t1134296376_RuntimeObject_Int32_t2950945753_RuntimeObjectPFvvEPK10MethodInfoPvPS4_
qbe:__ZL81Convert_t2465617642_CustomAttributesCacheGenerator_Convert_ToDateTime_m1031474510P21CustomAttributesCache
$Sg:_Int32_System_IConvertible_ToInt32_m265310525_AdjustorThunk
nDg:_Array_slow_swapper_m4116724811
j7b:__ZN12_GLOBAL__N_15qAsinEff
wxf:_Display__ctor_m3105658851
VLg:_HashValues_get_IsSynchronized_m3461082747
N_e:_InternalEnumerator_1_System_Collections_IEnumerator_get_Current_m2629988057_AdjustorThunk
Qua:__ZN12TLSAllocatorI14StackAllocatorE13ThreadCleanupEv
JZa:__ZN14SafeBinaryRead21TransferSTLStyleArrayI13dynamic_arrayI8Vector4fLj0EEEEvRT_17TransferMetaFlags
PN:__Z18GetAudioManagerPtrv
xUh:_ValueType_InternalEquals_m1384040357
h7f:_Context_get_HandshakeMessages_m3655705111
Ddk:__ZThn4_N6il2cpp2vm13ComObjectBase16MarshalInterfaceEP13Il2CppIStreamRK10Il2CppGuidPvjS7_j
b3g:_Convert_ToDouble_m996590115
Hdc:__Z27FindActiveTransformWithPathPKc
$0h:_ReadOnlyCollection_1_System_Collections_IList_Remove_m4169110229_gshared
dSh:_UInt16_ToString_m3020002356
oTf:_LayoutRebuilder_LayoutComplete_m68578143
pBj:_RequiredByNativeCodeAttribute__ctor_m119855101
Bxa:__ZN12BaseRendererD0Ev
mcc:__Z29StdTemplateConversionFunctionIbyEbPvR14SafeBinaryRead
B3i:_RijndaelManaged_GenerateKey_m1736287430
Cij:_GUIStyle_get_fixedWidth_m2576616348
mAe:__ZL90PointerEventData_t3807901092_CustomAttributesCacheGenerator_U3ClastPressU3Ek__BackingFieldP21CustomAttributesCache
l$g:_SortedList_Find_m3363512987
y0b:__ZNK6Camera7GetNearEv
yUe:_GenericTypeParameterBuilder_GetConstructorImpl_m863833310
mcf:_Enumerator_get_Current_m3687673883_AdjustorThunk
edd:__ZN2UI13CanvasManager8SortListEv
MQb:__ZN7ApiGLES11UnmapBufferEjN2gl12BufferTargetE
Udk:__ZN6il2cpp5utilsL24Utf32CharToSurrogatePairEjRA2_Ds
CRa:__Z25GetNextAllowedTextureSizeib13TextureFormat
GGb:__ZN20LocalFileSystemWebGL4CopyER13FileEntryDataS1_
v$:__ZN19CloudServiceHandler6RetainEv
_lk:__ZN6il2cpp2os9Semaphore4WaitEb
tZh:_ReadOnlyCollection_1_System_Collections_IList_IndexOf_m198887188_gshared
lwi:__Z71RuntimeInvoker_Vector2_t2156229523_Vector2_t2156229523_Rect_t2360479859PFvvEPK10MethodInfoPvPS4_
iJc:__Z36Event_CUSTOM_Internal_SetNativeEventPv
SKh:_UTF32Encoding_GetBytes_m3180303867
aXi:_List_1_CopyTo_m4034402519_gshared
d$h:_ReadOnlyCollection_1_System_Collections_IList_Clear_m2007013334_gshared
I8a:__Z34scripting_liveness_calculation_endPv
aGg:_Char_GetDataTablePointers_m754571594
iak:__ZN6il2cpp2os6ThreadC2Ev
nXe:_U3CGetEnumeratorU3Ec__Iterator0_System_Collections_Generic_IEnumeratorU3CTU3E_get_Current_m1566629109_gshared
Pvc:__ZN28ReflectionProbeAnchorManager7CleanupEv
k8g:_DateTimeOffset_get_UtcDateTime_m1021718282_AdjustorThunk
Mja:__ZN16memory_pool_implILi64EE15AutoPoolWrapper12UninitializeEPv
Rw:__ZN21AnimationClipPlayable22ProcessAnimationNoClipEPK35AnimationPlayableEvaluationConstantPK32AnimationPlayableEvaluationInputP33AnimationPlayableEvaluationOutput
hng:_HybridDictionary_get_Count_m1166314536
M6i:_TlsStream_Write_m1412844442
oQc:__Z18Transfer_BlittableI8JSONReadLb0E8Vector3fEvRK29SerializationCommandArgumentsR31RuntimeSerializationCommandInfo
VBf:_Matrix4x4__ctor_m53065545_AdjustorThunk
LYj:__ZN6il2cpp2vm6Thread6DetachEP12Il2CppThread
n7i:_GeneralNames_get_DNSNames_m3788548987
RIh:_List_1_AddCollection_m2026039026_gshared
z9c:_Render_Single_Pass
uvj:_Hacker_OnUserInput_m1095014035
Tdg:_SymmetricAlgorithm_get_IV_m1875559108
Ynf:_SerializationEntry_t648286436_marshal_pinvoke
Vka:__ZL56__ManagedRegistrationHelperFunction_TextureMixerPlayablePv
Du:__ZN7mecanim8skeleton30SkeletonBuildReverseIndexArrayEPiPKiPKNS0_8SkeletonES6_
FJc:__Z19GetGUIBlendMaterialv
VKe:_Math_Round_m3018379666
Ami:__Z41RuntimeInvoker_Boolean_t97287965_IntPtr_tPFvvEPK10MethodInfoPvPS4_
_ak:__ZN6il2cpp2os10ThreadImpl5SleepEjb
D0a:__ZN10VertexData10DeallocateEv
vZh:_ReadOnlyCollection_1_System_Collections_IList_Remove_m1965826685_gshared
Rmd:__ZN22BaseUnityConnectClient12IsNewSessionEv
wwe:__ZL82LayoutCache_t78309876_CustomAttributesCacheGenerator_LayoutCache__ctor_m3885940174P21CustomAttributesCache
jah:_Delegate_CreateDelegate_m1051651521
Ffh:_PlayableHandle_IsPlayableOfType_TisRuntimeObject_m503495943_AdjustorThunk
Vxk:_glBindSampler__wrapper
hVb:__ZNSt3__26vectorIN20ArchiveStorageHeader12StorageBlockE13stl_allocatorIS2_L18MemLabelIdentifier55ELi16EEE8__appendEj
Gf:_emscripten_set_mouseup_callback
NBf:_Mathf_Clamp_m3350697880
$jb:__ZN9GfxDevice27SetRandomWriteTargetTextureEi9TextureID
Euh:_Dictionary_2_System_Collections_Generic_ICollectionU3CSystem_Collections_Generic_KeyValuePairU3CTKeyU2CTValueU3EU3E_Contains_m3033743418_gshared
Qli:__Z165RuntimeInvoker_Void_t1185182177_UInt32U26_t3735378166_Int32_t2950945753_UInt32U26_t3735378166_Int32_t2950945753_Int32_t2950945753_Int32_t2950945753_Int32_t2950945753PFvvEPK10MethodInfoPvPS4_
HIh:_List_1_System_Collections_IList_Remove_m3140917266_gshared
slg:_Encoding_get_DecoderFallback_m1525880676
s6d:__ZL59ITrackingHandler_t1244553475_CustomAttributesCacheGeneratorP21CustomAttributesCache
vrf:_DSASignatureDeformatter__ctor_m2759753186
Gug:_X509ChainElementCollection_System_Collections_IEnumerable_GetEnumerator_m3829089536
fVh:_Collection_1_System_Collections_IEnumerable_GetEnumerator_m801406918_gshared
zGb:__ZNK18ScreenManagerWebGL8GetWidthEv
HJj:__ZN6il2cpp2vm13MetadataCache33GetFieldDefaultValueDataFromIndexEi
POh:_TimeSpan_get_TotalHours_m306507525_AdjustorThunk
dS:__ZN10SampleClipD2Ev
a9h:_InvokableCall_1_remove_Delegate_m790146436_gshared
Q7h:_Predicate_1_Invoke_m2389850270_gshared
Zak:__ZN6il2cpp2os10ThreadImpl13SetWaitObjectEPNS0_5posix15PosixWaitObjectE
a8a:__Z13GetGISettingsv
z0i:_Collection_1_RemoveAt_m1813368096_gshared
f$:__ZN11UnityEngine15CloudWebService20WebRequestRestClientC2Ev
g2c:_cff_cmap_unicode_init
Jdh:_Array_InternalArray__ICollection_Contains_TisRuntimeObject_m4067783231_gshared
ika:__ZL60__ManagedRegistrationHelperFunction_AssemblyIsEditorAssemblyPv
_9:__ZN14FileCacherRead13GetFileLengthEv
oai:_UnityAction_1_EndInvoke_m542551745_gshared
UZi:_Collection_1_IsValidItem_m3080586124_gshared
BDd:_DropdownItem_set_text_m3702712387
LAd:_ClipperRegistry_Register_m2407166513
bpk:_readlink
sSj:__ZN15dense_hashtableINSt3__24pairIK10KeyWrapperINS1_IPK9EventInfoP11Il2CppClassEEEjEES9_17ReflectionMapHashIS8_EN14dense_hash_mapIS9_jSD_NS9_14EqualsComparerINS0_8equal_toIS8_EEEENS0_9allocatorISB_EEE9SelectKeyESI_SK_E12resize_deltaEjj
vLd:_MonoCMethod_Invoke_m2700167622
B_g:_KeyMarker__cctor_m2590194914
klk:__ZN6il2cpp2os13SemaphoreImplC2Eii
V_a:__ZNK6Sprite9GetBoundsE8Vector2fbb
Qza:__ZNK19RenderEventsContext21CleanupCommandBuffersEv
Swj:_TextGenerator_PopulateWithErrors_m1222498386
f0h:_ReadOnlyCollection_1_System_Collections_Generic_ICollectionU3CTU3E_Clear_m2102011098_gshared
lOb:__ZN11ContextGLES6CreateEi
Axj:_WillRenderCanvases_BeginInvoke_m1804779886
Ksi:__Z52RuntimeInvoker_Boolean_t97287965_Vector3_t3722313464PFvvEPK10MethodInfoPvPS4_
ZPi:_List_1_set_Capacity_m3382070520_gshared
Xxi:__Z68RuntimeInvoker_Boolean_t97287965_RuntimeObject_ObjectU26_t2146539884PFvvEPK10MethodInfoPvPS4_
ORf:_U3CMouseDragOutsideRectU3Ec__Iterator1_Dispose_m267465418
M9g:_Decimal_CompareTo_m3502307243_AdjustorThunk
PCb:__Z19TransferField_ArrayI18StreamedBinaryReadILb0EE27Converter_SimpleNativeClassI17AnimationCurveTplIfEEEvRK23StaticTransferFieldInfoR31RuntimeSerializationCommandInfoRT0_
iva:__ZN14StackAllocator16FrameMaintenanceEb
fUa:__Z18ReadStringFromFilePN4core17string_with_labelILi1EEERKNS_12basic_stringIcNS_20StringStorageDefaultIcEEEE
hPc:__ZN9JSONWrite8TransferI13dynamic_arrayIjLj0EEEEvRT_PKc17TransferMetaFlags
Iaa:__ZNK10GameObject20QueryComponentByTypeEPKN5Unity4TypeE
d9g:_Decimal_System_IConvertible_ToInt32_m1488426794_AdjustorThunk
wLe:_MonoCustomAttrs_IsUserCattrProvider_m2878058089
FDe:__ZL71InputField_t3762917431_CustomAttributesCacheGenerator_m_HideMobileInputP21CustomAttributesCache
lQa:__ZN11TextureData5ResetEv
Nnc:__Z53Register_UnityEngine_GameObject_get_activeInHierarchyv
oeg:_ToBase64Transform_InternalTransformFinalBlock_m360524956
yAg:_ActivationContext_Dispose_m2038725770
gsb:__Z35Transfer_Blittable_FixedBufferFieldI17RemapPPtrTransferiEvRK29SerializationCommandArgumentsR31RuntimeSerializationCommandInfo
O5:__ZL30InitializeCoreScriptingClassesv
aGa:__ZN15SerializeTraitsI12fixed_bitsetILi28EjEE8TransferI18StreamedBinaryReadILb0EEEEvRS1_RT_
Dg:_glBlitFramebuffer
heb:__ZN17ArchiveFileSystem5TouchER13FileEntryData
gdf:_KeyCollection_System_Collections_Generic_IEnumerableU3CTKeyU3E_GetEnumerator_m818204647_gshared
bsb:__Z35Transfer_Blittable_SingleValueFieldI14SafeBinaryReadhEvRT_R17GeneralMonoObjectRK23StaticTransferFieldInfo
bPh:_TimeSpan_Duration_m2963553230
Dkc:__ZN12CachedWriter15CompleteWritingEv
tQa:__ZNK12CubemapArray22GetTypeVirtualInternalEv
Kn:FUNCTION_TABLE_vif
Ln:FUNCTION_TABLE_vid
sKi:_Dictionary_2_Do_CopyTo_TisInt32_t2950945753_TisRuntimeObject_m213146570_gshared
Nn:FUNCTION_TABLE_vii
T8a:__Z40scripting_liveness_calculation_from_root18ScriptingObjectPtrPv
CCe:__ZL67OptionDataList_t1438173104_CustomAttributesCacheGenerator_m_OptionsP21CustomAttributesCache
G5d:__ZL65IContributeDynamicSink_t2255997386_CustomAttributesCacheGeneratorP21CustomAttributesCache
NKa:__ZN7Texture23VirtualRedirectTransferER24GenerateTypeTreeTransfer
rZc:_UNITY_FT_Set_Transform
axc:__ZNK32RendererMaterialAnimationBinding12SetPPtrValueERKN11UnityEngine9Animation10BoundCurveEi
d6j:__ZN6il2cpp8metadata15GenericMetadata20RegisterGenericClassEP18Il2CppGenericClass
yxk:_glDeleteFramebuffers__wrapper
RYi:_Collection_1_System_Collections_IList_get_IsFixedSize_m2620019318_gshared
mii:__Z220RuntimeInvoker_Boolean_t97287965_RuntimeObject_Int32U26_t1369213839_Int32_t2950945753_Int32_t2950945753_Int32_t2950945753_RuntimeObject_SByte_t1669577662_Int32_t2950945753_ContractionU26_t961830454_ContextU26_t3937453398PFvvEPK10MethodInfoPvPS4_
ene:__ZL73Rect_t2360479859_CustomAttributesCacheGenerator_Rect_get_zero_m4034156123P21CustomAttributesCache
cFf:_Playable_Equals_m328753404_AdjustorThunk
tqh:_BitConverterLE_GetUIntBytes_m949779219
q0c:_cff_blend_build_vector
Iqg:_WebHeaderCollection_ToString_m1263025316
erc:__Z26Input_CUSTOM_GetButtonDownP12Il2CppString
Iki:__Z91RuntimeInvoker_Void_t1185182177_RuntimeObject_RuntimeObject_RuntimeObject_Int32_t2950945753PFvvEPK10MethodInfoPvPS4_
DNd:_GetterAdapter_Invoke_m3767885970
_Qi:_List_1__ctor_m747758800_gshared
$9i:_X509Extension_get_Oid_m4107042796
CVe:_MethodBuilder_get_ReflectedType_m3038768129
Vkg:_String_CreateString_m2818852475
EEh:_Enumerator_get_Current_m335492761_AdjustorThunk
$td:_BaseRaycaster_get_renderOrderPriority_m1110184610
hyj:_CanvasRenderer_get_hasMoved_m2236392341
UDf:_MessageEvent__ctor_m1231650089
Tab:__ZNK15Lz4Decompressor16DecompressMemoryEPKvPjPvS2_
dLe:_MemberAccessException__ctor_m3713703094
nza:__Z11IsCoroutine18ScriptingMethodPtrRK22CommonScriptingClasses
k2d:__ZL117GenericTypeParameterBuilder_t1988827940_CustomAttributesCacheGenerator_GenericTypeParameterBuilder_Equals_m3260957994P21CustomAttributesCache
okc:__ZN4core8hash_mapINS_12basic_stringIcNS_20StringStorageDefaultIcEEEE10vector_setI4PPtrI11SpriteAtlasENSt3__24lessIS8_EE13stl_allocatorIS8_L18MemLabelIdentifier81ELi16EEENS_4hashIS4_EENS9_8equal_toIS4_EEEixERKS4_
Qqj:__ZL24UnresolvedVirtualCall_47P12Il2CppObject20DateTime_t3738529785PK10MethodInfo
yNa:__Z35UnityPropertySheet_MakeSortedColorsRKNSt3__23mapIN9ShaderLab16FastPropertyNameE10ColorRGBAfNS_4lessIS2_EENS_9allocatorINS_4pairIKS2_S3_EEEEEER10vector_mapIS2_S3_S5_NS6_INS7_IS2_S3_EEEEE
An:FUNCTION_TABLE_iiiiiiffiiiiiiiiiffffiii
x4c:_UNITY_tt_face_load_os2
Ilh:_Array_InternalArray__ICollection_CopyTo_TisUICharInfo_t75501106_m4268526610_gshared
wrb:__Z29Transfer_Blittable_ArrayFieldI14SafeBinaryRead8Vector4fEvRT_R9ArrayInfoRK23StaticTransferFieldInfo
T8j:__GLOBAL__sub_I_BoehmGC_cpp
RG:__ZNK26AnimatorOverrideController22GetTypeVirtualInternalEv
iRe:_Default_check_arguments_m3882727959
Fxg:_PKCS12_Compare_m2975811353
YLh:_UTF8Encoding_GetMaxCharCount_m3762459613
pSe:_ModuleBuilder_RegisterToken_m4166846047
SVb:__ZZ23InitPlayerLoopCallbacksvEN51PostLateUpdateUpdateCustomRenderTexturesRegistrator7ForwardEv
xVf:_RawImage_OnPopulateMesh_m1115858855
Mji:__Z74RuntimeInvoker_MonoFileType_t221779374_IntPtr_t_MonoIOErrorU26_t1548853198PFvvEPK10MethodInfoPvPS4_
iKj:__ZN6il2cpp2vm13MetadataCache25GetStringLiteralFromIndexEi
ZAg:_Hashtable_ToPrime_m33531354
ox:__ZN7mecanim9animation12EvaluateClipEPKNS0_4ClipEPKNS0_9ClipInputEPNS0_10ClipMemoryEPNS0_10ClipOutputE
NVh:_Collection_1_IsSynchronized_m1117613618_gshared
uV:__ZN11AudioModule6UpdateEv
Tcf:_KeyCollection_System_Collections_Generic_ICollectionU3CTKeyU3E_Remove_m2555909644_gshared
Svj:_Keyboard_WarnIfTerminalNotConneced_m1063217717
e9j:__ZN15dense_hashtableINSt3__24pairIK10KeyWrapperIPcES3_EES4_N6il2cpp5utils15PassThroughHashIS3_EEN14dense_hash_mapIS4_S3_SA_NS4_14EqualsComparerINS0_8equal_toIS3_EEEENS0_9allocatorIS6_EEE9SelectKeyESF_SH_E5clearEv
iRh:_TypeInitializationException__ctor_m3546444694
Wpc:__ZNK9Transform16GetLocalRotationEv
Wbf:_Enumerator_System_Collections_IEnumerator_Reset_m4278714428_gshared
sWa:__ZN4PPtrI11LightProbesE8TransferI18StreamedBinaryReadILb0EEEEvRT_
h_:__ZN11UnityEngine15CloudWebService23WebRequestUploadHandler17ConsumeUploadDataEj
PLj:__ZNSt3__214__split_bufferI6pollfdRNS_9allocatorIS1_EEEC2EjjS4_
$Rd:_CrossAppDomainData_get_DomainID_m3516796532
Fwi:__Z68RuntimeInvoker_Void_t1185182177_Single_t1397266774_SByte_t1669577662PFvvEPK10MethodInfoPvPS4_
MYg:_MemoryStream_set_Position_m3169779190
l7b:__ZN13RenderManager29SetCurrentCameraAndStackStateEP6CameraP25CameraStackRenderingState
Fvd:_ExecuteEvents_get_scrollHandler_m2659345019
Jva:__ZNSt3__26__treeINS_12__value_typeIjN4core12basic_stringIcNS2_20StringStorageDefaultIcEEEEEENS_19__map_value_compareIjS7_NS_4lessIjEELb1EEE13stl_allocatorIS7_L18MemLabelIdentifier7ELi16EEE7destroyEPNS_11__tree_nodeIS7_PvEE
X_j:__ZN15dense_hashtableINSt3__24pairIK10KeyWrapperINS1_IP11Il2CppClassjEEES4_EES6_N6il2cpp8metadata14ArrayClassHashEN14dense_hash_mapIS6_S4_SB_NS6_14EqualsComparerINSA_17ArrayClassCompareEEENS0_9allocatorIS8_EEE9SelectKeyESF_SH_E12resize_deltaEjj
Sh:_JS_WebRequest_Release
coe:__ZL85Time_t2420636075_CustomAttributesCacheGenerator_Time_t2420636075____time_PropertyInfoP21CustomAttributesCache
RY:__ZN11UnityEngine15CloudWebService14DataErrorEventD0Ev
h2j:__ZN6il2cpp6icalls8mscorlib6System4Type20internal_from_handleEi
Oge:__ZL72RequiredByNativeCodeAttribute_t4130846357_CustomAttributesCacheGeneratorP21CustomAttributesCache
WSd:_Context__ctor_m254302079
Ppa:__ZN9Scripting11UnityEngine12Experimental9Playables20TextureMixerPlayable9InitProxyEv
Msh:_KeyGeneratedEventHandler_EndInvoke_m3057317531
nTa:__ZN19ShaderPropertySheet16SetArrayPropertyEN9ShaderLab16FastPropertyNameENS_12PropertyTypeEPKvj
rXf:_Selectable_FindSelectable_m2348614027
amg:_DecoderReplacementFallbackBuffer_GetNextChar_m2858228391
gCd:_FloatTween_get_duration_m1227071020
Z6j:__ZN15dense_hashtableINSt3__24pairIK10KeyWrapperIP12Il2CppObjectEN6il2cpp2gc9CachedCCWEEES5_NS7_5utils11PointerHashIS3_EEN14dense_hash_mapIS5_S9_SD_NS5_14EqualsComparerINS0_8equal_toIS4_EEEENS0_9allocatorISA_EEE9SelectKeyESI_SK_E16reset_thresholdsEv
iEd:_DropdownItem_OnPointerEnter_m1492957598
Ubd:__ZN2UI11CanvasGroup23VirtualRedirectTransferER19StreamedBinaryWriteILb0EE
TNd:_ParameterInfo_get_ParameterType_m4197803362
jji:__Z91RuntimeInvoker_Void_t1185182177_Int32U26_t1369213839_Int32U26_t1369213839_Int32_t2950945753PFvvEPK10MethodInfoPvPS4_
Tqa:__ZN9Scripting11UnityEngine9BoundsInt9InitProxyEv
gBj:_StaticAccessorAttribute_set_Type_m2333258271
E4d:__ZL91SafeHandle_t3273388951_CustomAttributesCacheGenerator_SafeHandle_DangerousAddRef_m614714386P21CustomAttributesCache
gld:__ZN11UnityEngine15PlatformWrapper16GetApplicationIdEv
O6c:_UNITY_TT_Get_VMetrics
pug:_X509Chain__cctor_m993507223
Mri:__Z69RuntimeInvoker_Color_t2555686324_Color_t2555686324_Single_t1397266774PFvvEPK10MethodInfoPvPS4_
kzh:_EqualityComparer_1__ctor_m2283513024_gshared
XIg:_SimpleEnumerator__cctor_m2844299657
DKe:_LocalDataStoreSlot__ctor_m4104083971
lIi:_Array_qsort_TisVector3_t3722313464_m4117329442_gshared
t1h:_ReadOnlyCollection_1_System_Collections_Generic_IListU3CTU3E_RemoveAt_m3849058645_gshared
voj:_AudioSource_ReadExtensionName_m725112169
n9i:_X509CertificateEnumerator_System_Collections_IEnumerator_Reset_m2039524926
_oi:__Z128RuntimeInvoker_Void_t1185182177_RuntimeObject_BooleanU26_t4125257963_SByte_t1669577662_Int32U26_t1369213839_Int32U26_t1369213839PFvvEPK10MethodInfoPvPS4_
kLa:__ZN7Texture21GetMasterTextureLimitEv
wgf:_Enumerator_Dispose_m3503748991_AdjustorThunk
S1a:__ZN13dynamic_arrayI9InputAxisLj0EE18resize_initializedEj12ResizePolicy
d9b:__Z12CanAddScriptR10GameObject17ScriptingClassPtrPS1_S2_
rVj:__ZN6il2cpp2vm10Reflection12HasAttributeEP12Il2CppObjectP11Il2CppClass
Yui:__Z103RuntimeInvoker_Boolean_t97287965_RuntimeObject_Vector2_t2156229523_RuntimeObject_Vector3U26_t3464235976PFvvEPK10MethodInfoPvPS4_
z4h:_Comparison_1_BeginInvoke_m3263247262_gshared
I4:__ZN9ShaderLabL25StaticInitializeShaderLabEPv
U:Math_max
oGe:__ZL64HorizontalLayoutGroup_t2586782146_CustomAttributesCacheGeneratorP21CustomAttributesCache
Hrj:__ZL24UnresolvedVirtualCall_92P12Il2CppObjectPK10MethodInfo
jXj:_il2cpp_class_get_methods
BTc:__GLOBAL__sub_I_artifacts_WebGL_codegenerator_0_cpp_3495
hub:__Z18Transfer_BlittableI24GenerateTypeTreeTransferLb0EN4math12int2_storageEEvRK29SerializationCommandArgumentsR31RuntimeSerializationCommandInfo
Pah:_StackTrace_get_trace_m1194606084
cig:_Single_CompareTo_m2785801815_AdjustorThunk
qak:__ZN6il2cpp2os6Thread16GetCurrentThreadEv
ymd:__ZN11UnityEngine7Connect20RemoteConfigSettings10UnregisterEv
CGi:_Array_InternalArray__Insert_TisUILineInfo_t4195266810_m3191124053_gshared
dlc:__ZN10GameObject13ComponentPair15SetComponentPtrEPN5Unity9ComponentE
Rvk:_glBlitFramebuffer__wrapper
$Be:__ZL75U3COnFinishSubmitU3Ec__Iterator0_t3413438900_CustomAttributesCacheGeneratorP21CustomAttributesCache
Pva:__ZN10TagManager8TransferI19StreamedBinaryWriteILb0EEEEvRT_
n8a:__ZN11PreloadData23VirtualRedirectTransferER18StreamedBinaryReadILb0EE
lYa:__ZN13sorted_vectorI4PPtrI11SpriteAtlasENSt3__24lessIS2_EE13stl_allocatorIS2_L18MemLabelIdentifier1ELi16EEE21sort_clear_duplicatesEv
iae:__ZL58ManualResetEvent_t451242010_CustomAttributesCacheGeneratorP21CustomAttributesCache
OCe:__ZL60FontData_t746620069_CustomAttributesCacheGenerator_m_MinSizeP21CustomAttributesCache
ora:__ZN9Scripting11UnityEngine24AssemblyIsEditorAssembly12CleanupProxyEv
iGg:_Char_System_IConvertible_ToDateTime_m3564102661
yPj:__ZN15dense_hashtableINSt3__24pairIK10KeyWrapperINS1_IPK9FieldInfoP11Il2CppClassEEEjEES9_17ReflectionMapHashIS8_EN14dense_hash_mapIS9_jSD_NS9_14EqualsComparerINS0_8equal_toIS8_EEEENS0_9allocatorISB_EEE9SelectKeyESI_SK_E16reset_thresholdsEv
MK:__ZN13RuntimeStaticINSt3__26vectorI12WebCamDeviceNS0_9allocatorIS2_EEEELb0EE13StaticDestroyEPv
KWa:__ZN6Sprite17MainThreadCleanupEv
_vk:_glBlendFuncSeparate__wrapper
zse:__ZL116PlayerConnectionInternal_t3892293164_CustomAttributesCacheGenerator_PlayerConnectionInternal_SendMessage_m2378413408P21CustomAttributesCache
FP:__ZN10AudioMixer14UpdateMuteSoloEv
S8:__Z17GetMonoManagerPtrv
RAa:__ZN12BaseRenderer25FlattenSharedMaterialDataILb0EEEbRKS_R22PerThreadPageAllocatorR10RenderNode
fxa:__ZN9Transform35SetLocalPositionWithoutNotificationERKN4math7_float3Ey
uxe:__ZL87GUIUtility_t1868551600_CustomAttributesCacheGenerator_U3CguiIsExitingU3Ek__BackingFieldP21CustomAttributesCache
ske:__ZL101MonoBehaviour_t3962482529_CustomAttributesCacheGenerator_MonoBehaviour_StartCoroutine_Auto_m594129169P21CustomAttributesCache
Ti:_JS_Eval_ClearTimeout
Yde:__ZL64ThreadStaticAttribute_t3840787420_CustomAttributesCacheGeneratorP21CustomAttributesCache
Kmb:__ZN7ApiGLES16SetPatchVerticesEi
rI:__ZZN26AnimatorOverrideController15InitializeClassEvEN30FunctorImpl_86kDidModifyMotion4CallEPviR11MessageData
Lej:_CharacterClass_Compile_m3296067317
U9j:__ZN6il2cpp2gc16GarbageCollector16InvokeFinalizersEv
nzj:_OnOverrideControllerDirtyCallback_EndInvoke_m2432606376
xFg:_Byte_System_IConvertible_ToInt64_m285584218_AdjustorThunk
yHf:_Rect_get_size_m477575021_AdjustorThunk
ZBj:__ZN6il2cpp2vm5Class20FromGenericParameterEPK22Il2CppGenericParameter
S$:__ZN19CloudServiceHandler11FlushEventsEv
wfa:__ZN15GlobalCallbacksC2Ev
VVd:_MethodCall_System_Runtime_Remoting_Messaging_IInternalMessage_set_Uri_m1919576807
bkh:_Array_InternalArray__ICollection_Add_TisLabelData_t360167391_m1648183135_gshared
x9e:_Comparer_1_System_Collections_IComparer_Compare_m2016223770_gshared
U_h:_ReadOnlyCollection_1_System_Collections_Generic_ICollectionU3CTU3E_Add_m1738170497_gshared
vHe:__ZL57BaseMeshEffect_t2440176439_CustomAttributesCacheGeneratorP21CustomAttributesCache
Xni:__Z74RuntimeInvoker_DateTime_t3738529785_DateTime_t3738529785_Int32_t2950945753PFvvEPK10MethodInfoPvPS4_
d$c:_UNITY_FT_New_Memory_Face
Q0i:_Collection_1_System_Collections_IList_IndexOf_m3271188411_gshared
wXd:__ZL52IComparable_t36111218_CustomAttributesCacheGeneratorP21CustomAttributesCache
xYg:_MonoIO_GetFileStat_m678141354
O2c:_UNITY_FT_Load_Sfnt_Table
NCd:__Z15CastclassSealedP12Il2CppObjectP11Il2CppClass
upc:__ZN15ApplicationInfo14GetSandboxTypeEv
isb:__Z18Transfer_BlittableI17RemapPPtrTransferLb1EhEvRK29SerializationCommandArgumentsR31RuntimeSerializationCommandInfo
B9g:_Decimal_IsZero_m4250358244_AdjustorThunk
nKe:_UnmanagedMemoryStream_get_CanRead_m3770815400
T7b:__ZN16ReflectionProbes40UpdateRealtimeReflectionProbesTimeslicedEv
_Wa:__ZN14SafeBinaryRead21TransferSTLStyleArrayI13dynamic_arrayI8Vector2fLj0EEEEvRT_17TransferMetaFlags
doj:__ZN23InterfaceActionInvoker1IP24SingleU5BU5D_t1444911251E6InvokeEjP11Il2CppClassP12Il2CppObjectS1_
P4j:__ZNSt3__26__treeINS_12__value_typeIP24Il2CppReflectionAssemblyPvEENS_19__map_value_compareIS3_S5_NS_4lessIS3_EELb1EEENS_9allocatorIS5_EEE16__insert_node_atEPNS_16__tree_node_baseIS4_EERSF_SF_
O0g:_Decimal_u64_m3374804932
BRh:_UInt16_System_IConvertible_ToInt32_m1950778303_AdjustorThunk
S3a:__ZNK30RuntimeInitializeOnLoadManager22GetTypeVirtualInternalEv
eHj:__ZN15dense_hashtableINSt3__24pairIK10KeyWrapperIN6il2cpp5utils13dynamic_arrayIPK10Il2CppTypeLj4EEEEPFvvEEESA_NS3_8metadata19Il2CppSignatureHashEN14dense_hash_mapISA_SD_SG_NSA_14EqualsComparerINSF_22Il2CppSignatureCompareEEENS0_9allocatorISE_EEE9SelectKeyESK_SM_E12resize_deltaEjj
wwc:__ZN16ReflectionProbes15InitializeClassEv
$Y:__ZN13dynamic_arrayIN11UnityEngine15CloudWebService14DataErrorEvent15FileErrorDetailELj0EE18resize_initializedEj12ResizePolicy
rZd:__ZL71Enum_t4135868527_CustomAttributesCacheGenerator_Enum_Format_m2588135982P21CustomAttributesCache
wIj:__ZNK15dense_hashtableINSt3__24pairIK10KeyWrapperIPK11Il2CppClassEPKcEES6_N6il2cpp5utils11PointerHashIS3_EEN14dense_hash_mapIS6_S9_SE_NS6_14EqualsComparerINS0_8equal_toIS5_EEEENS0_9allocatorISA_EEE9SelectKeyESJ_SL_E12test_deletedEj
a$h:_ReadOnlyCollection_1_System_Collections_ICollection_CopyTo_m2527663815_gshared
K3j:__ZN6il2cpp2vm5Image9GetCorlibEv
uNf:_Vector3_get_left_m2428419009
T7j:__ZN6il2cpp2vm11MethodStack17GetStackFramesRawEv
L3d:__ZL50Pointer_t2088917139_CustomAttributesCacheGeneratorP21CustomAttributesCache
Ogk:_GC_reclaim_uninit
g7a:__ZN16LightmapSettings11UnshareDataEv
svd:_ExecuteEvents_Execute_m113814934
Sba:__ZN13RuntimeStaticINSt3__23mapIN4core12basic_stringIcNS2_20StringStorageDefaultIcEEEES6_NS0_4lessIS6_EE13stl_allocatorINS0_4pairIKS6_S6_EEL18MemLabelIdentifier13ELi16EEEELb0EE13StaticDestroyEPv
Fwf:_Coroutine_ReleaseCoroutine_m947702340
D9e:_Enumerator_System_Collections_IEnumerator_get_Current_m2979767597_AdjustorThunk
Y9h:__ZN30GenericInterfaceActionInvoker1I17Color_t2555686324E6InvokeEPK10MethodInfoP12Il2CppObjectS0_
Tsf:_MD5CryptoServiceProvider_ProcessFinalBlock_m2241588515
BYf:_ScrollRect_GetBounds_m449872505
Rj:_glIsVertexArray
Lzg:_SmallXmlParser_Read_m3485223434
oSg:_Int16_Parse_m2276856944
D2e:_InternalEnumerator_1__ctor_m3443175323_AdjustorThunk
Hbd:__ZL42__ManagedRegistrationHelperFunction_CanvasPv
cta:__ZN5Unity9Component8TransferI18StreamedBinaryReadILb0EEEEvRT_
o3d:__ZL131CustomAttributeData_t1084486650_CustomAttributesCacheGenerator_CustomAttributeData_t1084486650____ConstructorArguments_PropertyInfoP21CustomAttributesCache
ea:invoke_fff
Sok:_mbsinit
Juk:b14
Dwg:_RepeatContext_get_Expression_m255006542
aEc:__Z34RenderTexture_Get_Custom_PropWidthP12Il2CppObject
ycd:__ZN2UI6Canvas17MainThreadCleanupEv
gja:__ZN6prcoreL12RemapGenericI17TexFormatARGB155517TexFormatRGBA8888EEvPKNS_9InnerInfoE
SDj:__ZN13Il2CppHashMapIPK19Il2CppGenericMethodPK26Il2CppGenericMethodIndicesN6il2cpp8metadata23Il2CppGenericMethodHashENS7_26Il2CppGenericMethodCompareENSt3__29allocatorINSA_4pairIK10KeyWrapperIS2_ES5_EEEEEC2EjRKS8_RKS9_
xJd:_TypeBuilder_HasElementTypeImpl_m1871001960
hhg:_SecurityFrame__ctor_m2140076703_AdjustorThunk
LIi:_Array_Resize_TisVector2_t2156229523_m3382835435_gshared
Oxh:_DefaultComparer_Equals_m2458578172_gshared
cnb:__ZN7ApiGLES13CreateProgramEv
aIa:__ZN11HaloManager7AddHaloEv
caf:_Enumerator_VerifyState_m4003066746_gshared
ORa:__ZN4crnd12crn_unpackerD2Ev
aL:__ZN9Scripting11UnityEngine12Experimental5Audio19AudioSampleProvider9InitProxyEv
fk:_emscripten_glTexImage2D
r8e:_Comparer_1_System_Collections_IComparer_Compare_m2537217645_gshared
QCa:__ZN16MeshVertexFormat20GetVertexDeclarationER9GfxDevice16VertexInputMasksPKS_
D5:__ZN18ScriptingArguments9AddStringEPKc
ghk:_setup_header
aHg:_Char_ToString_m3588025615
Sfh:_SetPropertyUtility_SetStruct_TisAspectMode_t3417192999_m1565063249_gshared
y_i:_Collection_1_get_Count_m2853642267_gshared
n$h:_ReadOnlyCollection_1_System_Collections_IList_get_IsReadOnly_m375760151_gshared
x6d:__ZL53IEnvoyInfo_t2180778907_CustomAttributesCacheGeneratorP21CustomAttributesCache
Sqh:_CryptoConvert_ToCapiKeyBlob_m3371450375
fPa:__ZL23stbir__resize_arbitraryPvPKviiiS_iiiffffPfiij14stbir_datatype12stbir_filterS4_10stbir_edgeS5_16stbir_colorspace
Bub:__Z18Transfer_BlittableI24GenerateTypeTreeTransferLb1E8Vector4fEvRK29SerializationCommandArgumentsR31RuntimeSerializationCommandInfo
Nuk:b18
qk:_pthread_detach
kLj:__ZN6il2cpp2vm19SocketPollingThread7RunLoopEv
QEd:_FontUpdateTracker_UntrackText_m1981515690
gSi:_List_1_System_Collections_ICollection_get_SyncRoot_m1937857346_gshared
HHe:__ZL64AnalyticsEventTracker_t2285229262_CustomAttributesCacheGeneratorP21CustomAttributesCache
QHc:__ZN13ProduceHelperI18CrashReportManagerLb0EE7ProduceE10MemLabelId18ObjectCreationMode
Jzc:__ZN15DirectorManager20ScheduleGraphDestroyERK14HPlayableGraph
EDb:__ZNSt3__213__stable_sortIRN10vector_mapI17ScriptingClassPtrPKN5Unity4TypeENS_4lessIS2_EENS_9allocatorINS_4pairIS2_S6_EEEEE13value_compareENS_11__wrap_iterIPSB_EEEEvT0_SJ_T_NS_15iterator_traitsISJ_E15difference_typeEPNSM_10value_typeEi
znh:_SimpleCollator_FillSurrogateSortKeyRaw_m725998232
kTi:_List_1_AddEnumerable_m1284696147_gshared
Vpg:_IPAddress_Equals_m1823478787
ITd:_Context_CreateNewContext_m3053563976
pne:__ZL83RectOffset_t1369453676_CustomAttributesCacheGenerator_RectOffset_set_top_m713260669P21CustomAttributesCache
zhc:__ZN9ShaderLab25SerializedTextureProperty8TransferI24GenerateTypeTreeTransferEEvRT_
iKi:_Array_swap_TisVector2_t2156229523_TisVector2_t2156229523_m345092822_gshared
RZi:_Collection_1_get_Item_m1773274637_gshared
jTj:__ZN6il2cpp2gc19AppendOnlyGCHashMapINSt3__24pairIPK14Il2CppAssemblyP11Il2CppClassEEP24Il2CppReflectionAssembly17ReflectionMapHashIS9_ENS2_8equal_toIS9_EEEC2Ev
e5c:_tt_cmap14_char_next
nxb:__Z18Transfer_BlittableI19StreamedBinaryWriteILb0EELb0EdEvRK29SerializationCommandArgumentsR31RuntimeSerializationCommandInfo
v0:__GLOBAL__sub_I_Runtime_Camera_RenderLoops_2_cpp
lua:__ZN11NamedObject8TransferI18StreamedBinaryReadILb0EEEEvRT_
tTb:__ZNK17GPUSkinPoseBuffer12GetBoneCountEv
jyf:_InvokableCall_remove_Delegate_m1376110510
xLg:_Hashtable_Clear_m3112193608
GLh:_UTF8Encoding_InternalGetByteCount_m771565606
n3j:__ZNK15dense_hashtableINSt3__24pairIK10KeyWrapperIP14Il2CppIUnknownEjEES5_N6il2cpp5utils11PointerHashIS3_EEN14dense_hash_mapIS5_jSB_NS5_14EqualsComparerINS0_8equal_toIS4_EEEENS0_9allocatorIS7_EEE9SelectKeyESG_SI_E12test_deletedEj
mRc:__Z18Transfer_BlittableI8JSONReadLb1EyEvRK29SerializationCommandArgumentsR31RuntimeSerializationCommandInfo
tOi:_List_1_System_Collections_IList_Remove_m3654336679_gshared
Xre:__ZL51GUILayer_t2783472903_CustomAttributesCacheGeneratorP21CustomAttributesCache
Z$d:__ZL56IDictionary_2_t3177279192_CustomAttributesCacheGeneratorP21CustomAttributesCache
SCa:__ZN9GfxDevice20GetVertexDeclarationERK18VertexChannelsInfoNS_30VertexDeclarationMRUCacheIndexE
Ugh:_Array_InternalArray__IEnumerable_GetEnumerator_TisUInt64_t4134040092_m1382862496_gshared
Nk:_emscripten_glMatrixMode
KUf:_MaskableGraphic_UnityEngine_UI_IClippable_get_gameObject_m1739855597
QPg:_NumberFormatInfo_get_RawPercentGroupSizes_m97703232
Yu:__ZN8Animator23VirtualRedirectTransferER18StreamedBinaryReadILb0EE
bRg:_Guid__ctor_m3562600567_AdjustorThunk
u6g:_DateTime_System_IConvertible_ToInt16_m3239820399
jY:__ZN11UnityEngine15CloudWebService14DataDispatcher16PrepareDataBlockERNS0_16SessionContainerE
UTb:__ZN18GfxFramebufferGLES5ClearE13GfxClearFlagsRK10ColorRGBAffib
ZOi:_List_1_Sort_m2163953164_gshared
Djh:_MonoProperty_StaticGetterAdapterFrame_TisRuntimeObject_m4131530968_gshared
dCb:__ZL26Transfer_SimpleNativeClassI18StreamedBinaryReadILb0EE10RectOffsetLb0EEvRK29SerializationCommandArgumentsR31RuntimeSerializationCommandInfo
A1e:_InternalEnumerator_1_get_Current_m2316281569_gshared
b_b:__ZL12DepthPassJobPN21GfxDeviceAsyncCommand10ArgScratchEPKNS_3ArgE
Sfc:__ZNSt3__26vectorIN9ShaderLab20SerializedSubProgram16TextureParameterENS_9allocatorIS3_EEE6assignINS_11__wrap_iterIPS3_EEEENS_9enable_ifIXaasr21__is_forward_iteratorIT_EE5valuesr16is_constructibleIS3_NS_15iterator_traitsISC_E9referenceEEE5valueEvE4typeESC_SC_
iDf:_MonoBehaviour_IsInvoking_m3285132449
hgf:_Transform_1_EndInvoke_m1701794896_gshared
DMc:__ZN5Unity9rapidjson6WriterI16TempBufferWriterNS0_4UTF8IcEES4_13JSONAllocatorE11WriteDoubleEd
oNh:_Thread_SetCachedCurrentUICulture_m1729523031
olb:__ZN14GfxDeviceStats16CopyAllDrawStatsERKS_
ARf:_InputField_get_minHeight_m2822964544
jff:__ZN23GenericVirtFuncInvoker1I27DictionaryEntry_t3123975638iE6InvokeEPK10MethodInfoP12Il2CppObjecti
D6f:_ClientContext_set_ClientHelloProtocol_m4189379912
Om:FUNCTION_TABLE_iiiiiiiiiiii
PSi:_List_1_get_Item_m1686506901_gshared
Ucf:_KeyCollection_System_Collections_Generic_IEnumerableU3CTKeyU3E_GetEnumerator_m1982109872_gshared
XEa:__ZN16GraphicsSettingsD0Ev
v2:__Z12FormatBufferPciPKcz
omd:__ZNSt3__26__treeINS_12__value_typeIN4core12basic_stringIcNS2_20StringStorageDefaultIcEEEE14CallbackArray3IRKS6_R8JSONReadbEEENS_19__map_value_compareIS6_SD_NS_4lessIS6_EELb1EEE13stl_allocatorISD_L18MemLabelIdentifier6ELi16EEE7destroyEPNS_11__tree_nodeISD_PvEE
n:cttz_i8
e0c:_UNITY_FT_GlyphLoader_Add
zpd:__ZN9Scripting11UnityEngine10Networking29UnityWebRequestAsyncOperation9InitProxyEv
Roj:_AudioListener_INTERNAL_CALL_ReadExtensionPropertyName_m330480156
NGe:__ZL78LayoutRebuilder_t541313304_CustomAttributesCacheGenerator_U3CU3Ef__mgU24cache0P21CustomAttributesCache
Xqi:__Z53RuntimeInvoker_Interval_t1802865632_Int32_t2950945753PFvvEPK10MethodInfoPvPS4_
W4g:_Convert_ToUInt16_m867476252
Kl:_emscripten_glViewport
Kdk:__ZN6il2cpp6icalls8mscorlib6System15MonoCustomAttrs17IsDefinedInternalEP12Il2CppObjectP20Il2CppReflectionType
SEh:_Enumerator__ctor_m40451936_AdjustorThunk
Hsi:__Z53RuntimeInvoker_Vector3_t3722313464_Single_t1397266774PFvvEPK10MethodInfoPvPS4_
vzj:_SkeletonBone_t4134054672_marshal_pinvoke_back
O5d:__ZL115SynchronizationAttribute_t3946661254_CustomAttributesCacheGenerator_SynchronizationAttribute_IsContextOK_m324067792P21CustomAttributesCache
Pqa:__ZN9Scripting11UnityEngine10CacheIndex9InitProxyEv
yRe:_CustomAttributeData_get_Constructor_m489601093
B1c:_cff_parse_font_bbox
Imh:_MSCompatUnicodeTable_Category_m1834196420
fpc:__Z35Application_Get_Custom_PropIsEditorv
g2a:__ZN14PlayerSettings23VirtualRedirectTransferER18StreamedBinaryReadILb0EE
Jhi:__Z85RuntimeInvoker_Void_t1185182177_Int32_t2950945753_Int32_t2950945753_Int32_t2950945753PFvvEPK10MethodInfoPvPS4_
Dbh:_Double_CompareTo_m3151899116
qmk:__ZN6il2cpp2os5Event5ResetEv
Q4c:_tt_name_ascii_from_other
qnj:_ToggleGroup__ctor_m3308114662
N5j:__ZN6il2cpp8metadata15GenericMetadata17InflateParametersEPK13ParameterInfohPK20Il2CppGenericContextb
dcg:_RSAParameters_t1728406613_marshal_pinvoke_back
zJi:_Array_Sort_TisUILineInfo_t4195266810_m3737783007_gshared
iFf:_PlayableAsset_Internal_CreatePlayable_m2550417712
qJf:_RenderTexture_get_width_m2160921386
ly:__ZNK17AnimationPlayable27GetNextCompatibleDescendantEj
U7f:_Context_get_LastHandshakeMsg_m2730646725
Qde:__ZL59ResolveEventArgs_t1779456501_CustomAttributesCacheGeneratorP21CustomAttributesCache
e$c:__ZN13dynamic_arrayIN4core17string_with_labelILi35EEELj0EE6insertEPS2_jRKS2_
mua:__ZN4PPtrI6SpriteE8TransferI18StreamedBinaryReadILb0EEEEvRT_
oxe:__ZL64GUIUtility_t1868551600_CustomAttributesCacheGenerator_s_SkinModeP21CustomAttributesCache
V6i:_TlsStream_Write_m188217214
M3c:_otv_LigatureSubst_validate
oqj:__ZL24UnresolvedVirtualCall_19P12Il2CppObject25DSAParameters_t1885824122PK10MethodInfo
mHb:__Z25SetNeedToPerformRenderingb
Mqk:__ZN10__cxxabiv116__shim_type_infoD2Ev
cLf:_Touch_get_phase_m214549210
Hdj:_Alternation__ctor_m1629257642
Thd:__ZN8JSONRead12TransferPairINSt3__24pairIN4core12basic_stringIcNS3_20StringStorageDefaultIcEEEEN11UnityEngine9Analytics16LimitEventConfigEEEEEvRT_17TransferMetaFlagsPKN5Unity9rapidjson12GenericValueINSG_4UTF8IcEE13JSONAllocatorEE
pwa:__ZN10GameObjectD2Ev
p_b:__ZN14qsort_internal30FindAndMovePivotToLastPositionIP15RODataDepthPassi17ROSorterDepthPassEEvT_S4_T0_T1_
fLe:_MethodAccessException__ctor_m3411913042
AAh:_EqualityComparer_1__ctor_m1767308726_gshared
R6b:__ZN12CullingGroup10SendEventsEPK17CullingGroupEventj
RLj:__ZNSt3__214__split_bufferI6pollfdRNS_9allocatorIS1_EEED2Ev
UPg:_NumberFormatInfo_get_PerMilleSymbol_m1360140831
u4f:_EncryptedData_get_EncryptionAlgorithm_m905084934
Dgh:_Array_InternalArray__IEnumerable_GetEnumerator_TisCustomAttributeTypedArgument_t2723150157_m1333528454_gshared
Uwd:_PointerInputModule__ctor_m3728889932
PUa:__ZThn32_NK8Renderer8GetLayerEv
pFh:_Enumerator_System_Collections_IEnumerator_Reset_m2915500989_gshared
G1c:_cff_parse_vsindex
k4j:__ZN30dense_hashtable_const_iteratorINSt3__24pairIK10KeyWrapperINS1_IPKcS4_EEEiEES6_24NamespaceAndNamePairHashN14dense_hash_mapIS6_iS9_NS6_14EqualsComparerI26NamespaceAndNamePairEqualsEENS0_9allocatorIS8_EEE9SelectKeyESD_SF_E30advance_past_empty_and_deletedEv
zSg:_Int32_ValidDigit_m1059003769
iAk:_emscripten_glTexParameterfv__wrapper
EIf:_RectTransform_INTERNAL_get_sizeDelta_m2173368204
iee:__ZL54MemberFilter_t426314064_CustomAttributesCacheGeneratorP21CustomAttributesCache
ySf:_LayoutGroup_get_rectTransform_m442863741
Job:__Z18Transfer_BlittableI14SafeBinaryReadLb1E9BoundsIntEvRK29SerializationCommandArgumentsR31RuntimeSerializationCommandInfo
gtc:__ZN2UI13RectTransform17GetLocalPositionZEv
qxk:b63
aYj:_il2cpp_method_get_param_count
uba:__ZNK5Unity4Type21FindAllDerivedClassesER13dynamic_arrayIPKS0_Lj0EENS0_17TypeFilterOptionsE
Apc:__ZN10systeminfo19ISOToSystemLanguageERN4core12basic_stringIcNS0_20StringStorageDefaultIcEEEE
cSj:__ZNK15dense_hashtableINSt3__24pairIK10KeyWrapperINS1_IPK12PropertyInfoP11Il2CppClassEEEjEES9_17ReflectionMapHashIS8_EN14dense_hash_mapIS9_jSD_NS9_14EqualsComparerINS0_8equal_toIS8_EEEENS0_9allocatorISB_EEE9SelectKeyESI_SK_E3endEv
y4h:__ZN28GenericInterfaceFuncInvoker2Ii39CustomAttributeNamedArgument_t287865710S0_E6InvokeEPK10MethodInfoP12Il2CppObjectS0_S0_
uLi:_LayoutGroup_SetProperty_TisAxis_t3613393006_m3591044743_gshared
eUh:_UnauthorizedAccessException__ctor_m40101894
HZd:__ZL69RuntimeArray_CustomAttributesCacheGenerator_Array_SetValue_m282347242P21CustomAttributesCache
Lod:__ZN22BaseUnityConnectClient14AppRunningTickEj
M8c:_ps_dimension_done
oad:__Z46Register_UnityEngine_TextGenerator_Dispose_cppv
Mki:__Z67RuntimeInvoker_GCHandle_t3351438187_RuntimeObject_Int32_t2950945753PFvvEPK10MethodInfoPvPS4_
Hbh:_Double_Parse_m4153729520
$bi:_IndexedSet_1_AddUnique_m861843892_gshared
lfe:__ZL59HybridDictionary_t4070033136_CustomAttributesCacheGeneratorP21CustomAttributesCache
OVa:__ZN16LightmapSettings8TransferI14SafeBinaryReadEEvRT_
gOb:__ZN17BufferManagerGLES13ReleaseBufferEP14DataBufferGLES
C5f:_CipherSuite_Write_m1172814058
xJe:_SynchronizedWriter_Write_m301917713
j3:__ZN9profiling6MarkerC2EPKc13ProfilerGroupNS0_5FlagsE
W7e:__ZN21InterfaceFuncInvoker1Ii22UILineInfo_t4195266810E6InvokeEjP11Il2CppClassP12Il2CppObjectS0_
jRc:__Z18Transfer_BlittableI8JSONReadLb1EjEvRK29SerializationCommandArgumentsR31RuntimeSerializationCommandInfo
tSe:_ConstructorBuilder_get_IsCompilerContext_m3364441562
jxf:_Debug_LogWarning_m3752629331
osc:__Z13RegisterClassIN2UI13RectTransformEEvPKc
vqa:__ZN9Scripting11UnityEngine7Texture9InitProxyEv
H3h:_ReadOnlyCollection_1_System_Collections_Generic_IListU3CTU3E_RemoveAt_m4037795630_gshared
gmi:__Z117RuntimeInvoker_Void_t1185182177_RuntimeObject_Int32_t2950945753_Int32_t2950945753_Int32_t2950945753_Int32_t2950945753PFvvEPK10MethodInfoPvPS4_
_Ya:__ZNK13ScreenManager17GetFullscreenModeEv
fR:__Z30GetAudioSpatializerDefinitionsR13dynamic_arrayIP29AudioEffectInternalDefinitionLj0EE31UnityAudioEffectDefinitionFlags
bEe:__ZL81U3CMouseDragOutsideRectU3Ec__Iterator1_t3909241878_CustomAttributesCacheGeneratorP21CustomAttributesCache
Fzd:_U3COnFinishSubmitU3Ec__Iterator0_Reset_m3632769946
Zo:stackSave
J_:__ZN5Unity9rapidjson15GenericDocumentINS0_4UTF8IcEE13JSONAllocatorNS0_12CrtAllocatorEE6StringEPKcjb
IBd:_ColorTween_get_targetColor_m1724075482_AdjustorThunk
f9c:_ps_dimension_end
KFc:__Z41Register_UnityEngine_Mesh_Internal_Createv
Fgb:__ZN16MemoryFileSystem5TouchER13FileEntryData
L5j:__ZNK15dense_hashtableI10KeyWrapperIP18Il2CppGenericClassES3_N6il2cpp8metadata22Il2CppGenericClassHashEN14dense_hash_setIS3_S6_NS3_14EqualsComparerINS5_25Il2CppGenericClassCompareEEENSt3__29allocatorIS3_EEE8IdentityESA_SD_E12test_deletedERK30dense_hashtable_const_iteratorIS3_S3_S6_SF_SA_SD_E
SFh:_Enumerator_Dispose_m2498245804_AdjustorThunk
h0g:_Console_Open_m3077673205
u9i:_X509StoreManager_get_CurrentUser_m4040993045
y8b:__ZN6Camera9SetAspectEf
Cih:_Array_InternalArray__IndexOf_TisDateTime_t3738529785_m2463359116_gshared
va:invoke_viiffiii
$uj:_Display_Start_m3623905221
x0e:_InternalEnumerator_1_MoveNext_m4138204635_gshared
zBk:_emscripten_glBindVertexArray__wrapper
m8j:__ZN6il2cpp6icalls8mscorlib6System4Enum19get_underlying_typeEP20Il2CppReflectionType
tfj:_Parser_IsECMAScript_m674158805
oL:__ZN10ObjectPoolIN4FMOD3DSPENS0_4DSPIEE7GetFreeEi
mxa:__ZN9Transform37InitializeTransformHierarchyRecursiveER18TransformHierarchyRii
nnb:__ZN26SinglePassStereoSupportExt23SetupStereoMatrixParamsE21MonoOrStereoscopicEye24BuiltinShaderMatrixParamRK10Matrix4x4f
KIi:_Array_Resize_TisVector2_t2156229523_m1564542050_gshared
mpd:__GLOBAL__sub_I_artifacts_WebGL_codegenerator_0_cpp_7004
Xjb:__ZN9GfxDevice23CreateAsyncReadbackDataEv
Npd:__ZNK25UnityWebRequestJavaScript16GetUploadedBytesEv
cU:__Z46AudioListener_CUSTOM_GetNumExtensionPropertiesP12Il2CppObject
vMj:__ZN6il2cpp6icalls8mscorlib6SystemL16CheckMemberMatchI9FieldInfoNS_5utils10functional6FilterINSt3__212basic_stringIcNS8_11char_traitsIcEENS8_9allocatorIcEEEENS5_13VmStringUtils23CaseInsensitiveComparerEEEEEbPKT_PK11Il2CppClassSN_iRKT0_
c6:__Z14GetMonoManagerv
Pih:_Array_InternalArray__IndexOf_TisMonoResource_t4103430009_m1351751258_gshared
dw:__ZN17AnimationPlayable34CollectAnimatorControllerPlayablesER13dynamic_arrayIP26AnimatorControllerPlayableLj0EE
sMg:_FieldAccessException__ctor_m3583219052
_8g:_Decimal_System_IConvertible_ToDouble_m3125524987
vqc:__Z57Register_UnityEngine_Transform_INTERNAL_set_localPositionv
ote:__ZL105RectTransform_t3704657025_CustomAttributesCacheGenerator_RectTransform_INTERNAL_get_anchorMax_m1239315619P21CustomAttributesCache
XMb:__ZN13GfxDeviceGLES26SetRandomWriteTargetBufferEi15ComputeBufferID
fhk:_GC_split_block
FIi:_Array_Resize_TisUICharInfo_t75501106_m3903846016_gshared
l0h:_ReadOnlyCollection_1_System_Collections_Generic_ICollectionU3CTU3E_get_IsReadOnly_m3887826072_gshared
VRj:__ZNK15dense_hashtableINSt3__24pairIK10KeyWrapperINS1_IPK12PropertyInfoP11Il2CppClassEEEjEES9_17ReflectionMapHashIS8_EN14dense_hash_mapIS9_jSD_NS9_14EqualsComparerINS0_8equal_toIS8_EEEENS0_9allocatorISB_EEE9SelectKeyESI_SK_E8min_sizeEjj
GVb:__ZZ23InitPlayerLoopCallbacksvEN49EarlyUpdateResetFrameStatsAfterPresentRegistrator7ForwardEv
npk:_poll
n0h:_ReadOnlyCollection_1_System_Collections_IEnumerable_GetEnumerator_m1671097018_gshared
RTh:_UInt64_ToString_m1529093114_AdjustorThunk
IRe:__ZN21InterfaceFuncInvoker1I39CustomAttributeNamedArgument_t287865710iE6InvokeEjP11Il2CppClassP12Il2CppObjecti
VQd:_TypeLibImportClassAttribute__ctor_m2302178978
hoh:_Escape_t3294788190_marshal_pinvoke
UQf:_InputField_OnUpdateSelected_m1118869681
O3j:__ZN6il2cpp2vmL36AddNestedTypesToNametoClassHashTableEP40Il2CppNameToTypeDefinitionIndexHashTablePKcRKNSt3__212basic_stringIcNS5_11char_traitsIcEENS5_9allocatorIcEEEEP11Il2CppClass
fof:_SerializationException__ctor_m3131447373
XRa:__ZN4crnd12crn_unpacker11unpack_dxt1EPPhjjj
tUj:__ZN15dense_hashtableINSt3__24pairIK10KeyWrapperIPK10Il2CppTypeEjEES6_N6il2cpp8metadata14Il2CppTypeHashEN14dense_hash_mapIS6_jSB_NS6_14EqualsComparerINSA_26Il2CppTypeEqualityComparerEEENS0_9allocatorIS8_EEE9SelectKeyESF_SH_E14squash_deletedEv
HJ:__ZL55__ManagedRegistrationHelperFunction_CoordinateFramePairPv
ekc:__ZNK11ICallString6ToUTF8Ev
MDi:__Z39RuntimeInvoker_MonoResource_t4103430009PFvvEPK10MethodInfoPvPS4_
dCj:__ZN15dense_hashtableINSt3__24pairIK10KeyWrapperIPK22Il2CppGenericParameterEP11Il2CppClassEES6_N6il2cpp5utils11PointerHashIS4_EEN14dense_hash_mapIS6_S9_SE_NS6_14EqualsComparerINS0_8equal_toIS5_EEEENS0_9allocatorISA_EEE9SelectKeyESJ_SL_E15insert_noresizeERKSA_
Mef:_Transform_1_Invoke_m2468053724_gshared
Xki:__Z51RuntimeInvoker_Void_t1185182177_TimeSpan_t881159249PFvvEPK10MethodInfoPvPS4_
qX:__ZL60__ManagedRegistrationHelperFunction_ClothSkinningCoefficientPv
q_b:__ZNSt3__211__sift_downIR17ROSorterDepthPassP15RODataDepthPassEEvT0_S5_T_NS_15iterator_traitsIS5_E15difference_typeES5_
MMa:__ZN18UnityPropertySheet11UnityTexEnvC2Ev
uBg:_ArgumentException__ctor_m3200406061
uD:__ZN8Animator17ApplyOnAnimatorIKEiRNS_11AnimatorJobE
gaa:__ZN12FileAccessor4ReadEyyPvPy
ktj:__ZL25UnresolvedVirtualCall_177P12Il2CppObject25RaycastResult_t3360306849PK10MethodInfo
kDb:__Z29Transfer_Blittable_ArrayFieldI18StreamedBinaryReadILb0EE11QuaternionfEvRT_R9ArrayInfoRK23StaticTransferFieldInfo
FUi:_List_1_set_Capacity_m2777925136_gshared
a8b:__ZN13RenderTexture9SetHeightEi
M8:__ZN17PersistentManager25PreallocateObjectThreadedEiNS_9LockFlagsE
yw:__ZN7mecanim9animation17ClearMotionOutputEPNS0_18AnimationNodeStateE
Hje:__ZL59LightmapBakeType_t1497855756_CustomAttributesCacheGeneratorP21CustomAttributesCache
o6f:_CipherSuiteCollection_get_IsFixedSize_m3127823890
OEa:__ZN16LevelGameManager8TransferI24GenerateTypeTreeTransferEEvRT_
T6e:_InternalEnumerator_1_System_Collections_IEnumerator_get_Current_m3537550566_gshared
IWf:_Scrollbar_UpdateVisuals_m2492252165
k8i:_PKCS12_get_Keys_m2165478388
n0j:__ZN6il2cpp6icalls8mscorlib6System2IO6MonoIO17GetFileAttributesEP12Il2CppStringPi
isf:_HMACMD5__ctor_m3008609295
v7d:__ZL61X509KeyStorageFlags_t441861693_CustomAttributesCacheGeneratorP21CustomAttributesCache
H7g:_DateTime_ToString_m2992030064_AdjustorThunk
I5c:_tt_cmap8_char_index
a6:__Z24scripting_class_get_name17ScriptingClassPtr
erg:_Oid__ctor_m911618594
Pnj:_VerticalLayoutGroup_CalculateLayoutInputHorizontal_m1404590745
oca:__ZN13RuntimeStaticI15GUIEventManagerLb0EE13StaticDestroyEPv
jMe:_ShortComparer_Compare_m1881262465
zqb:__Z29Transfer_Blittable_ArrayFieldI14SafeBinaryReadjEvRT_R9ArrayInfoRK23StaticTransferFieldInfo
de:_emscripten_set_keydown_callback
rmg:_EncoderReplacementFallback__ctor_m1483565116
Hwg:_Interpreter_IsWordChar_m2858055765
vLg:_Hashtable_CopyTo_m2905447224
qqa:__ZN9Scripting11UnityEngine29CustomRenderTextureUpdateZone12CleanupProxyEv
oaa:__ZN12FileAccessorC2Ev
rCi:__Z96RuntimeInvoker_Void_t1185182177_BooleanU5BU5DU26_t3454195888_Int32_t2950945753_Int32_t2950945753PFvvEPK10MethodInfoPvPS4_
Iri:__Z73RuntimeInvoker_Void_t1185182177_Vector2U26_t2376273893_RayU26_t3515555043PFvvEPK10MethodInfoPvPS4_
yAh:_EqualityComparer_1_System_Collections_IEqualityComparer_Equals_m3855544238_gshared
$Ua:__ZNK8Renderer29FlattenPerMaterialCustomPropsER22PerThreadPageAllocatorR10RenderNode
GA:__ZThn152_NK26AnimatorControllerPlayable25GetStateMachineBehavioursEv
Rbi:_EventFunction_1_Invoke_m2429482587_gshared
IKj:_CertificateHandler_Dispose_m2100863831
rXd:__ZL51Attribute_t861562559_CustomAttributesCacheGeneratorP21CustomAttributesCache
KNj:__ZN6il2cpp2vm7Runtime12GetConfigDirEv
Onj:_VerticalLayoutGroup__ctor_m321345421
bI:__ZN4PPtrI13MonoBehaviourE8TransferI18StreamedBinaryReadILb0EEEEvRT_
PEh:_Enumerator_MoveNext_m1177880931_AdjustorThunk
NJf:_SendMouseEvents_SetMouseMoved_m2822596724
Sve:__ZL82Event_t2956885303_CustomAttributesCacheGenerator_Event_get_commandName_m4275147343P21CustomAttributesCache
Qwj:_TextGenerator_Populate_m194003733
qTe:_DerivedType_get_FullName_m1025358827
oqf:_CryptoConfig_MapNameToOID_m2044758263
mma:__ZL50__ManagedRegistrationHelperFunction_SetupCoroutinePv
zr:__ZN13ConstraintJob23ConstraintComponentDataC2ERKS0_
JDe:__ZL70InputField_t3762917431_CustomAttributesCacheGenerator_m_OnValueChangedP21CustomAttributesCache
PFb:__Z39WriteQueueForTransferSignatureIntoCacheRK31TransferFunctionScriptingTraitsRK24TransferRequestSignature17ScriptingClassPtrR23CachedSerializationDataRb
U6a:__ZN13RenderManager18UpdateAllRenderersEv
Ymg:_Encoding_get_UTF8UnmarkedUnsafe_m320312322
xNh:_Thread_Thread_free_internal_m333849022
YNc:__Z35Transfer_Blittable_FixedBufferFieldI9JSONWritexEvRK29SerializationCommandArgumentsR31RuntimeSerializationCommandInfo
Haj:_CostDelegate_BeginInvoke_m2828452701
Vjd:__ZN22BaseUnityConnectClient30OnEnteringStatePausedOrStoppedEv
J2i:_Collection_1_ConvertItem_m1556170494_gshared
Mw:__ZN7mecanim5human12HumanPoseAddERNS0_9HumanPoseERKS1_S4_
Q1g:_DateTime_ToUniversalTime_m1945318289
Wah:_DllNotFoundException__ctor_m1156705135
WHg:_ArrayList_ToArray_m3827492363
A_f:_Slider_get_stepSize_m1423227661
MTh:_UInt64_Parse_m819899889
Udg:_SymmetricAlgorithm_set_IV_m3196220308
lVe:_GenericTypeParameterBuilder_GetHashCode_m852224381
m5g:_Convert_ToUInt32_m1453583008
yNg:_CompareInfo_Compare_m894311506
Vwa:__Z24MergeTransformComponentsR9TransformS0_b
xGj:__ZNK15dense_hashtableI10KeyWrapperIPK19Il2CppGenericMethodES4_N6il2cpp8metadata23Il2CppGenericMethodHashEN14dense_hash_setIS4_S7_NS4_14EqualsComparerINS6_26Il2CppGenericMethodCompareEEENSt3__29allocatorIS4_EEE8IdentityESB_SE_E10test_emptyEj
Dtd:_EventSystem_UpdateModules_m3643806022
R9j:__ZN6il2cpp2gc16GarbageCollector10StartWorldEv
Wyj:_AnimationOffsetPlayable__cctor_m1029460816
f9h:_InvokableCall_1__ctor_m2610016537_gshared
Sfg:_Evidence_get_SyncRoot_m2835084965
Rfh:_SetPropertyUtility_SetStruct_TisTouchScreenKeyboardType_t1530597702_m2455393348_gshared
Mwh:_DefaultComparer__ctor_m2280347240_gshared
X7d:__ZL59ICryptoTransform_t2733259762_CustomAttributesCacheGeneratorP21CustomAttributesCache
sdk:__ZN6il2cpp2vm13ComObjectBase19GetRuntimeClassNameEPP15Il2CppHString__
nCb:__Z35Transfer_Blittable_FixedBufferFieldI18StreamedBinaryReadILb0EEyEvRK29SerializationCommandArgumentsR31RuntimeSerializationCommandInfo
SDa:__Z37GetBarycentricCoordinatesForOuterCellPPK8Vector3fRK13dynamic_arrayIS_Lj0EERS0_RK11TetrahedronR8Vector4f
Pj:_emscripten_glVertexAttribPointer
krk:__ZNSt11logic_errorD0Ev
CIb:__ZN14PreloadManager26UpdatePreloadingSingleStepENS_21UpdatePreloadingFlagsEi
Bci:_TweenRunner_1__ctor_m340723704_gshared
oZf:_ScrollRect_SetLayoutHorizontal_m3078869633
g0g:_Console_OpenStandardInput_m3262421490
Ymh:_SimpleCollator__ctor_m1587210019
dtj:__ZL25UnresolvedVirtualCall_170P12Il2CppObject40CustomAttributeTypedArgument_t2723150157S1_PK10MethodInfo
cmc:__Z57Register_UnityEngine_RectTransform_INTERNAL_set_anchorMinv
d5g:_Convert_ToUInt16_m1480956416
Cja:__ZN6prcoreL25inner_stretch_i8_bilinearEPKNS_9InnerInfoE
A8a:__ZL30RegisterFilteredObjectCallbackPP12Il2CppObjectiPv
d3h:_ReadOnlyCollection_1_System_Collections_Generic_IListU3CTU3E_RemoveAt_m3317217538_gshared
uve:__ZL54AudioSource_t3935305588_CustomAttributesCacheGeneratorP21CustomAttributesCache
YIb:__Z19InitializeGfxDevicev
GY:__ZN11UnityEngine15CloudWebService16SessionContainer24GetSessionHeaderJsonDataERKN4core12basic_stringIcNS2_20StringStorageDefaultIcEEEERNS2_13StringBuilderE
VSe:_DerivedType_GetEvent_m4157575360
Gba:__ZN13RuntimeStaticI21AssetReferenceStorageLb0EE13StaticDestroyEPv
spf:_SByte_System_IConvertible_ToType_m4075253447_AdjustorThunk
HKg:_Comparer__ctor_m2831654082
Fle:__ZL54PhysicsUpdate_t81124440_CustomAttributesCacheGeneratorP21CustomAttributesCache
XXh:_Collection_1_ConvertItem_m618594517_gshared
Nwi:__Z72RuntimeInvoker_Bounds_t2266837910_RuntimeObject_Matrix4x4U26_t3606180965PFvvEPK10MethodInfoPvPS4_
l6h:__ZN28GenericInterfaceFuncInvoker2IbiiE6InvokeEPK10MethodInfoP12Il2CppObjectii
$9j:__ZN6il2cpp6icalls8mscorlib6System9AppDomain22InternalGetProcessGuidEP12Il2CppString
Nu:__ZNK25RuntimeAnimatorController30GetAnimationClipOverrideVectorEv
sce:__ZL79Convert_t2465617642_CustomAttributesCacheGenerator_Convert_ToUInt32_m3188121845P21CustomAttributesCache
Xfi:__Z48RuntimeInvoker_RuntimeObject_Decimal_t2948259380PFvvEPK10MethodInfoPvPS4_
NNh:_ThreadStart_EndInvoke_m3768045394
st:__ZN9Scripting11UnityEngine10Animations16ConstraintSource9InitProxyEv
lEc:__Z34Quaternion_CUSTOM_Inverse_InjectedRK11QuaternionfRS_
CMj:__ZNSt3__214__split_bufferIP9FieldInfoRNS_9allocatorIS2_EEEC2EjjS5_
wof:_StreamingContext__ctor_m2604757771_AdjustorThunk
Yub:__Z18Transfer_BlittableI24GenerateTypeTreeTransferLb1EjEvRK29SerializationCommandArgumentsR31RuntimeSerializationCommandInfo
zRj:__ZNK15dense_hashtableINSt3__24pairIK10KeyWrapperINS1_IPK11Il2CppImageP11Il2CppClassEEEjEES9_17ReflectionMapHashIS8_EN14dense_hash_mapIS9_jSD_NS9_14EqualsComparerINS0_8equal_toIS8_EEEENS0_9allocatorISB_EEE9SelectKeyESI_SK_E10test_emptyERK30dense_hashtable_const_iteratorISB_S9_SD_SM_SI_SK_E
bCj:__ZN6il2cpp2os12FastAutoLockD2Ev
T2d:__ZL68AssemblyCopyrightAttribute_t836190902_CustomAttributesCacheGeneratorP21CustomAttributesCache
FGa:__ZN11ColorRGBA328TransferI14SafeBinaryReadEEvRT_
W_i:_Collection_1_Add_m1736908447_gshared
U1c:_cff_vstore_done
Qhb:__ZN9GfxDevice33ScheduleComputeBufferJobsInternalEPFvP20ComputeBufferJobDataEPFvRK8JobFenceEPK27ComputeBufferJobInstructionj
jri:__Z68RuntimeInvoker_Void_t1185182177_UInt16_t2177724958_SByte_t1669577662PFvvEPK10MethodInfoPvPS4_
mUh:__ZN25GenericVirtActionInvoker2IP12Il2CppObjectP39UnhandledExceptionEventArgs_t2886101344E6InvokeEPK10MethodInfoS1_S1_S3_
r5a:__ZN15ResourceManager10Dependency8TransferI24GenerateTypeTreeTransferEEvRT_
Hsf:_MACTripleDES_HashFinal_m3613553534
gTh:_UInt64_System_IConvertible_ToChar_m2074245892
vr:__ZN4core8hash_setIPN5Unity9ComponentENS_4hashIS3_EENSt3__28equal_toIS3_EEE4growEi
KLh:_UTF8Encoding_InternalGetBytes_m1965760031
If:_emscripten_glClearDepth
Ytc:__ZNK8GUILayer22GetTypeVirtualInternalEv
DTa:__ZN14SafeBinaryRead21TransferSTLStyleArrayINSt3__26vectorIN15QualitySettings14QualitySettingENS1_9allocatorIS4_EEEEEEvRT_17TransferMetaFlags
B9h:_UnityAction_1__ctor_m3007623985_gshared
Bcf:_KeyCollection__ctor_m2388548663_gshared
szi:__Z56RuntimeInvoker_Boolean_t97287965_ILTokenInfo_t2325775114PFvvEPK10MethodInfoPvPS4_
z3a:__ZNSt3__26vectorINS_4pairIPKN5Unity4TypeE7Hash128EENS_9allocatorIS7_EEE8__appendEj
Ur:__ZN4core8hash_setIPN5Unity9ComponentENS_4hashIS3_EENSt3__28equal_toIS3_EEE4growEv
YRc:__ZN8JSONRead21TransferSTLStyleArrayI13dynamic_arrayIaLj0EEEEvRT_17TransferMetaFlags
X1c:_cff_font_load
Gak:__GLOBAL__sub_I_LibraryLoader_cpp
rCc:__Z13IsPathCreatedRKN4core12basic_stringIcNS_20StringStorageDefaultIcEEEE
vCe:__ZL99Dropdown_t2274391225_CustomAttributesCacheGenerator_Dropdown_DelayedDestroyDropdownList_m2082128994P21CustomAttributesCache
lxf:_Debug_LogWarningFormat_m2535776735
lPa:__ZL22stbir__encode_scanlineP11stbir__infoiPvPfiii
xqj:__ZL24UnresolvedVirtualCall_28P12Il2CppObjectS0_iiPK10MethodInfo
fQd:_ExternalException__ctor_m2877839282
LWc:__ZN20QuadTreeNodeRenderer13StaticDestroyEPv
CZ:__ZN11UnityEngine15CloudWebService20WebRequestRestClient5AbortEv
i3i:_Collection_1_InsertItem_m954500348_gshared
Fdj:_Regex_Matches_m2080913806
utc:__ZN9Transform12CleanupClassEv
KCe:__ZL57FontData_t746620069_CustomAttributesCacheGenerator_m_FontP21CustomAttributesCache
xBf:_Mathf_Sin_m3411839043
g$c:_UNITY_FT_Set_Pixel_Sizes
JPe:_OperatingSystem_Clone_m1122165140
LMi:_GameObject_AddComponent_TisRuntimeObject_m3469369570_gshared
UC:__ZN11UnityEngine9Animation33SetGenericTransformPropertyValuesERKNS0_30AnimatorGenericBindingConstantERKN7mecanim10ValueArrayEP9Transformy
_ae:__ZL59AttributeTargets_t1784037988_CustomAttributesCacheGeneratorP21CustomAttributesCache
Kme:__ZL61ThreadedLoadingDebug_t53594427_CustomAttributesCacheGeneratorP21CustomAttributesCache
KYj:__ZN6il2cpp2vmL24thread_cleanup_on_cancelEPv
NQi:_List_1_RemoveAll_m3165362277_gshared
gQh:_Type_type_is_subtype_of_m1406623598
qma:__ZL54__ManagedRegistrationHelperFunction_SpriteAtlasManagerPv
yCe:__ZL71DropdownItem_t1451952895_CustomAttributesCacheGenerator_m_RectTransformP21CustomAttributesCache
jMh:_Thread_get_CurrentThread_m4142136012
eDa:__Z30ProcessDynamicBatchGeometryJobP25DynamicVBOGeometryJobDataj
T_b:__ZNSt3__27__sort4IRNS_6__lessI11CulledLightS2_EEPS2_EEjT0_S6_S6_S6_T_
CVj:__ZN6il2cpp2vm14TypeNameParser26ParseArrayModifierOptionalEv
u7:__Z26scripting_object_get_class18ScriptingObjectPtr
q$j:__ZN6il2cpp6icalls8mscorlib6System10Reflection8Assembly13get_code_baseEP24Il2CppReflectionAssemblyb
s4a:__ZNSt3__26vectorIN4core12basic_stringIcNS1_20StringStorageDefaultIcEEEE13stl_allocatorIS5_L18MemLabelIdentifier13ELi16EEE7reserveEj
wrf:_DSASignatureDeformatter__ctor_m2889130126
vug:_X509ChainElementCollection_Clear_m2271223414
Vuc:__ZNK28MonoBehaviourPropertyBinding15GenerateBindingERKN4core12basic_stringIcNS0_20StringStorageDefaultIcEEEEbRN11UnityEngine9Animation14GenericBindingE
KIf:_RectTransform_INTERNAL_set_pivot_m1160676233
EVi:_List_1_set_Item_m35836043_gshared
aFe:__ZL70ScrollRect_t4137855814_CustomAttributesCacheGenerator_m_OnValueChangedP21CustomAttributesCache
mug:_X509ChainElementCollection__ctor_m3424079155
uFc:__Z58Register_UnityEngine_Camera_ScreenToViewportPoint_Injectedv
Oaj:_LinkStack_Push_m3081279930
nbf:_Enumerator_MoveNext_m1107569389_gshared
DMj:__ZNSt3__26vectorIP9FieldInfoNS_9allocatorIS2_EEE26__swap_out_circular_bufferERNS_14__split_bufferIS2_RS4_EE
Mbi:_UnityEvent_3_GetDelegate_m1156357290_gshared
xbk:__ZN6il2cpp6icalls8mscorlib6System11Environment15internalGetHomeEv
i2e:_InternalEnumerator_1__ctor_m4200721464_gshared
YBf:_Matrix4x4_GetHashCode_m4034747639_AdjustorThunk
iPd:_ResourceCacheItem_t51292791_marshal_pinvoke_cleanup
gsa:__ZNK5Unity9Component7GetNameEv
fNj:__ZNSt3__214__split_bufferIN6il2cpp6icalls8mscorlib6System12PropertyPairERNS_9allocatorIS5_EEEC2EjjS8_
Z8b:__Z23FindMonoScriptFromClass17ScriptingClassPtr
Xdg:_SymmetricAlgorithm_get_KeySize_m4185004893
OOi:_List_1_GetEnumerator_m232588170_gshared
bTf:_U3CDelayedSetDirtyU3Ec__Iterator0_Reset_m160466733
Llb:__ZN21ScalableBufferManager23UnregisterRenderSurfaceEP17RenderSurfaceBaseb
tte:__ZL104RectTransform_t3704657025_CustomAttributesCacheGenerator_RectTransform_INTERNAL_set_sizeDelta_m188783163P21CustomAttributesCache
XTi:_List_1_System_Collections_IList_Remove_m1070694895_gshared
$hj:_LayoutCache__ctor_m3885940174
DYa:__ZN13ScreenManagerD0Ev
Oyj:_AnimationMotionXToDeltaPlayable_GetHandle_m1319190040_AdjustorThunk
mE:__ZN7mecanim8skeleton26SkeletonPoseComputeGlobalQEPKNS0_8SkeletonEPKNS0_13SkeletonPoseTIN4math4trsXEEEPS7_ii
fTh:_UInt64_System_IConvertible_ToByte_m1501504925_AdjustorThunk
Cwj:_TextGenerator_Invalidate_m1072346986
_8f:_TlsClientHello_ProcessAsTls1_m2549285167
YEi:__Z74RuntimeInvoker_Boolean_t97287965_UIVertex_t4057497605_UIVertex_t4057497605PFvvEPK10MethodInfoPvPS4_
W0h:_ReadOnlyCollection_1_System_Collections_IList_Clear_m3591436538_gshared
XXf:_ScrollRect_set_decelerationRate_m723367336
OD:__ZN9BlobWrite8TransferI22OffsetPtrArrayTransferIiEEEvRT_PKc17TransferMetaFlags
gmg:_EncoderExceptionFallback_Equals_m2760188920
F4e:_InternalEnumerator_1__ctor_m43405049_AdjustorThunk
ktb:__Z18Transfer_BlittableI17RemapPPtrTransferLb1EjEvRK29SerializationCommandArgumentsR31RuntimeSerializationCommandInfo
dtf:_RC2CryptoServiceProvider_get_EffectiveKeySize_m3835262416
H6b:__ZNK15LODGroupManager17CalculateLODMasksERK13LODParametersfPhPf
tO:__ZN4FMOD6System7releaseEv
Xwb:__Z18Transfer_BlittableI19StreamedBinaryWriteILb0EELb1E8BitFieldEvRK29SerializationCommandArgumentsR31RuntimeSerializationCommandInfo
QEg:_Boolean_CompareTo_m3665076258
ajg:_String_Split_m3580120853
msh:_PrivateKeyInfo__ctor_m2811023496
L9:__Z18PathToAbsolutePathRKN4core12basic_stringIcNS_20StringStorageDefaultIcEEEE
qId:_PropertyBuilder_GetCustomAttributes_m2917594003
Xij:_GUILayoutUtility_LayoutFromEditorWindow_m2914699782
o0f:_BigInteger_SetBit_m1723423691
Dpa:__ZN9Scripting11UnityEngine12Experimental10PlayerLoop13PreLateUpdate9InitProxyEv
dyi:__Z78RuntimeInvoker_RuntimeObject_ObjectU26_t2146539884_RuntimeObject_RuntimeObjectPFvvEPK10MethodInfoPvPS4_
bid:__ZN21UnityAnalyticsManager15ThreadedCleanupEv
ROa:__ZL13BlitImageImplR14ImageReferenceiiRKS_NS_10ColorSpaceENS_8BlitModeEb
Fzc:__ZN15DirectorManager17AcquireOutputNodeEv
ZWa:__Z14resize_trimmedINSt3__26vectorI13dynamic_arrayI8Vector2fLj0EENS0_9allocatorIS4_EEEEEvRT_j
xHi:_Array_InternalArray__set_Item_TisColor32_t2600501292_m1891325855_gshared
mEb:__ZN10MonoScript23VirtualRedirectTransferER17RemapPPtrTransfer
OMi:_GameObject_GetComponentInChildren_TisRuntimeObject_m1310240902_gshared
ang:_Locale_GetText_m2640320736
Joe:__ZL69PersistentCall_t3407714124_CustomAttributesCacheGenerator_m_ArgumentsP21CustomAttributesCache
NFa:__Z32TransferEnumWithNameForceIntSizeI14SafeBinaryReadN21BuiltinShaderSettings17BuiltinShaderModeEEvRT_RT0_PKc17TransferMetaFlags
m9f:_TlsServerCertificateRequest_ProcessAsSsl3_m1084200341
gHa:__ZN16ReflectionProbes28GetMinBakedCubemapResolutionEv
Kfg:_PermissionSet__ctor_m2328457660
pgf:_Enumerator__ctor_m1849900510_gshared
ddk:__GLOBAL__sub_I_String_cpp
aCj:__ZN15dense_hashtableINSt3__24pairIK10KeyWrapperIPK22Il2CppGenericParameterEP11Il2CppClassEES6_N6il2cpp5utils11PointerHashIS4_EEN14dense_hash_mapIS6_S9_SE_NS6_14EqualsComparerINS0_8equal_toIS5_EEEENS0_9allocatorISA_EEE9SelectKeyESJ_SL_E6insertERKSA_
bRf:_InputField_GenerateCaret_m1459647218
Ate:__ZL101SpriteAtlasManager_t3158462485_CustomAttributesCacheGenerator_SpriteAtlasManager_Register_m2413332465P21CustomAttributesCache
c8i:_X509CertificateEnumerator__ctor_m85694331
aOb:__ZN14DataBufferGLES16RecreateWithDataEjPKv
Esa:__Z29GetGlobalAllowNameConversionsv
Plh:_Array_InternalArray__Insert_TisTableRange_t3332867892_m558285859_gshared
P9b:__ZN8Material8SetColorEN9ShaderLab16FastPropertyNameERK10ColorRGBAf
cAe:__ZL77ExecuteEvents_t3484638744_CustomAttributesCacheGenerator_U3CU3Ef__mgU24cacheFP21CustomAttributesCache
vGh:_Enumerator_System_Collections_IEnumerator_Reset_m3754523291_gshared
Cmd:__ZN11UnityEngine7Connect20RemoteConfigSettings19ConfigUpdatedStaticEPS1_bbi
jbe:__ZL77Convert_t2465617642_CustomAttributesCacheGenerator_Convert_ToByte_m2375887898P21CustomAttributesCache
oQ:__ZN11AudioSource23VirtualRedirectTransferER18StreamedBinaryReadILb0EE
IGf:_RangeInt_get_end_m4128831787
d9h:_InvokableCall_1_Find_m1741895083_gshared
Cxb:__ZN10RectOffset8TransferI19StreamedBinaryWriteILb0EEEEvRT_
fvi:__Z79RuntimeInvoker_Void_t1185182177_RuntimeObject_RuntimeObject_RectU26_t1284589061PFvvEPK10MethodInfoPvPS4_
mod:__Z25GetUnityConnectModuleSpecv
QSi:_List_1_set_Item_m2082115010_gshared
Pmg:_Encoding_GetBytes_m3735967069
SCg:_Array_Initialize_m3004991267
rRb:__ZN14GfxContextGLES43AddRenderSurfaceToDeferredFBOInvalidateListEPK17RenderSurfaceGLES
S$j:__ZN6il2cpp6icalls8mscorlib6System9Threading6Thread15Thread_internalEP12Il2CppThreadP14Il2CppDelegate
Eua:__ZN11NamedObject23VirtualRedirectTransferER14SafeBinaryRead
u$f:_Text_get_resizeTextMinSize_m1002355407
W_c:__ZNSt3__26vectorIN20TextRenderingPrivate8FontImpl13CharacterInfoE13stl_allocatorIS3_L18MemLabelIdentifier1ELi16EEE6insertENS_11__wrap_iterIPKS3_EERS9_
A5a:__ZN23PreloadManagerOperation6IsDoneEv
ECg:_Array_CreateInstance_m1027597705
VNj:__ZN6il2cpp2vm7Runtime15InvokeWithThrowEPK10MethodInfoPvPS5_
HQj:__ZNK15dense_hashtableINSt3__24pairIK10KeyWrapperINS1_IPK10MethodInfoP11Il2CppClassEEEjEES9_17ReflectionMapHashIS8_EN14dense_hash_mapIS9_jSD_NS9_14EqualsComparerINS0_8equal_toIS8_EEEENS0_9allocatorISB_EEE9SelectKeyESI_SK_E8min_sizeEjj
tXf:_Selectable_get_navigation_m3508916916
Gck:__ZN6il2cpp5utils11StringUtils11Utf16ToUtf8ERKNSt3__212basic_stringIDsNS2_11char_traitsIDsEENS2_9allocatorIDsEEEE
U2f:_MD4Managed_Decode_m4273685594
jni:__Z50RuntimeInvoker_Int64_t3736567304_Int16_t2552820387PFvvEPK10MethodInfoPvPS4_
sBj:_UnityEngineModuleAssembly__ctor_m242195730
G7a:__ZN21LightProbeProxyVolume18HasHardwareSupportEv
d2b:__ZN26LightProbeProxyVolumeCacheC2ER13BatchRendererR15RenderLoopStats
QUg:_IntPtr__ctor_m620280096
Bja:__ZN6prcoreL31inner_stretch_argb8888_bilinearEPKNS_9InnerInfoE
bzb:__Z18Transfer_BlittableI18StreamedBinaryReadILb1EELb1E8BitFieldEvRK29SerializationCommandArgumentsR31RuntimeSerializationCommandInfo
m6c:_UNITY_FT_Outline_Decompose
QTg:_Int64_System_IConvertible_ToChar_m1509243576_AdjustorThunk
xSb:__ZNK12GraphicsCaps24GetFallbackSampledFormatE14GraphicsFormat
o7i:_GeneralNames_get_IPAddresses_m4242915644
N2g:_Decimal_op_Implicit_m3873897383
AEh:_Enumerator_Dispose_m3500272053_AdjustorThunk
xhk:_GC_init_size_map
Xue:__ZL84AudioSampleProvider_t3950279772_CustomAttributesCacheGenerator_sampleFramesAvailableP21CustomAttributesCache
Hza:__Z20scripting_object_new17ScriptingClassPtr
b_d:__ZL69RuntimeArray_CustomAttributesCacheGenerator_Array_Reverse_m3714848183P21CustomAttributesCache
Cra:__ZN9Scripting5Unity11Collections39NativeMatchesParallelForLengthAttribute12CleanupProxyEv
zsh:_KeyGeneratedEventHandler_Invoke_m2527485594
_Hd:_Image_get_layoutPriority_m1290204116
JPj:__ZN24dense_hashtable_iteratorINSt3__24pairIK10KeyWrapperINS1_IPK9FieldInfoP11Il2CppClassEEEjEES9_17ReflectionMapHashIS8_EN14dense_hash_mapIS9_jSD_NS9_14EqualsComparerINS0_8equal_toIS8_EEEENS0_9allocatorISB_EEE9SelectKeyESI_SK_E30advance_past_empty_and_deletedEv
Efj:_Repetition_get_Expression_m2673886232
K8g:_Decimal__ctor_m1925875020_AdjustorThunk
pnf:_SerializationCallbacks__ctor_m3863304525
VEa:__ZN18ShadowMapJobHeaderD0Ev
k7d:__ZL59SerializationInfo_t950877179_CustomAttributesCacheGeneratorP21CustomAttributesCache
P:Math_exp
_uf:_Vector3_Min_m1803158933
Ao:FUNCTION_TABLE_iiifi
g8j:__ZN6il2cpp2os5posix13PosixAutoLockD2Ev
w6i:_TlsServerSettings_set_CertificateTypes_m2047242411
bkj:_SymmetricTransform_OFB_m3690147804
a6e:_InternalEnumerator_1_MoveNext_m3713722659_AdjustorThunk
z$c:_cff_get_advances
jFb:__ZN13MonoBehaviour9SetScriptERK4PPtrI10MonoScriptE18ScriptingObjectPtr
sZj:_RaycastHit2D_get_collider_m1549426026
tsb:__Z18Transfer_BlittableI17RemapPPtrTransferLb0E8Vector2fEvRK29SerializationCommandArgumentsR31RuntimeSerializationCommandInfo
f3j:__ZNSt3__218uninitialized_copyIPNS_4pairIK10KeyWrapperIP14Il2CppIUnknownEjEES8_EET0_T_SA_S9_
KCi:__Z77RuntimeInvoker_Void_t1185182177_Vector2U5BU5DU26_t476646542_Int32_t2950945753PFvvEPK10MethodInfoPvPS4_
Hyg:_PKCS12_get_RNG_m2649456600
adb:__ZNK10FileSystem16LastErrorMessageEv
GGi:_Array_InternalArray__Insert_TisVector3_t3722313464_m3862657277_gshared
oie:__ZL104NativeClassAttribute_t2601352714_CustomAttributesCacheGenerator_U3CQualifiedNativeNameU3Ek__BackingFieldP21CustomAttributesCache
tXa:__ZN15SerializeTraitsI13dynamic_arrayI12SpriteVertexLj0EEE19ResizeSTLStyleArrayERS2_i
kgg:_SecurityException__ctor_m1631242336
bEj:__ZN15dense_hashtableINSt3__24pairIK10KeyWrapperIPK11Il2CppClassEPKcEES6_N6il2cpp5utils11PointerHashIS3_EEN14dense_hash_mapIS6_S9_SE_NS6_14EqualsComparerINS0_8equal_toIS5_EEEENS0_9allocatorISA_EEE9SelectKeyESJ_SL_E14squash_deletedEv
Eud:_EventSystem_Update_m1662072334
Iga:__ZN13sorted_vectorIN4core12basic_stringIcNS0_20StringStorageDefaultIcEEEENSt3__24lessIS4_EE13stl_allocatorIS4_L18MemLabelIdentifier81ELi16EEE21sort_clear_duplicatesEv
grd:__ZN22UnityWebRequestManager10InitializeEv
o5a:__ZNSt3__26__treeINS_12__value_typeIN4core12basic_stringIcNS2_20StringStorageDefaultIcEEEE4PPtrI6ObjectEEENS_19__map_value_compareIS6_SA_NS_4lessIS6_EELb1EEE13stl_allocatorISA_L18MemLabelIdentifier52ELi16EEE15__emplace_multiIJRNS_4pairIS6_S9_EEEEENS_15__tree_iteratorISA_PNS_11__tree_nodeISA_PvEEiEEDpOT_
r_c:_raccess_guess_darwin_newvfs
dtb:__ZL26Transfer_SimpleNativeClassI17RemapPPtrTransfer8GradientLb1EEvRK29SerializationCommandArgumentsR31RuntimeSerializationCommandInfo
gud:_RaycasterManager_RemoveRaycasters_m3057093063
Ckc:__ZN12CachedWriter9InitWriteER15CacheWriterBase
uzc:__Z21UnsignedInt64ToStringy
TVf:_GetRaycastNonAllocCallback_BeginInvoke_m3984885848
y0e:_InternalEnumerator_1_MoveNext_m4138204635_AdjustorThunk
Qbj:_PatternCompiler_BeginLink_m1295557963
aGe:__ZL70CanvasScaler_t2767979955_CustomAttributesCacheGenerator_m_PhysicalUnitP21CustomAttributesCache
bBb:__ZN18StreamedBinaryReadILb1EE8TransferI13dynamic_arrayIiLj0EEEEvRT_PKc17TransferMetaFlags
VQg:_GuidParser_ThrowFormatException_m3223388534
cfj:_Group_GetAnchorInfo_m3730312864
YCe:__ZL50Graphic_t1660335611_CustomAttributesCacheGeneratorP21CustomAttributesCache
cdf:_KeyCollection_System_Collections_Generic_ICollectionU3CTKeyU3E_Add_m454648927_gshared
zPh:_TimeSpan_op_LessThanOrEqual_m300470010
xue:__ZL139AnimatorOverrideController_t3582062219_CustomAttributesCacheGenerator_AnimatorOverrideController_OnInvalidateOverrideController_m3380737075P21CustomAttributesCache
WTd:_ContextAttribute_Freeze_m3288175579
Hqc:__Z66Register_UnityEngine_Transform_INTERNAL_CALL_InverseTransformPointv
NFj:__ZNSt3__218uninitialized_fillIPNS_4pairIK10KeyWrapperIPK19Il2CppGenericMethodEPK26Il2CppGenericMethodIndicesEESB_EEvT_SD_RKT0_
aea:__ZZN15DirectorManager15InitializeClassEvEN41FixedUpdateDirectorFixedUpdateRegistrator7ForwardEv
LYg:_MemoryStream_get_Position_m3733941202
ddi:_ListPool_1_Clear_m2587502754_gshared
Unj:_AudioClipPlayable_Equals_m3705880618
cdc:__ZL10KeyHandleriPK23EmscriptenKeyboardEventPv
C_g:_Slot_t3975888750_marshal_pinvoke
iBk:_glLinkProgram__wrapper
ubb:__ZN18ScriptingArguments8AddInt64Ex
Mia:__ZN6prcoreL12RemapGenericI17TexFormatARGB888815TexFormatBGR888EEvPKNS_9InnerInfoE
hnb:__ZN26SinglePassStereoSupportExt19SaveStereoConstantsEv
Bfa:__ZNSt3__26vectorIP10MemoryPool13stl_allocatorIS2_L18MemLabelIdentifier76ELi16EEE21__push_back_slow_pathIRKS2_EEvOT_
CQg:_TextInfo_get_ListSeparator_m1628160079
Vze:__ZL77ExecuteEvents_t3484638744_CustomAttributesCacheGenerator_U3CU3Ef__mgU24cache6P21CustomAttributesCache
PZf:_Selectable_OnCanvasGroupChanged_m472903475
sMh:_EventWaitHandle_Reset_m3348053200
kod:__ZN28UnityConnectScriptingClasses23CallSessionStateChangedEixxbP21ScriptingExceptionPtr
C6f:_ClientContext_get_SslStream_m1583577309
z2j:__ZN6il2cpp6icalls8mscorlib6System13Globalization11CultureInfo35construct_internal_locale_from_nameEP17Il2CppCultureInfoP12Il2CppString
lvb:__ZL22Transfer_ManagedObjectI24GenerateTypeTreeTransferLb1EEvRK29SerializationCommandArgumentsR31RuntimeSerializationCommandInfo
Uei:__Z100RuntimeInvoker_Boolean_t97287965_RuntimeObject_Int32_t2950945753_RuntimeObject_UInt16U26_t2814738322PFvvEPK10MethodInfoPvPS4_
dDi:__Z56RuntimeInvoker_ILTokenInfo_t2325775114_Int32_t2950945753PFvvEPK10MethodInfoPvPS4_
Srf:_HMAC_get_BlockSizeValue_m455678067
qYb:__ZN15RenderNodeQueueC2E10MemLabelId
ePd:_ResourceEnumerator_FillCache_m1661715061
Z0h:_ReadOnlyCollection_1_System_Collections_IList_IndexOf_m3664838805_gshared
Abd:__ZL17CleanupModule_TLSv
l9d:__ZL72SecuritySafeCriticalAttribute_t3505979402_CustomAttributesCacheGeneratorP21CustomAttributesCache
Zj:_emscripten_set_main_loop_timing
Ouf:_Bounds_get_min_m3755135869
Y4g:_Convert_ToUInt16_m3523269149
Auf:_Bounds_get_center_m1418449258
qPb:__ZN14DataBufferGLES12RecordRenderEv
Dvd:_ExecuteEvents_get_endDragHandler_m2879610446
t9b:__ZN14ImageReference10FlipImageYEv
qBj:_UsedByNativeCodeAttribute__ctor_m2647015777
mya:__ZN21ScalableBufferManager20GetHeightScaleFactorEv
bgc:__ZNSt3__26vectorIN9ShaderLab20SerializedSubProgram15VectorParameterENS_9allocatorIS3_EEE8__appendEj
mL:__ZN4FMOD3DSP9setBypassEb
Vcc:__Z19NormalizeWheelInputf
EFd:_Graphic_DoMeshGeneration_m3548487693
Ubc:__Z29StdTemplateConversionFunctionIsaEbPvR14SafeBinaryRead
LH:__ZN11KeyframeTplIfE8TransferI14SafeBinaryReadEEvRT_
IA:__ZNK4PPtrI13MonoBehaviourEcvPS0_Ev
bdj:_Repetition__ctor_m1672362629
kTc:__Z29Transfer_Blittable_ArrayFieldI8JSONReadhEvRT_R9ArrayInfoRK23StaticTransferFieldInfo
ohg:_SecurityFrame_ToString_m339310712_AdjustorThunk
dJd:_TypeBuilder_create_runtime_class_m2581270900
Yjc:__ZN11MonoManager25GetImageFromAssemblyIndexEi
C_e:_InternalEnumerator_1_get_Current_m3008260692_gshared
Vlk:__ZN6il2cpp2os20ThreadLocalValueImpl8SetValueEPv
oAa:__ZN22RenderingCommandBuffer20CleanupCommandBufferEv
P2g:_Decimal_op_Implicit_m2299919277
_Nc:__Z18Transfer_BlittableI9JSONWriteLb1EtEvRK29SerializationCommandArgumentsR31RuntimeSerializationCommandInfo
gKe:_UnexceptionalStreamReader_ReadToEnd_m920589220
E6g:_DateTime_System_IConvertible_ToType_m1242864300
zjg:_String_IndexOf_m1298810678
sk:___syscall85
nfd:__ZN2UI14CanvasRenderer18UpdateTRSHierarchyEb
dNi:_Mesh_GetAllocArrayFromChannel_TisVector3_t3722313464_m2332439905_gshared
vYb:__ZNSt3__26__sortIRPFbP10GUIElementS2_EPS2_EEvT0_S7_T_
Ktc:__ZN16GraphicsSettings12CleanupClassEv
JSe:_ConstructorBuilder_GetILGenerator_m1750792206
Okg:_EncoderFallback_get_ReplacementFallback_m818398284
Bak:__ZN6il2cpp2os6Thread19DetachCurrentThreadEv
Zud:_EventTrigger_OnBeginDrag_m4203438710
wCj:__ZN6il2cpp2vmL21SetupInterfacesLockedEP11Il2CppClassRKNS_2os12FastAutoLockE
Nnb:__ZN11MonoManager23VirtualRedirectTransferER24GenerateTypeTreeTransfer
tKi:_Dictionary_2_Do_CopyTo_TisRuntimeObject_TisRuntimeObject_m2344529027_gshared
LB:__ZN23AnimationPlayableOutput17SetSourcePlayableEP8Playable
P9j:__ZN6il2cpp2gc16GarbageCollector22MakeDescriptorForArrayEv
cEi:__Z37RuntimeInvoker_UILineInfo_t4195266810PFvvEPK10MethodInfoPvPS4_
Lwf:_CullingGroup_Dispose_m782801025
Dvh:_Dictionary_2_System_Collections_IDictionary_GetEnumerator_m529247385_gshared
cra:__ZN9Scripting11UnityEngine9Component12CleanupProxyEv
CY:__ZN11UnityEngine15CloudWebService14DataDispatcher15SetupWebRequestEv
kAh:_EqualityComparer_1_get_Default_m1038871402_gshared
vld:__ZN11UnityEngine15PlatformWrapper13GetShaderCapsEv
E4b:__ZNSt3__211__sift_downIR26RenderDeferredObjectSorterP16RenderObjectDataEEvT0_S5_T_NS_15iterator_traitsIS5_E15difference_typeES5_
VUe:_GenericTypeParameterBuilder_IsDefined_m98179866
wrh:_KeyPairPersistence_get_MachinePath_m3812267291
X$g:_Stack_Peek_m2216191248
r6g:_DateTime_System_IConvertible_ToDecimal_m1044850612_AdjustorThunk
nuc:__ZN21FixedBehaviourManager6UpdateEv
bqc:__ZN9Transform9SetParentEPS_NS_15SetParentOptionE
pCa:__ZN19ShaderPropertySheet8SetFloatEN9ShaderLab16FastPropertyNameEfNS_8SetFlagsE
c6a:__ZN19RuntimeSceneManager24BeginIntegrateMainThreadEP10UnityScene
e9f:_TlsServerCertificate_ProcessAsSsl3_m1306583193
obk:__ZNSt3__2plIcNS_11char_traitsIcEENS_9allocatorIcEEEENS_12basic_stringIT_T0_T1_EERKS9_S6_
eJe:_StringReader_CheckObjectDisposedException_m3796163530
vSh:_UInt32_System_IConvertible_ToInt16_m1659441601
mgc:__ZN9ShaderLab20SerializedSubProgramaSERKS0_
Vrk:_roundf
BFg:_Byte_System_IConvertible_ToSingle_m324484566_AdjustorThunk
N0g:_Decimal_op_Explicit_m2848387298
bDh:_KeyValuePair_2_ToString_m1238786018_gshared
ev:__ZN8Animator15SetPrepareStageEv
fJ:__ZN8AnimatorC2E10MemLabelId18ObjectCreationMode
xCj:__ZN6il2cpp2vmL24SetupTypeHierarchyLockedEP11Il2CppClassRKNS_2os12FastAutoLockE
Vig:_String_Clone_m3573869765
ddc:__ZL11TextHandleriPK23EmscriptenKeyboardEventPv
ijf:_SoapFieldAttribute_get_XmlElementName_m2203304026
jVb:__ZNSt3__26vectorIP17FileSystemHandlerNS_9allocatorIS2_EEE21__push_back_slow_pathIRKS2_EEvOT_
i_c:_destroy_face
wxk:_glBlendEquationSeparate__wrapper
hmd:__ZNSt3__26vectorIPN11UnityEngine15CloudWebService14CloudEventInfoE13stl_allocatorIS4_L18MemLabelIdentifier88ELi16EEE21__push_back_slow_pathIS4_EEvOT_
OVc:__ZN5physx19PxAllocatorCallbackD2Ev
Wik:__ZN6il2cpp6icalls8mscorlib6System8Security12Cryptography24RNGCryptoServiceProvider13RngInitializeEP11Il2CppArray
Nge:__ZL68UsedByNativeCodeAttribute_t1703770351_CustomAttributesCacheGeneratorP21CustomAttributesCache
xQ:__ZN20SoundChannelInstance7setMuteEb
afi:__Z81RuntimeInvoker_Void_t1185182177_RuntimeObject_Int32_t2950945753_Int32_t2950945753PFvvEPK10MethodInfoPvPS4_
eHa:__ZN4PPtrI5LightE8TransferI19StreamedBinaryWriteILb0EEEEvRT_
G6g:_DateTimeUtils_ToString_m1782212840
hPi:_List_1__cctor_m972674764_gshared
qPe:_NumberFormatter_NumberToString_m3906556024
cAb:__Z19TransferField_ArrayI18StreamedBinaryReadILb1EE27Converter_SimpleNativeClassI17AnimationCurveTplIfEEEvRK23StaticTransferFieldInfoR31RuntimeSerializationCommandInfoRT0_
IPb:__ZN18GfxFramebufferGLES22MakeCurrentFramebufferENS_7BuiltinE
iek:__ZN6il2cpp2vm12MarshalAlloc4FreeEPv
cGa:__ZN12CachedReader4ReadEPvj
BOd:_TypeFilter_EndInvoke_m998903841
kyd:_StandaloneInputModule_ProcessMouseEvent_m2923582521
Lvh:_KeyValuePair_2__ctor_m1794021352_gshared
PMd:_MonoMethod_ShouldPrintFullName_m1607666412
$0b:__Z24CalculateLightShadowFadeRK6CamerafffR8Vector4f
k6:__ZN19RuntimeSceneManagerD2Ev
PDf:_PlayerConnectionInternal__ctor_m2406218802
TMg:_CCGregorianCalendar_GetMonth_m1547203696
MEh:_Enumerator_Dispose_m786980821_AdjustorThunk
SZ:__ZN11UnityEngine15CloudWebService25WebRequestDownloadHandler17OnCompleteContentEv
yPa:__ZN6prcore17GetIntegerBlitterE13TextureFormatS0_N14ImageReference8BlitModeE
Ygk:_GC_print_block_descr
$Yi:_Collection_1_IndexOf_m934463944_gshared
gma:__ZL51__ManagedRegistrationHelperFunction_ResourceRequestPv
z1d:__ZL51Directory_t828876208_CustomAttributesCacheGeneratorP21CustomAttributesCache
uDg:_SimpleEnumerator_Reset_m2182001888
Zzi:__Z86RuntimeInvoker_Int32_t2950945753_Vector2_t2156229523_Vector2_t2156229523_RuntimeObjectPFvvEPK10MethodInfoPvPS4_
FDc:__ZN9BlobWrite14ReduceCopyImplERK14ReduceCopyDataj
ujh:_Array_LastIndexOf_TisRuntimeObject_m1677937501_gshared
rU:__ZN11AudioSource18IsPlayingScriptingEv
orh:_KeyBuilder_IV_m2230195376
lwk:_glShaderSource__wrapper
Qeb:__ZN25MultiBlocksMemoryFileData17AdjustBlocksCountEj
C$j:__ZNSt3__214__split_bufferIN6il2cpp2vm22EmbeddedResourceRecordERNS_9allocatorIS3_EEED2Ev
pYc:__ZN13TextRendering4Font8TransferI24GenerateTypeTreeTransferEEvRT_
vjb:__ZN9GfxDevice15EndProfileEventEPN9profiling6MarkerE
Fmc:__Z27CullingGroup_CUSTOM_DisposeP12Il2CppObject
x8e:_Comparer_1__ctor_m319670016_gshared
Am:_glStencilMask
abk:__ZN6il2cpp2os10ThreadImpl16GetCurrentThreadEv
Fog:_TypeConverterAttribute_GetHashCode_m948291090
Xcc:__ZN15GUIEventManager10QueueEventERK10InputEvent
n_i:_Collection_1_Clear_m1300437781_gshared
pKj:_AnalyticsEvent_OnValidationFailed_m2609604624
Zve:__ZL62EventType_t3528516131_CustomAttributesCacheGenerator_mouseMoveP21CustomAttributesCache
PPd:_DecimalConstantAttribute__ctor_m3583301917
T0i:_Collection_1_System_Collections_ICollection_get_IsSynchronized_m1640823718_gshared
ygk:_GC_push_conditional_with_exclusions
aWd:_MethodCallDictionary__ctor_m2167303393
y7c:_Compute_Point_Displacement
vbe:__ZL80Convert_t2465617642_CustomAttributesCacheGenerator_Convert_ToDecimal_m2858622624P21CustomAttributesCache
cgk:_GC_make_disappearing_links_disappear
_ok:_strrchr
vwf:_Component_GetComponentInParent_m779177818
ASd:__ZN21InterfaceFuncInvoker1IP8String_tS1_E6InvokeEjP11Il2CppClassP12Il2CppObjectS1_
Fth:_Dictionary_2_System_Collections_ICollection_get_SyncRoot_m2069913662_gshared
Myd:_UIBehaviour_IsDestroyed_m3033055982
Vpi:__Z109RuntimeInvoker_Void_t1185182177_RuntimeObject_RuntimeObject_SByte_t1669577662_Int32_t2950945753_RuntimeObjectPFvvEPK10MethodInfoPvPS4_
iMf:_Enumerator_Reset_m39541243
CPf:_InputField_get_readOnly_m3111985574
tHa:__ZN14RenderSettings27UpdateIndirectSpecularColorEv
gne:__ZL59RectOffset_t1369453676_CustomAttributesCacheGenerator_m_PtrP21CustomAttributesCache
ZAf:_Logger_get_logHandler_m1335645353
I2a:__ZN14PlayerSettings8TransferI18StreamedBinaryReadILb0EEEEvRT_
NMj:__ZN6il2cpp6icalls8mscorlib6System8MonoType16GetMethodsByNameEP20Il2CppReflectionTypeP12Il2CppStringibS5_
B6d:__ZL73ObjRef_t2141158884_CustomAttributesCacheGenerator_U3CU3Ef__switchU24map26P21CustomAttributesCache
TAe:__ZL102PointerEventData_t3807901092_CustomAttributesCacheGenerator_PointerEventData_set_pointerId_m1888344330P21CustomAttributesCache
lve:__ZL88AudioClip_t3680889665_CustomAttributesCacheGenerator_AudioClip_get_ambisonic_m3815052287P21CustomAttributesCache
YSf:_U3CDelayedSetDirtyU3Ec__Iterator0__ctor_m3936335621
pVa:__ZN4PPtrI10GameObjectE8TransferI14SafeBinaryReadEEvRT_
Ape:__ZL106PlayableAsset_t3219022681_CustomAttributesCacheGenerator_PlayableAsset_Internal_CreatePlayable_m2550417712P21CustomAttributesCache
Wbe:__ZL78Convert_t2465617642_CustomAttributesCacheGenerator_Convert_ToSByte_m2486156346P21CustomAttributesCache
M3i:_RijndaelTransform__cctor_m2439033240
OJb:__ZNSt3__27__sort3IRNS_4lessIN22BuiltinResourceManager8ResourceEEEPS3_EEjT0_S7_S7_T_
gs:__ZN13dynamic_arrayIPN11UnityEngine9Animation23CachedComponentBindingsELj0EE18resize_initializedEjRKS3_12ResizePolicy
E_d:__ZL175U3CGetEnumeratorU3Ec__Iterator0_t1202911786_CustomAttributesCacheGenerator_U3CGetEnumeratorU3Ec__Iterator0_System_Collections_Generic_IEnumeratorU3CTU3E_get_Current_m322251035P21CustomAttributesCache
U8c:_ps_hints_t2mask
Z4h:_Comparison_1__ctor_m3138326461_gshared
Ueh:_Array_InternalArray__ICollection_Remove_TisMonoResource_t4103430009_m238733686_gshared
K_f:_Slider_Set_m1476104429
IOd:__ZN28GenericInterfaceFuncInvoker1IP10Assembly_tP28ResolveEventArgs_t1779456501E6InvokeEPK10MethodInfoP12Il2CppObjectS3_
qHd:_Image_set_fillClockwise_m2210525152
x0a:__ZN10BlendShape8TransferI19StreamedBinaryWriteILb0EEEEvRT_
nmb:__ZNSt3__26vectorIN20GpuProgramParameters14ConstantBufferENS_9allocatorIS2_EEE21__push_back_slow_pathIRKS2_EEvOT_
BS:__Z32TransferEnumWithNameForceIntSizeI14SafeBinaryReadN10SampleClip8LoadTypeEEvRT_RT0_PKc17TransferMetaFlags
iEf:_PlayerConnection_DisconnectedCallback_m1697017309
x1a:__Z19GetTimeSinceStartupv
QHd:_Image_AddQuad_m2161647989
Utd:_BaseInputModule_DeactivateModule_m856719157
Sak:__ZN6il2cpp2os10ThreadImpl11SetPriorityENS0_14ThreadPriorityE
jGh:_Enumerator_System_Collections_IEnumerator_Reset_m2953002685_gshared
Tgi:__Z50RuntimeInvoker_Int64_t3736567304_Int32_t2950945753PFvvEPK10MethodInfoPvPS4_
o8c:_TT_Load_Composite_Glyph
yjb:__ZN9GfxDevice16DeleteTimerQueryEP13GfxTimerQuery
mWi:_List_1_Insert_m1695211546_gshared
vs:__ZL51__ManagedRegistrationHelperFunction_ScaleConstraintPv
ivi:__Z49RuntimeInvoker_Void_t1185182177_Color_t2555686324PFvvEPK10MethodInfoPvPS4_
JLa:__ZN9ShaderLab11shaderprops9GetTexEnvEPK19ShaderPropertySheetS3_NS_16FastPropertyNameE16TextureDimensionb
QQi:_List_1_Sort_m3232912161_gshared
l$b:__ZN29RenderNodeQueuePrepareContextC2Ev
OXj:_il2cpp_gc_disable
Jwg:_IntStack_t2189327687_marshal_pinvoke_back
vhc:__ZN9ShaderLab20SerializedSubProgram16TextureParameter8TransferI24GenerateTypeTreeTransferEEvRT_
Ira:__ZN9Scripting5Unity11Collections8LowLevel6Unsafe29NativeSetThreadIndexAttribute12CleanupProxyEv
Ief:__ZN21InterfaceFuncInvoker1I27DictionaryEntry_t3123975638bE6InvokeEjP11Il2CppClassP12Il2CppObjectb
ujk:__ZN6il2cpp2os11MutexHandle4WaitEb
uhb:__ZN9GfxDevice19SaveStereoConstantsEv
tjk:__ZN6il2cpp2os11MutexHandle4WaitEj
Qmc:__ZL34GetComponentsImplementationRecurseILb1ELi1ELi1EEbR10GameObjectbRK17CompareParametersRK39GetComponentsImplementation_ReturnValue
bii:__Z114RuntimeInvoker_Boolean_t97287965_RuntimeObject_RuntimeObject_Int32_t2950945753_Int32_t2950945753_Int32_t2950945753PFvvEPK10MethodInfoPvPS4_
dSe:_AssemblyBuilder_GetTypes_m3415680380
_ha:__ZN6prcoreL17RemapGenericFloatI15TexFormatRGHalf18TexFormatARGBFloatEEvPKNS_9InnerInfoE
Skj:_AnalyticsEventParam_get_groupID_m569309506
oHc:__ZN18CrashReportManager23VirtualRedirectTransferER14SafeBinaryRead
NJa:__ZNK13RenderTexture13GetDataHeightEv
KHb:__Z18SimulateMouseInputi
hXb:__ZN13RenderManager23AddRemoveCamerasDelayedEv
qK:__ZN23PreloadManagerOperation11GetPriorityEv
oSf:_LayoutElement_OnEnable_m1760066426
fid:__ZN11UnityEngine9Analytics15AnalyticsConfigC2Ev
CMc:__ZN5Unity9rapidjson6WriterI16TempBufferWriterNS0_4UTF8IcEES4_13JSONAllocatorE11WriteUint64Ey
cEg:_BitConverter__cctor_m3841343255
u0g:_Decimal_Compare_m3062820418
taj:_IntervalCollection_GetMetaCollection_m4029522214
Uud:_EventTrigger_OnDeselect_m1919608102
Xwj:_TextGenerator_get_characterCount_m864136654
auf:_AsyncOperation_t1445031843_marshal_pinvoke_cleanup
BOh:_TimeSpan__ctor_m2047388489_AdjustorThunk
$7b:__ZN13RenderTexture8SetWidthEi
wsc:__ZNK28RectTransformPropertyBinding12SetPPtrValueERKN11UnityEngine9Animation10BoundCurveEi
bKb:__ZN18FrameTimingManager18GetVSyncsPerSecondEv
jBb:__Z18Transfer_BlittableI18StreamedBinaryReadILb0EELb0EfEvRK29SerializationCommandArgumentsR31RuntimeSerializationCommandInfo
A_a:__ZN10MeshFilterD0Ev
Jba:__ZN22BuiltinResourceManager16StaticInitializeEPv
XZe:_InternalEnumerator_1__ctor_m1341209356_AdjustorThunk
s$i:_Collection_1_System_Collections_ICollection_CopyTo_m1516601228_gshared
tca:__ZN23DefaultMeshVertexFormatC2E18VertexChannelsInfo
s0i:_Collection_1_CopyTo_m4278237485_gshared
PRg:_Int16_System_IConvertible_ToDouble_m1661805412
r2i:_Collection_1_Add_m3860636938_gshared
aqj:__ZL23UnresolvedVirtualCall_5P12Il2CppObjectsPK10MethodInfo
qG:__ZN4PPtrI6AvatarE8TransferI19StreamedBinaryWriteILb0EEEEvRT_
iIh:_List_1_Insert_m4050947056_gshared
X3:__ZN9ShaderLab16FastPropertyName4InitEPKc
H1e:_InternalEnumerator_1__ctor_m39232262_AdjustorThunk
Qsi:__Z48RuntimeInvoker_OperatingSystemFamily_t1868066375PFvvEPK10MethodInfoPvPS4_
rae:__ZL61Thread_t2300836069_CustomAttributesCacheGenerator_local_slotsP21CustomAttributesCache
RKa:__ZN6ObjectC2E10MemLabelId18ObjectCreationMode
qXh:_Collection_1_System_Collections_IEnumerable_GetEnumerator_m3596816767_gshared
r2e:_InternalEnumerator_1_get_Current_m3911557813_AdjustorThunk
_kd:__ZN11UnityEngine15PlatformWrapper19GetPhysicalMemoryMBEv
Vx:__ZN17AnimationPlayable17GetAnimationClipsER13dynamic_arrayIP13AnimationClipLj0EE
gGg:_Char_System_IConvertible_ToByte_m2347554595_AdjustorThunk
QRj:__ZNK15dense_hashtableINSt3__24pairIK10KeyWrapperINS1_IPK12PropertyInfoP11Il2CppClassEEEjEES9_17ReflectionMapHashIS8_EN14dense_hash_mapIS9_jSD_NS9_14EqualsComparerINS0_8equal_toIS8_EEEENS0_9allocatorISB_EEE9SelectKeyESI_SK_E12test_deletedERK30dense_hashtable_const_iteratorISB_S9_SD_SM_SI_SK_E
Vme:__ZL59TooltipAttribute_t3957072629_CustomAttributesCacheGeneratorP21CustomAttributesCache
JXa:__ZN10VertexData8TransferI17RemapPPtrTransferEEvRT_
oJa:__ZN13RenderTexture9SetMipMapEb
sEj:__ZN15dense_hashtableINSt3__24pairIK10KeyWrapperIPK11Il2CppClassEPKcEES6_N6il2cpp5utils11PointerHashIS3_EEN14dense_hash_mapIS6_S9_SE_NS6_14EqualsComparerINS0_8equal_toIS5_EEEENS0_9allocatorISA_EEE9SelectKeyESJ_SL_E13set_empty_keyERKSA_
jVc:__ZN9Scripting11UnityEngine14ContactPoint2D9InitProxyEv
Ukg:_String_CreateString_m860434552
Bea:__Z18GetDirectorManagerv
Yib:__ZN9GfxDevice14InsertCPUFenceEv
i4d:__ZL107CriticalFinalizerObject_t701527852_CustomAttributesCacheGenerator_CriticalFinalizerObject__ctor_m3245424448P21CustomAttributesCache
xTg:_Int32_Equals_m2976157357_AdjustorThunk
Upc:__Z38Transform_CUSTOM_INTERNAL_get_rotationP12Il2CppObjectP11Quaternionf
fjf:_SoapAttribute_get_XmlNamespace_m859394681
PQj:__ZNK15dense_hashtableINSt3__24pairIK10KeyWrapperINS1_IPK10MethodInfoP11Il2CppClassEEEjEES9_17ReflectionMapHashIS8_EN14dense_hash_mapIS9_jSD_NS9_14EqualsComparerINS0_8equal_toIS8_EEEENS0_9allocatorISB_EEE9SelectKeyESI_SK_E5beginEv
iaj:_X509ExtensionCollection_System_Collections_IEnumerable_GetEnumerator_m1475785462
bOb:__ZN7ApiGLES19UploadBufferSubDataEjN2gl12BufferTargetEllPKv
wzj:_SkeletonBone_t4134054672_marshal_pinvoke_cleanup
je:_glFramebufferTextureLayer
Uga:__ZNSt3__216__rotate_forwardINS_11__wrap_iterIPN4core12basic_stringIcNS2_20StringStorageDefaultIcEEEEEEEET_S9_S9_S9_
NMf:_Vector2_GetHashCode_m3916089713
rca:__ZdaPv
Izg:_SmallXmlParserException__ctor_m1976648878
mNe:_MulticastDelegate_Equals_m2502840627
Ydg:_SymmetricAlgorithm_set_KeySize_m3805756466
hIe:__ZL70ValueProperty_t1868393739_CustomAttributesCacheGenerator_m_CustomValueP21CustomAttributesCache
FFg:_Byte_System_IConvertible_ToUInt32_m1049546902_AdjustorThunk
Zqi:__Z53RuntimeInvoker_Double_t594665363_Interval_t1802865632PFvvEPK10MethodInfoPvPS4_
YJb:__Z21InitializeBatchedJobsv
Fxj:_CanvasGroup_get_blocksRaycasts_m1805542303
Gcg:_SHA1Internal_ProcessBlock_m1991889327
dqb:__Z19TransferField_ArrayI14SafeBinaryRead27Converter_SimpleNativeClassI8GUIStyleEEvRK23StaticTransferFieldInfoR31RuntimeSerializationCommandInfoRT0_
_Db:__ZN9TextAsset23VirtualRedirectTransferER19StreamedBinaryWriteILb0EE
M2j:__ZN15dense_hashtableINSt3__24pairIK10KeyWrapperIP14Il2CppIUnknownEjEES5_N6il2cpp5utils11PointerHashIS3_EEN14dense_hash_mapIS5_jSB_NS5_14EqualsComparerINS0_8equal_toIS4_EEEENS0_9allocatorIS7_EEE9SelectKeyESG_SI_ED2Ev
WIi:_Array_Sort_TisRuntimeObject_TisRuntimeObject_m1685639929_gshared
djk:__ZN6il2cpp5utils10MemoryPoolC2Ev
OGa:__ZN14RenderSettings5ResetEv
qkc:__ZN6Sprite9BindAtlasERK4PPtrI11SpriteAtlasE
UMc:__ZN5Unity9rapidjson12GenericValueINS0_4UTF8IcEE13JSONAllocatorE10FindMemberIS4_EENS0_21GenericMemberIteratorILb0ES3_S4_EERKNS1_IS3_T_EE
n2e:_InternalEnumerator_1_System_Collections_IEnumerator_get_Current_m3892960115_AdjustorThunk
Ojc:__ZN9ShaderLabL18AddPropertyToArrayERK19ShaderPropertySheetR13dynamic_arrayIiLj0EERKNS_8FloatValE
b1j:__ZNSt3__212basic_stringIDsNS_11char_traitsIDsEENS_9allocatorIDsEEE6appendEPKDsj
Xjj:_SymmetricTransform_Finalize_m4129642865
YHg:_ArrayList_Clone_m2682741233
csf:_HMAC_HashCore_m3684104066
nod:__Z13RegisterClassI20UnityConnectSettingsEvPKc
o5h:__ZN28GenericInterfaceFuncInvoker2Ii20UIVertex_t4057497605S0_E6InvokeEPK10MethodInfoP12Il2CppObjectS0_S0_
jMc:__ZN5Unity9rapidjson13GenericReaderINS0_4UTF8IcEES3_13JSONAllocatorE11ParseNumberILj1ENS0_25GenericInsituStringStreamIS3_EENS0_15GenericDocumentIS3_S4_S4_EEEEvRT0_RT1_
JZd:__ZL88RuntimeArray_CustomAttributesCacheGenerator_Array_CreateInstance_m1027597705____lengths1P21CustomAttributesCache
U1i:_Collection_1_RemoveItem_m2911050674_gshared
Sei:__Z79RuntimeInvoker_UInt16_t2177724958_RuntimeObject_Int32_t2950945753_RuntimeObjectPFvvEPK10MethodInfoPvPS4_
Mak:__ZN6il2cpp2os10ThreadImplD2Ev
Jme:__ZL56ResetInputAxis_t866062302_CustomAttributesCacheGeneratorP21CustomAttributesCache
BQg:_TextInfo_System_Runtime_Serialization_IDeserializationCallback_OnDeserialization_m1492046432
hNc:__ZN8Gradient8TransferI9JSONWriteEEvRT_
X6a:__ZN21RendererUpdateManager18OncePerFrameUpdateER13RendererScene
opj:_AudioSource_set_clip_m31653938
Sxe:__ZL81TextEditor_t2759855366_CustomAttributesCacheGenerator_TextEditor__ctor_m242049450P21CustomAttributesCache
z0g:_Convert_ToBoolean_m2833621053
Mua:__ZNK12TLSAllocatorI14StackAllocatorE22GetAllocatedMemorySizeEv
Dfe:__ZL62WebHeaderCollection_t1942268960_CustomAttributesCacheGeneratorP21CustomAttributesCache
Ysa:__ZN17RemapPPtrTransfer12PushMetaFlagE17TransferMetaFlags
Bzh:_EqualityComparer_1_System_Collections_IEqualityComparer_GetHashCode_m2138064395_gshared
ER:__ZNK7WeakPtrI20SoundChannelInstanceE10SharedData9GetRawPtrEv
Mbb:__ZN12HandlerChain4NameEv
$Bd:_FloatTween_t1274330004_marshal_pinvoke
aSg:_Int16_System_IConvertible_ToType_m3672347013_AdjustorThunk
Urb:__Z29Transfer_Blittable_ArrayFieldI14SafeBinaryReadN4math12int3_storageEEvRT_R9ArrayInfoRK23StaticTransferFieldInfo
hTg:_Int32_System_IConvertible_ToType_m3009233912_AdjustorThunk
HSg:_Int16_ToString_m2013897809
GAi:__Z60RuntimeInvoker_Int32_t2950945753_ResourceCacheItem_t51292791PFvvEPK10MethodInfoPvPS4_
$gg:_String_Substring_m2848979100
Ffd:__Z44Register_UnityEngine_CanvasRenderer_get_cullv
yBj:__ZN15dense_hashtableINSt3__24pairIK10KeyWrapperIPK22Il2CppGenericParameterEP11Il2CppClassEES6_N6il2cpp5utils11PointerHashIS4_EEN14dense_hash_mapIS6_S9_SE_NS6_14EqualsComparerINS0_8equal_toIS5_EEEENS0_9allocatorISA_EEE9SelectKeyESJ_SL_ED2Ev
h8h:__ZN23GenericVirtFuncInvoker1Ib19Vector4_t3319028937E6InvokeEPK10MethodInfoP12Il2CppObjectS0_
Wgg:_SecurityException_get_PermissionType_m2237538728
ucc:__Z29StdTemplateConversionFunctionIbbEbPvR14SafeBinaryRead
Ckd:__ZN11UnityEngine7Connect17XRDeviceInfoEvent12XRDeviceInfoD2Ev
gob:__Z44InitializeTransferFunctionScriptingTraitsForI17RemapPPtrTransferEvR31TransferFunctionScriptingTraits
htc:__ZNSt3__26vectorI16MessageForwarder13stl_allocatorIS1_L18MemLabelIdentifier7ELi8EEE6resizeEj
Jtg:_X509Chain_SelectBestFromCollection_m1068759221
ekj:_SymmetricTransform_TransformBlock_m851059707
SYd:__ZL68IntPtr_t_CustomAttributesCacheGenerator_IntPtr_ToPointer_m4157623054P21CustomAttributesCache
IHb:__Z11StringToKeyRKN4core12basic_stringIcNS_20StringStorageDefaultIcEEEE
JXi:_Enumerator_System_Collections_IEnumerator_Reset_m2261065994_AdjustorThunk
AYf:_ScrollRect_get_verticalNormalizedPosition_m3693218937
b6a:__ZN18LoadSceneOperation21MustCompleteNextFrameEv
M_f:_Slider_UpdateDrag_m1102107039
_Md:_MonoMethodInfo_get_method_info_m88651774
XT:__ZNK12AudioManager16GetAudioListenerEv
TSg:_Int32_System_IConvertible_ToDateTime_m1824716955
Lth:_Dictionary_2_System_Collections_Generic_ICollectionU3CSystem_Collections_Generic_KeyValuePairU3CTKeyU2CTValueU3EU3E_CopyTo_m331407443_gshared
Tof:_RuntimeTypeHandle__ctor_m3315980708_AdjustorThunk
Q8d:__ZL69IIdentityPermissionFactory_t3268650966_CustomAttributesCacheGeneratorP21CustomAttributesCache
kxj:_Canvas_set_overrideSorting_m4088794420
E7b:__ZNSt3__26vectorI11CameraStackNS_9allocatorIS1_EEE8__appendEj
txh:_DefaultComparer_Equals_m2585095694_gshared
YAf:_Logger_set_filterLogType_m3622751173
nnf:__ZN25GenericVirtActionInvoker1I28StreamingContext_t3711869237E6InvokeEPK10MethodInfoP12Il2CppObjectS0_
Nhi:__Z172RuntimeInvoker_Void_t1185182177_RuntimeObject_CodePointIndexerU26_t4059079874_ByteU2AU26_t57153304_ByteU2AU26_t57153304_CodePointIndexerU26_t4059079874_ByteU2AU26_t57153304PFvvEPK10MethodInfoPvPS4_
Ew:__ZN7mecanim9animation12GetHumanPoseERKNS0_18ClipMuscleConstantEPKNS0_10ValueDeltaERNS_5human9HumanPoseE
Eid:__ZN11UnityEngine9Analytics15UserCustomEvent12CustomParams6InsertEPKcRNS1_11CustomValueE
yy:__ZN22AnimationMixerPlayable17ProcessRootMotionEP35AnimationPlayableEvaluationConstantP32AnimationPlayableEvaluationInputP33AnimationPlayableEvaluationOutput
Hxb:__Z29Transfer_Blittable_ArrayFieldI19StreamedBinaryWriteILb0EEjEvRT_R9ArrayInfoRK23StaticTransferFieldInfo
R9:__Z13GetFileSystemv
wpj:_AudioSourceExtension_ExtensionUpdate_m2790353999
nca:__ZN13RuntimeStaticI15GUIEventManagerLb0EE16StaticInitializeEPv
lDf:_MonoBehaviour_IsObjectMonoBehaviour_m2134950949
tCb:__ZL12InvokeMethodI18StreamedBinaryReadILb0EEEvRK29SerializationCommandArgumentsR31RuntimeSerializationCommandInfo
oma:__ZL45__ManagedRegistrationHelperFunction_Texture2DPv
PUh:_Version_CompareTo_m3146217210
L8f:_TlsClientCertificate_FindParentCertificate_m3844441401
Tfj:_Uri_ParseAsUnixAbsoluteFilePath_m1476768041
Rkh:_Array_InternalArray__ICollection_CopyTo_TisKeyValuePair_2_t71524366_m1056941380_gshared
VPh:_Type_get_IsClass_m589177581
yhe:__ZL62NativeTypeAttribute_t2250406315_CustomAttributesCacheGeneratorP21CustomAttributesCache
sAb:__Z29Transfer_Blittable_ArrayFieldI18StreamedBinaryReadILb1EE5RectTIfEEvRT_R9ArrayInfoRK23StaticTransferFieldInfo
tnb:__ZN19ShaderPropertySheet9SetMatrixEN9ShaderLab16FastPropertyNameERK10Matrix4x4fNS_8SetFlagsE
IRa:__Z29GetTextureSizeAllowedMultiple13TextureFormat
t9g:_Decimal_Subtract_m835601464
zVb:__ZZ23InitPlayerLoopCallbacksvEN52InitializationAsyncUploadTimeSlicedUpdateRegistrator7ForwardEv
hqi:__Z73RuntimeInvoker_Boolean_t97287965_RuntimeObject_IPv6AddressU26_t3285609463PFvvEPK10MethodInfoPvPS4_
Xug:_X509ExtensionCollection_get_IsSynchronized_m2607599544
zOh:_TimeSpan__ctor_m3689759052_AdjustorThunk
ZWj:_il2cpp_array_element_size
zXd:__ZL62ComVisibleAttribute_t1362837655_CustomAttributesCacheGeneratorP21CustomAttributesCache
cRi:_List_1_System_Collections_IEnumerable_GetEnumerator_m1824431956_gshared
Gva:__ZNSt3__26__treeINS_12__value_typeIN4core12basic_stringIcNS2_20StringStorageDefaultIcEEEEjEENS_19__map_value_compareIS6_S7_NS_4lessIS6_EELb1EEE13stl_allocatorIS7_L18MemLabelIdentifier7ELi16EEE25__emplace_unique_key_argsIS6_JNS_4pairIS6_jEEEEENSH_INS_15__tree_iteratorIS7_PNS_11__tree_nodeIS7_PvEEiEEbEERKT_DpOT0_
GIf:_RectTransform_INTERNAL_set_sizeDelta_m188783163
Vf:_glCheckFramebufferStatus
Aik:__ZN6il2cpp2os11EventHandle4WaitEv
bXe:_U3CGetEnumeratorU3Ec__Iterator0_System_Collections_Generic_IEnumeratorU3CTU3E_get_Current_m9057020_gshared
X5:__Z43scripting_class_get_method_from_name_filter17ScriptingClassPtrPKciN24ScriptingMethodFiltering18MethodSearchFilterEPK16ScriptingTypePtr
Vfd:__Z13RegisterClassIN2UI6CanvasEEvPKc
B7:__ZN4core8hash_setINS_4pairIKi17ThreadedAwakeDataLb0EEENS_9hash_pairINS_4hashIiEES2_S3_EENS_10equal_pairINSt3__28equal_toIiEES2_S3_EEE4growEv
E$:__ZN19CloudServiceHandler20StartEventDispatcherERKN11UnityEngine15CloudWebService18CloudServiceConfigERNS1_23WebRequestRestHeaderMapE
cGd:_GraphicRaycaster__ctor_m646559428
n5f:_CipherSuite_get_CipherAlgorithmType_m137858741
TJg:_BitArrayEnumerator_get_Current_m4220391712
CQe:__Z37il2cpp_codegen_get_executing_assemblyPK10MethodInfo
iJf:_Transform_get_parent_m835071599
C7:__ZN4core8hash_setINS_4pairIKi17ThreadedAwakeDataLb0EEENS_9hash_pairINS_4hashIiEES2_S3_EENS_10equal_pairINSt3__28equal_toIiEES2_S3_EEE4growEi
Lab:__ZN9Transform23VirtualRedirectTransferER17RemapPPtrTransfer
Ppg:_IPAddress_get_ScopeId_m4237202723
Cpa:__ZN9Scripting11UnityEngine12Experimental10PlayerLoop9PreUpdate12CleanupProxyEv
e0e:_InternalEnumerator_1_MoveNext_m3520556285_AdjustorThunk
fdj:_ExpressionCollection_get_Item_m3510736379
QCe:__ZL62FontData_t746620069_CustomAttributesCacheGenerator_m_AlignmentP21CustomAttributesCache
Lxd:_StandaloneInputModule_get_inputActionsPerSecond_m3946624274
PLh:_UTF8Encoding_InternalGetCharCount_m82458470
$Mf:_Vector2__cctor_m2108982652
jEf:_U3CBlockUntilRecvMsgU3Ec__AnonStorey2_U3CU3Em__0_m2225790220
tna:__ZN9Scripting11UnityEngine9Rendering20SphericalHarmonicsL29InitProxyEv
y5e:_InternalEnumerator_1_MoveNext_m2734554195_AdjustorThunk
P2j:__ZN14dense_hash_mapI10KeyWrapperIP14Il2CppIUnknownEjN6il2cpp5utils11PointerHashIS1_EENS3_14EqualsComparerINSt3__28equal_toIS2_EEEENS9_9allocatorINS9_4pairIKS3_jEEEEE15set_deleted_keyERSF_
PYj:__ZN6il2cpp2gc9AllocatorIP12Il2CppThreadE10deallocateEPvj
sTj:__ZN13Il2CppHashMapIPK14Il2CppAssemblyPK22Il2CppMonoAssemblyNameN6il2cpp5utils11PointerHashIS1_EENSt3__28equal_toIS2_EENSA_9allocatorINSA_4pairIK10KeyWrapperIS2_ES5_EEEEEC2EjRKS9_RKSC_
cBg:_DelegatePInvokeWrapper_AppDomainInitializer_t682969308
Iqe:__ZL141SupportedRenderingFeatures_t353898663_CustomAttributesCacheGenerator_SupportedRenderingFeatures_IsMixedLightingModeSupportedByRef_m2282093837P21CustomAttributesCache
W8:__ZN8Remapper6RemoveEi
Tai:_UnityEvent_1__ctor_m3777630589_gshared
qfb:__ZN10MemoryFile4ReadEyPvPy
Omg:_Encoding_GetBytes_m3148649984
FCc:__ZN9Scripting27CreateArgumentNullExceptionEPKc
c$c:__ZL36CleanupTextRenderingScriptingClassesv
Y7b:__ZN15ReflectionProbe17UseRendererResultEP13ProbeRenderer
EFc:__Z34Mesh_CUSTOM_SetArrayForChannelImplP12Il2CppObject30InternalScriptingShaderChannel34InternalScriptingVertexChannelTypeiP11Il2CppArrayi
Nxj:_CanvasRenderer_INTERNAL_CALL_EnableRectClipping_m3318097918
lTh:_UInt64_System_IConvertible_ToDecimal_m806594027_AdjustorThunk
Uka:__ZL58__ManagedRegistrationHelperFunction_MaterialEffectPlayablePv
Cod:__ZN11UnityEngine7Connect20RemoteConfigSettings18StaticCallOnUpdateEPS1_
ybi:_UnityEvent_1_GetDelegate_m274387680_gshared
Naf:_Enumerator_get_CurrentValue_m3103267885_gshared
kOi:_List_1__ctor_m3395838871_gshared
_Xh:_Collection_1_IsFixedSize_m3698021882_gshared
eK:__ZN9Scripting11UnityEngine18AssetBundleRequest9InitProxyEv
E7i:_PKCS12__ctor_m1854440921
vIi:_Array_Resize_TisCustomAttributeNamedArgument_t287865710_m885566878_gshared
Waa:__ZN17TransformInternal19FreeTransformThreadER18TransformHierarchyjj
Ns:__ZN9Scripting11UnityEngine12SkeletonBone12CleanupProxyEv
fwh:_DefaultComparer__ctor_m2556554241_gshared
bu:__ZN11UnityEngine9Animation28GenericAnimationBindingCache25RegisterIAnimationBindingEPKN5Unity4TypeEiP17IAnimationBinding
TSd:_FormatterData__ctor_m3990517908
Jfd:__Z70RectTransformUtility_CUSTOM_INTERNAL_CALL_RectangleContainsScreenPointP12Il2CppObjectRK13Vector2fIcallS0_
CWg:_DirectoryInfo__ctor_m481305441
Yug:_X509ExtensionCollection_get_SyncRoot_m2667861032
oCj:__ZN6il2cpp2vm5Class15GetElementClassEP11Il2CppClass
W3:__ZN10MemoryPoolC2E10MemLabelIdbPKciii
H2i:_Collection_1_SetItem_m941095285_gshared
Ihd:__ZN14UnityAnalytics25UnregisterGlobalCallbacksEv
Uyi:__Z80RuntimeInvoker_Boolean_t97287965_ColorBlockU26_t337120346_ColorBlock_t2139031574PFvvEPK10MethodInfoPvPS4_
o6b:__Z40ProcessCameraIndexListIsNodeVisibleInOutRK22SceneCullingParametersPK9SceneNodePK4AABBR9IndexList
$ij:_GUIScrollGroup_SetHorizontal_m291416666
TFa:__ZN16GraphicsSettings8TransferI17RemapPPtrTransferEEvRT_
Cgd:__ZN2UI6Canvas13UpdateBatchesEb
Frg:_X509BasicConstraintsExtension_Decode_m120598446
IB:__ZNK23AnimationPlayableOutput11DerivesFromE17ScriptingClassPtr
eQa:__ZN7Texture19SupportsAsyncUploadI19StreamedBinaryWriteILb0EEEEbRT_
Msi:__Z49RuntimeInvoker_Boolean_t97287965_Rect_t2360479859PFvvEPK10MethodInfoPvPS4_
snf:_ObjectReader_ReadObjectGraph_m340866276
Vse:__ZL101Transform_t3600365921_CustomAttributesCacheGenerator_Transform_INTERNAL_get_localRotation_m1111330565P21CustomAttributesCache
Fni:__Z51RuntimeInvoker_UInt32_t2560061978_Int16_t2552820387PFvvEPK10MethodInfoPvPS4_
nLb:__ZNK13GfxDeviceGLES12GetWireframeEv
mkj:_DelegatePInvokeWrapper_Action_t1264377477
ewe:__ZL64EventType_t3528516131_CustomAttributesCacheGenerator_dragUpdatedP21CustomAttributesCache
Uld:__ZN11UnityEngine7Connect13ConfigHandler12GetListenersERKN4core12basic_stringIcNS2_20StringStorageDefaultIcEEEE
uib:__ZN9GfxDevice18AllocRenderSurfaceEb
$Fg:_Char__cctor_m2787437263
Fxc:__ZN10TagManager32GetSortingLayerUniqueIDFromValueEi
_yd:_AspectRatioFitter_get_rectTransform_m2996235303
P5:__ZL27CleanupCoreScriptingClassesv
HOg:_DateTimeFormatInfo_get_IsReadOnly_m1173781646
SPg:_NumberFormatInfo_get_PercentPositivePattern_m1800841633
$Fd:_Graphic_UnregisterDirtyMaterialCallback_m2707090617
h9e:_Comparer_1_System_Collections_IComparer_Compare_m1313384821_gshared
qTf:_LayoutRebuilder_GetHashCode_m1943075341
nVe:_GenericTypeParameterBuilder_MakeGenericType_m3048165991
Xqc:__Z26AnimationCurve_CUSTOM_InitP12Il2CppObjectP11Il2CppArray
Qzk:_glUniform1uiv__wrapper
dTj:__ZN6il2cpp2vm10Reflection7IsEventEP12Il2CppObject
Plk:__ZNSt3__26__treeINS_12__value_typeIPFvvEPK10MethodInfoEENS_19__map_value_compareIS3_S7_NS_4lessIS3_EELb1EEENS_9allocatorIS7_EEE16__insert_node_atEPNS_16__tree_node_baseIPvEERSI_SI_
X8:__ZN17PersistentManager26GetStreamNameSpaceInternalEi
nR:__ZN4FMOD6System11createSoundEPKcjP22FMOD_CREATESOUNDEXINFOPPNS_5SoundE
Wn:FUNCTION_TABLE_iiifiiii
C5e:_InternalEnumerator_1_System_Collections_IEnumerator_Reset_m1451164462_AdjustorThunk
TWc:__ZN13SpeedTreeWind20AdvanceWithoutUpdateEd
aYh:_ReadOnlyCollection_1_System_Collections_Generic_ICollectionU3CTU3E_Add_m1422506275_gshared
q6g:_DateTime_System_IConvertible_ToDecimal_m1044850612
TNi:_List_1_IndexOf_m2206067159_gshared
EZe:_InternalEnumerator_1_System_Collections_IEnumerator_Reset_m1318888374_AdjustorThunk
V4:__ZN9ShaderLab19CommonPropertyNames13StaticCleanupEPv
k8:__Z31scripting_method_get_returntype18ScriptingMethodPtr
rrj:__ZL24UnresolvedVirtualCall_76P12Il2CppObjectPK10MethodInfo
kWa:__ZN15SerializeTraitsI12LightmapDataE8TransferI24GenerateTypeTreeTransferEEvRS0_RT_
ufg:_SecurityElement_AddAttribute_m311510562
Gra:__ZN9Scripting5Unity11Collections44NativeDisableParallelForRestrictionAttribute12CleanupProxyEv
nwk:_glStencilOpSeparate__wrapper
RAc:__ZN4Mesh5SetUvEiPKfjj
WTa:__ZN7Texture13SetAnisoLimitENS_20AnisotropicFilteringE
qqd:__ZN20UnityWebRequestProtoI24UnityWebRequestTransport16AtomicRefCounter14RedirectHelper14ResponseHelper15DownloadHandler13UploadHandler18CertificateHandler12HeaderHelper14AsyncOperationED2Ev
cw:__ZN21AnimationClipPlayable22PrepareAnimationEventsEfR13dynamic_arrayI22AnimationClipEventInfoLj0EE
UDg:_Attribute_IsDefined_m4069052474
Ph:_emscripten_glCompressedTexSubImage2D
gRb:__ZN13GfxDeviceGLES22MemoryBarrierImmediateEyN2gl17MemoryBarrierTypeE
JRf:_U3CCaretBlinkU3Ec__Iterator0_Dispose_m860898205
Cia:__ZN6prcoreL26RemapGenericFloatToIntegerI18TexFormatARGBFloat17TexFormatARGB8888EEvPKNS_9InnerInfoE
xWi:_List_1_set_Capacity_m1977188119_gshared
dCc:__Z46GetShaderModelNumericValueFromRequirementsMask18ShaderRequirements
E2c:_cff_ps_has_glyph_names
ODd:_DropdownItem_get_rectTransform_m3147806615
Pvh:_Dictionary_2_Resize_m3287623642_gshared
afk:_GC_write
tti:__Z98RuntimeInvoker_Boolean_t97287965_PlayableOutputHandle_t4208053793_PlayableOutputHandle_t4208053793PFvvEPK10MethodInfoPvPS4_
Zsf:_RC2_Create_m2516417038
LFd:_Graphic_OnPopulateMesh_m767318148
or:__ZN17ConstraintManagerD2Ev
vsf:_HMACSHA512_set_ProduceLegacyHmacValues_m3961135292
Mqj:__ZL24UnresolvedVirtualCall_43P12Il2CppObjectS0_PK10MethodInfo
Tif:_Dictionary_2_Remove_m4193450060_gshared
hqh:_ASN1_get_Tag_m1032367219
nmj:_StandardEventPayload_set_name_m549984672
BUg:_Int64_TryParse_m3606398488
qHi:_Array_InternalArray__set_Item_TisMark_t3471605523_m1299772331_gshared
OKc:__Z44Register_UnityEngine_GUIStyle_SetDefaultFontv
jyb:__Z18Transfer_BlittableI18StreamedBinaryReadILb1EELb1EiEvRK29SerializationCommandArgumentsR31RuntimeSerializationCommandInfo
MD:__ZN9BlobWrite8TransferI22OffsetPtrArrayTransferIKN4math7_float3EEEEvRT_PKc17TransferMetaFlags
hii:__Z173RuntimeInvoker_Int32_t2950945753_RuntimeObject_Int32_t2950945753_Int32_t2950945753_Int32_t2950945753_RuntimeObject_Int32_t2950945753_SByte_t1669577662_ContextU26_t3937453398PFvvEPK10MethodInfoPvPS4_
cQi:_List_1__ctor_m2576108087_gshared
URj:__ZN15dense_hashtableINSt3__24pairIK10KeyWrapperINS1_IPK12PropertyInfoP11Il2CppClassEEEjEES9_17ReflectionMapHashIS8_EN14dense_hash_mapIS9_jSD_NS9_14EqualsComparerINS0_8equal_toIS8_EEEENS0_9allocatorISB_EEE9SelectKeyESI_SK_E12maybe_shrinkEv
Lsj:__ZL25UnresolvedVirtualCall_150P12Il2CppObject19Vector2_t2156229523S1_fiPK10MethodInfo
$7i:_X509Certificate_get_DSA_m565099499
Kyb:__Z18Transfer_BlittableI18StreamedBinaryReadILb1EELb1EsEvRK29SerializationCommandArgumentsR31RuntimeSerializationCommandInfo
ZJh:_StringBuilder_Remove_m940064945
x2a:__ZN14SafeBinaryRead21TransferSTLStyleArrayI13dynamic_arrayI16SplashScreenLogoLj0EEEEvRT_17TransferMetaFlags
$lb:__ZN13dynamic_arrayIN16GeometryJobTasks15GeometryJobTaskELj0EE18resize_initializedEjRKS1_12ResizePolicy
Tqf:_DESCryptoServiceProvider_GenerateIV_m683687014
sBh:_GenericComparer_1__ctor_m1900257738_gshared
aUa:__ZL21SetAnisoLimitEnumImplN7Texture20AnisotropicFilteringEb
Pld:__ZN22BaseUnityConnectClient17OnEnterStateReadyEv
C$f:_Text_get_fontSize_m1677872538
NIh:_List_1_System_Collections_IList_get_Item_m995551621_gshared
jpa:__ZN9Scripting11UnityEngine12Experimental9Rendering15ShadowSplitData9InitProxyEv
w0a:__ZN16BlendShapeVertex8TransferI19StreamedBinaryWriteILb0EEEEvRT_
irc:__Z29Input_CUSTOM_GetMouseButtonUpi
rSg:_Int16_Parse_m138525169
lNj:__ZN6il2cpp6icalls8mscorlib6System8MonoType16InternalGetEventEP20Il2CppReflectionTypeP12Il2CppStringi
Mgj:_UriScheme_t722425697_marshal_pinvoke_back
w4c:_UNITY_tt_face_load_maxp
yrc:__Z46Input_CUSTOM_INTERNAL_set_compositionCursorPosRK13Vector2fIcall
Iv:__ZN7mecanim5human12FullBodyMaskEv
h_b:__ZN13BatchRenderer15ApplyShaderPassER17ShaderPassContextPK18SharedMaterialDataP6ShaderPN9ShaderLab4PassEi13BatchingFlagsbbPKNS7_10GrabPassesEPK22DeviceRenderStateBlock
__a:__ZN19ShaderPropertySheet11ComputeHashEv
yGj:__ZN30dense_hashtable_const_iteratorI10KeyWrapperIPK19Il2CppGenericMethodES4_N6il2cpp8metadata23Il2CppGenericMethodHashEN14dense_hash_setIS4_S7_NS4_14EqualsComparerINS6_26Il2CppGenericMethodCompareEEENSt3__29allocatorIS4_EEE8IdentityESB_SE_EppEv
ZCd:_Resources_t1597885468_marshal_pinvoke_cleanup
Gzb:__ZN4PPtrI6ObjectE8TransferI18StreamedBinaryReadILb1EEEEvRT_
BZ:__ZN11UnityEngine15CloudWebService20WebRequestRestClient6IsDoneEv
Aej:_Group__ctor_m2980794822
a5i:_X509CertificateCollection_get_Item_m1033426577
w8h:_CachedInvokableCall_1_Invoke_m502907382_gshared
zge:__ZL79Enumerable_t538148348_CustomAttributesCacheGenerator_Enumerable_Any_m1084009618P21CustomAttributesCache
Mi:_llvm_fabs_f32
eZ:__ZN11UnityEngine15CloudWebService16SessionContainer16GetJsonDataBlockEjRKN4core12basic_stringIcNS2_20StringStorageDefaultIcEEEERS6_PjSA_
dqh:_ASN1_Decode_m1695284166
c5f:__ZN23GenericVirtFuncInvoker0IP28ValidationResult_t3834298736E6InvokeEPK10MethodInfoP12Il2CppObject
QTj:__ZN15dense_hashtableINSt3__24pairIK10KeyWrapperIPK14Il2CppAssemblyEPK22Il2CppMonoAssemblyNameEES6_N6il2cpp5utils11PointerHashIS4_EEN14dense_hash_mapIS6_SA_SF_NS6_14EqualsComparerINS0_8equal_toIS5_EEEENS0_9allocatorISB_EEE9SelectKeyESK_SM_E13set_empty_keyERKSB_
T1i:_Collection_1_RemoveAt_m2240641437_gshared
hch:_Enum_ToString_m3248653065
xYc:__ZN18StreamedBinaryReadILb0EE21TransferSTLStyleArrayI13dynamic_arrayIcLj0EEEEvRT_17TransferMetaFlags
FRd:_ChannelServices__cctor_m2475086854
o7:__ZN14SafeBinaryReadD2Ev
Vfh:_SetPropertyUtility_SetStruct_TisFillMethod_t1167457570_m4164776730_gshared
qGh:_Enumerator_MoveNext_m3859993671_gshared
UXc:__ZN14SafeBinaryRead21TransferSTLStyleArrayI13dynamic_arrayIN20TextRenderingPrivate8FontImpl13CharacterInfoELj0EEEEvRT_17TransferMetaFlags
_zb:__ZN8Gradient8TransferI18StreamedBinaryReadILb1EEEEvRT_
C1f:_SequentialSearchPrimeGeneratorBase_IsPrimeAcceptable_m1127740833
qvg:_Capture__ctor_m3103117740
fhi:__Z113RuntimeInvoker_Void_t1185182177_RuntimeObject_Int64_t3736567304_RuntimeObject_Int64_t3736567304_Int64_t3736567304PFvvEPK10MethodInfoPvPS4_
T$i:_Collection_1_get_Item_m1493027586_gshared
JGf:_RangeInt_get_end_m4128831787_AdjustorThunk
l2j:__ZN6il2cpp6icalls8mscorlib6System4Type15MakeGenericTypeEP20Il2CppReflectionTypeP11Il2CppArray
mj:_SDL_PauseAudio
Otj:__ZL25UnresolvedVirtualCall_207P12Il2CppObject6Guid_tS1_PK10MethodInfo
DLg:_Hashtable_Clone_m3078962909
uXj:_il2cpp_class_from_type
eOj:__ZN6il2cpp2os4File11GetStdErrorEv
PAj:_NativeHeaderAttribute__ctor_m457462113
Ybe:__ZL77Convert_t2465617642_CustomAttributesCacheGenerator_Convert_ToSByte_m516918950P21CustomAttributesCache
U4:__ZN9ShaderLab19CommonPropertyNames16StaticInitializeEPv
E8a:__ZN13MemoryManager31DisallowAllocationsOnThisThreadEv
i8e:_Comparer_1__cctor_m2517796511_gshared
nu:__ZN7mecanim9animation18CreateAvatarOutputEPKNS0_14AvatarConstantEbbRNS_6memory9AllocatorE
l9f:_TlsServerCertificateRequest_Update_m2763887540
koj:_DelegatePInvokeWrapper_PCMSetPositionCallback_t1059417452
s_f:_Slider_set_maxValue_m2251404465
b$f:_SpriteState_get_pressedSprite_m3868967445_AdjustorThunk
qQ:__ZN11AudioSource23VirtualRedirectTransferER24GenerateTypeTreeTransfer
CAc:__ZN7Texture11SetWrapModeE15TextureWrapMode
Smd:__ZN22BaseUnityConnectClient13ResumeSessionEv
FOa:__ZN14Texture2DArray23VirtualRedirectTransferER14SafeBinaryRead
kLe:_MissingMemberException__ctor_m1220732369
W0b:__ZNK6Camera21CalculateCanDoShadowsEv
rwi:__Z52RuntimeInvoker_Void_t1185182177_Int32U26_t1369213839PFvvEPK10MethodInfoPvPS4_
oBj:_GenerateManagedProxyAttribute_set_NativeType_m3203265247
uak:__ZN6il2cpp2os6Thread12SetStackSizeEj
JUf:_MaskableGraphic_RecalculateMasking_m183336762
WLi:_Array_InternalArray__get_Item_TisRuntimeObject_m3347010206_gshared
Iti:__Z38RuntimeInvoker_LightmapsMode_t12202505PFvvEPK10MethodInfoPvPS4_
KJd:_TypeBuilder_IsSubclassOf_m3458909121
Dsk:dynCall_viffii
hBb:__Z18Transfer_BlittableI18StreamedBinaryReadILb0EELb1EhEvRK29SerializationCommandArgumentsR31RuntimeSerializationCommandInfo
Zyg:_X509Certificate__cctor_m198658613
_ji:__Z43RuntimeInvoker_MethodAttributes_t2366443849PFvvEPK10MethodInfoPvPS4_
sFf:_PlayableHandle_Equals_m1666612586_AdjustorThunk
iia:__ZN6prcoreL27StretchGenericFloatBilinearI15TexFormatRFloatEEvPKNS_9InnerInfoE
Cfe:__ZL139ServicePointManager_t170559685_CustomAttributesCacheGenerator_ServicePointManager_t170559685____CheckCertificateRevocationList_PropertyInfoP21CustomAttributesCache
tch:_Enum_ToObject_m1628250250
By:__Z24ProcessAnimationMixBeginP35AnimationPlayableEvaluationConstantP32AnimationPlayableEvaluationInputP33AnimationPlayableEvaluationOutput
IUi:_List_1_set_Item_m2057272351_gshared
YXa:__ZN19StreamedBinaryWriteILb0EE21TransferSTLStyleArrayI13dynamic_arrayI8Vector2fLj0EEEEvRT_17TransferMetaFlags
qSa:__Z14PadImageBorderR14ImageReferenceii
uQj:__ZN15dense_hashtableINSt3__24pairIK10KeyWrapperINS1_IPK10MethodInfoP11Il2CppClassEEEjEES9_17ReflectionMapHashIS8_EN14dense_hash_mapIS9_jSD_NS9_14EqualsComparerINS0_8equal_toIS8_EEEENS0_9allocatorISB_EEE9SelectKeyESI_SK_E4findERSA_
IJj:__ZN6il2cpp2vm13MetadataCache28GetFieldDefaultValueForFieldEPK9FieldInfo
kih:_Array_IndexOf_TisUIVertex_t4057497605_m3336763564_gshared
p$h:__ZN21InterfaceFuncInvoker1I22OrderBlock_t1585977831iE6InvokeEjP11Il2CppClassP12Il2CppObjecti
dz:__ZN27AnimationLayerMixerPlayableD2Ev
kBd:_ColorBlock_Equals_m518833916_AdjustorThunk
eIh:_List_1_GetEnumerator_m2838255531_gshared
D_e:_InternalEnumerator_1_System_Collections_IEnumerator_get_Current_m1514266661_AdjustorThunk
pM:__ZN12AudioManager39HandlePendingAudioConfigurationCallbackEv
vma:__ZL43__ManagedRegistrationHelperFunction_Vector3Pv
lk:_emscripten_glIsFramebuffer
Esh:_RSAManaged_EncryptValue_m799827583
i7b:__ZN12_GLOBAL__N_16qAtan2Eff
uei:__Z61RuntimeInvoker_UInt32_t2560061978_RuntimeObject_RuntimeObjectPFvvEPK10MethodInfoPvPS4_
ENh:_ThreadAbortException__ctor_m1955533141
pk:_JS_Sound_SetLoopPoints
Jjk:__ZN6il2cpp2vm26MetadataAllocGenericMethodEv
dfh:_Array_InternalArray__ICollection_Remove_TisUInt16_t2177724958_m1766181761_gshared
wTb:__ZN19ConstantBuffersGLES12RecordRenderEv
Abi:_UnityEvent_1__ctor_m3675246889_gshared
ZOc:__ZN9JSONWrite8TransferI10RectOffsetEEvRT_PKc17TransferMetaFlags
hSa:__ZN4crnd12symbol_codec11decode_bitsEj
jzi:__Z59RuntimeInvoker_Boolean_t97287965_KeyValuePair_2_t3842366416PFvvEPK10MethodInfoPvPS4_
v3f:_EncryptedPrivateKeyInfo__ctor_m3415744930
E0c:_cf2_doFlex
Zqg:_AsnEncodedData__ctor_m3792312694
xkj:_AesManaged_GenerateIV_m1368817386
muc:__ZN21FixedBehaviourManagerD0Ev
BL:__ZN4FMOD6System12createReverbEPPNS_6ReverbE
edk:__ZN6il2cpp2vm6String21InitializeEmptyStringEP11Il2CppClass
Wy:__ZN7mecanim19ValueArrayBlendNodeILb1EEEvRKNS_10ValueArrayERKNS_14ValueArrayMaskERS1_RS4_RNS_16ValueArrayWeightEf
Vpf:_CodeAccessPermission_GetHashCode_m880096813
G8a:__Z16MarkDependenciesR27GarbageCollectorThreadStatej
EQe:_AssemblyConfigurationAttribute__ctor_m3236176989
pdi:_ObjectPool_1_get_countInactive_m526975942_gshared
Dqj:__ZL24UnresolvedVirtualCall_34P12Il2CppObjectPK10MethodInfo
lkf:_RemotingServices_DisposeIdentity_m2605848806
fha:__ZNK9Transform11GetPositionEv
YXg:_WriteDelegate_EndInvoke_m952736984
Kuf:_Bounds_set_size_m4127623202
TQg:_GuidParser_Reset_m2640004655
ezc:__ZN31CanvasBatchIntermediateRenderer11AddSubBatchERK16DrawBuffersRangePK19ShaderPropertySheet
rvc:__ZN19RenderEventsContextC2Ei
cX:__Z6simd4fRKf
Lse:__ZL67SceneManager_t2787271929_CustomAttributesCacheGenerator_sceneLoadedP21CustomAttributesCache
tPg:_GregorianCalendar_GetEra_m2369958449
Tk:_emscripten_glEnable
j0e:_InternalEnumerator_1_System_Collections_IEnumerator_get_Current_m2982675020_gshared
vva:__ZN10TagManager23VirtualRedirectTransferER14SafeBinaryRead
uEe:__ZL51RawImage_t3182918964_CustomAttributesCacheGeneratorP21CustomAttributesCache
BXh:_Collection_1_System_Collections_IList_get_Item_m2931804586_gshared
Tjf:_ObjRef_get_EnvoyInfo_m1782007847
Dea:__ZN14PlayableOutput26ClearInvalidSourcePlayableEv
S3b:__Z15InitLightMeshesv
JLd:_MonoCMethod_ToString_m3992577062
GYj:_RaycastHit_get_collider_m1464180279
i$d:__ZL76MarshalAsAttribute_t3522571978_CustomAttributesCacheGenerator_MarshalTypeRefP21CustomAttributesCache
OBj:__ZNK15dense_hashtableINSt3__24pairIK10KeyWrapperIPK22Il2CppGenericParameterEP11Il2CppClassEES6_N6il2cpp5utils11PointerHashIS4_EEN14dense_hash_mapIS6_S9_SE_NS6_14EqualsComparerINS0_8equal_toIS5_EEEENS0_9allocatorISA_EEE9SelectKeyESJ_SL_E10test_emptyEj
J2h:_ReadOnlyCollection_1_System_Collections_IList_Contains_m2904046095_gshared
RTa:__ZN15QualitySettings8TransferI19StreamedBinaryWriteILb0EEEEvRT_
jOc:__Z18Transfer_BlittableI9JSONWriteLb1E11ColorRGBA32EvRK29SerializationCommandArgumentsR31RuntimeSerializationCommandInfo
xQg:_SortKey_GetHashCode_m3547067087
STf:_LayoutUtility_U3CGetFlexibleHeightU3Em__7_m2991026842
swb:__Z18Transfer_BlittableI19StreamedBinaryWriteILb0EELb1E8Vector2fEvRK29SerializationCommandArgumentsR31RuntimeSerializationCommandInfo
g0c:_cf2_arrstack_init
dMi:_Array_InternalArray__get_Item_TisResourceCacheItem_t51292791_m1306056717_gshared
nvi:__Z157RuntimeInvoker_Void_t1185182177_RuntimeObject_RuntimeObject_RuntimeObject_RuntimeObject_RuntimeObject_RuntimeObject_RuntimeObject_RuntimeObject_RuntimeObjectPFvvEPK10MethodInfoPvPS4_
mud:_EventSystem_get_pixelDragThreshold_m1103650852
Jhe:__ZL60StaticAccessorType_t186341701_CustomAttributesCacheGeneratorP21CustomAttributesCache
f2:__Z15CleanLogHandler7LogTypePKcz
xOe:_NumberFormatter_NumberToString_m2481532188
_hc:__ZN9ShaderLab19SerializedSubShader8TransferI19StreamedBinaryWriteILb0EEEEvRT_
DYf:_ScrollRect_InternalGetBounds_m599803667
jcf:_Enumerator_MoveNext_m76191888_gshared
sT:__ZN14AudioBehaviour15ThreadedCleanupEv
Zra:__ZN9Scripting5Unity11Collections8LowLevel6Unsafe41NativeContainerIsAtomicWriteOnlyAttribute9InitProxyEv
VEb:__ZN6Camera17RemoveImageFilterERK11ImageFilter
Fmb:__ZNSt3__218__insertion_sort_3IR25ValueParameterArraySorterPN20GpuProgramParameters14ValueParameterEEEvT0_S6_T_
ure:__ZL90Display_t1387065949_CustomAttributesCacheGenerator_Display_GetRenderingExtImpl_m2069813991P21CustomAttributesCache
qfe:__ZL67EditorBrowsableAttribute_t1475454531_CustomAttributesCacheGeneratorP21CustomAttributesCache
JKg:_Comparer__cctor_m3311686689
egd:__ZZN2UI11CanvasGroup15InitializeClassEvEN38FunctorImpl_117kTransformParentChanged4CallEPviR11MessageData
Jyd:_UIBehaviour_OnDidApplyAnimationProperties_m2143584361
npg:_HttpWebRequest_get_Address_m2672661563
BPh:_TimeZone__ctor_m1831364098
xSj:__ZNK10KeyWrapperINSt3__24pairIPK9EventInfoP11Il2CppClassEEE14EqualsComparerINS0_8equal_toIS7_EEEclERKS8_SE_
N$e:_InternalEnumerator_1_get_Current_m3500427238_AdjustorThunk
ohd:__ZN2UI26InitializeDeviceForOverlayEi
T0f:_Kernel_PlusEq_m136676638
B3:__Z27LogRepeatingStringWithFlagsRKN4core12basic_stringIcNS_20StringStorageDefaultIcEEEE15LogMessageFlagsi
wTh:_UInt64_System_IConvertible_ToSingle_m925613075
uch:_Enum_IsDefined_m1442314461
dNh:_Thread__cctor_m817723615
roj:_AudioExtensionManager_RegisterBuiltinDefinitions_m2742744104
iw:__ZN17AnimationPlayable28ComputeNeedsBindingRebuildedEv
nv:__ZN17AnimationPlayable23RequestAllocateBindingsEv
f7h:_Predicate_1_EndInvoke_m3884403745_gshared
$lg:_DecoderReplacementFallbackBuffer_Fallback_m1261056214
yYb:__ZNSt3__227__insertion_sort_incompleteIRPFbP10GUIElementS2_EPS2_EEbT0_S7_T_
sMe:_Binder_get_DefaultBinder_m950908649
TWg:_StreamReader__ctor_m1616861391
M5c:_tt_cmap6_char_index
Mmd:__ZN18UnityConnectClient33OnPlayerSessionStateChangedStaticEPS_jyy
kI:__ZN25RuntimeAnimatorController12CleanupClassEv
Pbg:_RSA_ToXmlString_m2922661427
l_:__ZNK11UnityEngine15CloudWebService23WebRequestUploadHandler11GetProgressEv
NOb:__ZN7ApiGLES4LoadE16GfxDeviceLevelGL
owe:__ZL61GUIContent_t3050628031_CustomAttributesCacheGenerator_m_ImageP21CustomAttributesCache
bSa:__ZN4crnd12crn_unpacker22decode_color_endpointsEv
V5j:__ZN15dense_hashtableI10KeyWrapperIP18Il2CppGenericClassES3_N6il2cpp8metadata22Il2CppGenericClassHashEN14dense_hash_setIS3_S6_NS3_14EqualsComparerINS5_25Il2CppGenericClassCompareEEENSt3__29allocatorIS3_EEE8IdentityESA_SD_E15insert_noresizeERKS3_
Vwc:__ZZL31RegisterOtherRendererPropertiesR22GenericPropertyBindingEN30Wrapper_RendererReceiveShadows13GetFloatValueEPv
pua:__ZN8Vector4f8TransferI18StreamedBinaryReadILb0EEEEvRT_
Bdh:_Array_InternalArray__ICollection_Contains_TisSlot_t384495010_m688761886_gshared
GRa:__ZN17SharedTextureDataC2E10MemLabelIdii13TextureFormatjiibb
$wi:__Z114RuntimeInvoker_RuntimeObject_RuntimeObject_Int32_t2950945753_Int32_t2950945753_Int32_t2950945753_Int32_t2950945753PFvvEPK10MethodInfoPvPS4_
YHb:__ZN8Material11SetPassFastEPN9ShaderLab4PassER17ShaderPassContextP6Shaderib
vmd:__ZN11UnityEngine7Connect20BasePersistentValues10SaveValuesER9JSONWrite
v3i:_Collection_1_IsFixedSize_m3748602684_gshared
s6g:_DateTime_System_IConvertible_ToDouble_m2116720007
_1f:_BitConverterLE_GetUIntBytes_m795219058
Bxf:_Display_GetSystemExtImpl_m2808197389
sOh:_WaitHandle_WaitOne_m2577152516
Ipf:_SByte_Parse_m2899090751
c7d:__ZL56ObjectManager_t1653064325_CustomAttributesCacheGeneratorP21CustomAttributesCache
Aoa:__ZN9Scripting11UnityEngine20ManagedStreamHelpers12CleanupProxyEv
Bpc:__ZN17CallbackArrayBaseIPFvRK21DebugStringToFileData7LogTypebEPFvPKvS2_S3_bEE8RegisterES5_S9_S7_
J7d:__ZL46DSA_t2386879874_CustomAttributesCacheGeneratorP21CustomAttributesCache
CXe:_ArrayReadOnlyList_1_GetEnumerator_m1835926958_gshared
EBc:__Z14ScaleCurveTimeR17AnimationCurveTplIfEf
aca:__ZN20GlobalCachingManager7DisposeEv
BZb:__Z12SetupLODFadeR9GfxDeviceR17ShaderPassContextf
dOa:__ZNK14PlayableOutput7GetTypeEv
PPc:__ZN9JSONWrite8TransferI13dynamic_arrayI4AABBLj0EEEEvRT_PKc17TransferMetaFlags
R_d:__ZL69Type_t_CustomAttributesCacheGenerator_Type_GetConstructors_m576905011P21CustomAttributesCache
F3b:__ZL24CollectForwardObjectsJobP27CollectForwardObjectsHeader
aJj:__ZNK15dense_hashtableINSt3__24pairIK10KeyWrapperIPK11Il2CppClassEPKcEES6_N6il2cpp5utils11PointerHashIS3_EEN14dense_hash_mapIS6_S9_SE_NS6_14EqualsComparerINS0_8equal_toIS5_EEEENS0_9allocatorISA_EEE9SelectKeyESJ_SL_E12test_deletedERK24dense_hashtable_iteratorISA_S6_SE_SN_SJ_SL_E
PRc:__ZN8JSONRead21TransferSTLStyleArrayI13dynamic_arrayIdLj0EEEEvRT_17TransferMetaFlags
$5b:__Z13IsNodeVisibleRK9SceneNodeRK4AABBRK22SceneCullingParameters
Nih:_Array_InternalArray__IndexOf_TisLabelFixup_t858502054_m1491765395_gshared
shi:__Z44RuntimeInvoker_RuntimeTypeHandle_t3027515415PFvvEPK10MethodInfoPvPS4_
k7e:__ZN21InterfaceFuncInvoker1IibE6InvokeEjP11Il2CppClassP12Il2CppObjectb
dKd:__ZN30GenericInterfaceActionInvoker1IP20Delegate_t1188392813E6InvokeEPK10MethodInfoP12Il2CppObjectS1_
ynh:_SortKeyBuffer_AppendCJKExtension_m2591091991
Pfd:__Z57RectTransformUtility_CUSTOM_INTERNAL_CALL_PixelAdjustRectP12Il2CppObjectS0_R5RectTIfE
JLh:_UTF8Encoding_GetByteCount_m4153686982
MBk:_emscripten_glStencilMask__wrapper
Wfi:__Z49RuntimeInvoker_Void_t1185182177_Double_t594665363PFvvEPK10MethodInfoPvPS4_
oGj:__ZN15dense_hashtableI10KeyWrapperIPK19Il2CppGenericMethodES4_N6il2cpp8metadata23Il2CppGenericMethodHashEN14dense_hash_setIS4_S7_NS4_14EqualsComparerINS6_26Il2CppGenericMethodCompareEEENSt3__29allocatorIS4_EEE8IdentityESB_SE_EC2ERKSH_j
eAa:__ZN15RenderNodeQueue7CleanupEv
vie:__ZL66RuntimePlatform_t4159857903_CustomAttributesCacheGenerator_XBOX360P21CustomAttributesCache
Gdb:__ZNK17ArchiveFileSystem8PositionERK13FileEntryData
QVc:__ZN16NovodexAllocator8allocateEjPKcS1_i
$2b:__Z17PrepareShadowMapsRK11CullResultsRK11ActiveLightRK10MinMaxAABB
S7i:_DeriveBytes_DeriveIV_m973925711
cTg:_Int32_System_IConvertible_ToSByte_m3133688512
Hsd:__ZN9Scripting11UnityEngine12Experimental23SubsystemDescriptorBase9InitProxyEv
K2h:_ReadOnlyCollection_1_System_Collections_IList_IndexOf_m848971554_gshared
Bpj:_AudioSampleProvider_get_id_m2692334523
B3b:__ZN9ShaderLab10GrabPassesD2Ev
GPa:__ZN14Texture2DArray13UploadTextureEv
tUf:_MaskableGraphic_UpdateCull_m2805101913
c5c:_tt_cmap14_done
G6a:__ZN18AwakeFromLoadQueue25RegisterObjectInstanceIDsEv
vOf:_InputField_UpdateLabel_m1837760870
fEa:__ZN14VertexDataInfo12UpdateFormatEj17ShaderChannelMaskS0_RK19VertexStreamsLayoutRK20VertexChannelsLayout
iz:__ZNK27AnimationLayerMixerPlayable11DerivesFromE17ScriptingClassPtr
$Yc:__ZN20TextRenderingPrivate19NativeTextGenerator15InsertCharacterEiPj
Hii:__Z77RuntimeInvoker_Void_t1185182177_RuntimeObject_SByte_t1669577662_RuntimeObjectPFvvEPK10MethodInfoPvPS4_
nji:__Z81RuntimeInvoker_Void_t1185182177_RuntimeObject_SByte_t1669577662_SByte_t1669577662PFvvEPK10MethodInfoPvPS4_
mMe:_MonoType_get_attributes_m1332507727
oij:_GUIContent_ClearStaticCache_m1205116045
hSi:_List_1_System_Collections_IList_get_IsFixedSize_m203251153_gshared
Bgg:_WindowsIdentity_Dispose_m3466258450
Rx:__ZN17AnimationPlayableD0Ev
kxb:__Z18Transfer_BlittableI19StreamedBinaryWriteILb0EELb0EyEvRK29SerializationCommandArgumentsR31RuntimeSerializationCommandInfo
mmf:_BinaryCommon__cctor_m2978407547
n0:__GLOBAL__sub_I_Runtime_Burst_0_cpp
E1b:__Z19GetReflectionSampleRK23ReflectionProbesContextRK22ActiveReflectionProbesRK27PerObjectLightCullingOutputRK10RenderNodejP16ReflectionSample
Gwc:__ZN28ReflectionProbeAnchorManager23HandleAnchorDestructionEPK15TransformAccessj
S$d:__ZL47ASN1_t2114160832_CustomAttributesCacheGeneratorP21CustomAttributesCache
vpd:__ZL65__ManagedRegistrationHelperFunction_UnityWebRequestAsyncOperationPv
Zbi:_IndexedSet_1__ctor_m2250384602_gshared
Mxh:_DefaultComparer__ctor_m1306123661_gshared
_Rh:_UInt16_TryParse_m4139137016
qEc:__Z41MonoBehaviour_Set_Custom_PropUseGUILayoutP12Il2CppObjecth
jak:__ZN6il2cpp5utils13dynamic_arrayIPNS_2os6ThreadELj4EE9push_backEv
qna:__ZN9Scripting11UnityEngine15ResourceRequest12CleanupProxyEv
T9j:__ZN6il2cpp2gc16GarbageCollector9FreeFixedEPv
Fmg:_Encoding__ctor_m2997749867
jBf:_ManagedStreamHelpers_ManagedStreamSeek_m3158782053
Yej:_ExpressionAssertion_Compile_m2166597834
Dnb:__ZN16ScriptingManagerD0Ev
Phg:_Single_System_IConvertible_ToSByte_m1208276900_AdjustorThunk
Xdk:__ZN6il2cpp6icalls8mscorlib6System7Convert24InternalFromBase64StringEP12Il2CppStringb
azh:_EqualityComparer_1__ctor_m2241711498_gshared
r5d:__ZL58ChannelServices_t3942013484_CustomAttributesCacheGeneratorP21CustomAttributesCache
j4j:__ZN30dense_hashtable_const_iteratorINSt3__24pairIK10KeyWrapperINS1_IPKcS4_EEEiEES6_24NamespaceAndNamePairHashN14dense_hash_mapIS6_iS9_NS6_14EqualsComparerI26NamespaceAndNamePairEqualsEENS0_9allocatorIS8_EEE9SelectKeyESD_SF_EppEv
SGc:__Z44Register_UnityEngine_Component_get_transformv
Tie:__ZL81Camera_t4157153871_CustomAttributesCacheGenerator_Camera_GetAllCameras_m668492922P21CustomAttributesCache
RE:__ZN12_GLOBAL__N_120ProcessPlayableGraphERN8Animator11AnimatorJobER35AnimationPlayableEvaluationConstantR32AnimationPlayableEvaluationInputR33AnimationPlayableEvaluationOutputPFvS4_R17AnimationPlayableEPFvS4_S6_S8_EPFvS8_S4_S6_S8_fESE_MS9_FvPS3_PS5_PS7_E
gyj:_CanvasRenderer_get_absoluteDepth_m2703237819
GQg:_TextInfo_ToLower_m2744057472
QUb:__ZN17ArchiveFileSystem12MountArchiveEPKcS1_
XEj:__ZN14dense_hash_mapI10KeyWrapperIP9FieldInfoEiN6il2cpp5utils11PointerHashIS1_EENS3_14EqualsComparerINSt3__28equal_toIS2_EEEENS9_9allocatorINS9_4pairIKS3_iEEEEE15set_deleted_keyERSF_
XAh:_EqualityComparer_1_System_Collections_IEqualityComparer_Equals_m3977314386_gshared
bOc:__Z18Transfer_BlittableI9JSONWriteLb1E8Vector4fEvRK29SerializationCommandArgumentsR31RuntimeSerializationCommandInfo
S5:__Z11RequireTypePKcS0_S0_
MMg:_CCGregorianCalendar_year_from_fixed_m463929682
Mbd:__ZN2UI13CanvasManagerD0Ev
t9f:_TlsServerHello_Update_m3935081401
ytf:_Debug_get_unityLogger_m2239795986
jYh:_ReadOnlyCollection_1_System_Collections_IEnumerable_GetEnumerator_m2123446296_gshared
J2f:_MD2Managed_Initialize_m2341076836
H2h:_ReadOnlyCollection_1_System_Collections_IList_Add_m4240023232_gshared
bjb:__ZN9GfxDevice15ImmediateVertexEfff
Sle:__ZL56PreLateUpdate_t3194249939_CustomAttributesCacheGeneratorP21CustomAttributesCache
IVa:__ZNK16LightmapSettings22GetTypeVirtualInternalEv
YEa:__ZN16GraphicsSettings13AwakeFromLoadE17AwakeFromLoadMode
Wp:__ZN6Object13AwakeFromLoadE17AwakeFromLoadMode
hLb:__ZN13GfxDeviceGLES15SetStencilStateEPK18DeviceStencilStatei
hYg:__ZN28GenericInterfaceFuncInvoker3IiP22ByteU5BU5D_t4116647657iiE6InvokeEPK10MethodInfoP12Il2CppObjectS1_ii
eFg:_Buffer_BlockCopyInternal_m418318694
bok:_cycle
Fqe:__ZL138SupportedRenderingFeatures_t353898663_CustomAttributesCacheGenerator_SupportedRenderingFeatures_get_supportedLightmapBakeTypes_m1596512019P21CustomAttributesCache
Ndk:__ZN6il2cpp2vm8Profiler7GCEventE13Il2CppGCEvent
Hhi:__Z76RuntimeInvoker_Void_t1185182177_RuntimeObject_RuntimeFieldHandle_t1871169219PFvvEPK10MethodInfoPvPS4_
h8i:_PKCS12_Finalize_m507756088
Cd:_emscripten_glUniform1iv
Nlb:__ZN13ComputeShader14SetBufferParamEjRKN9ShaderLab16FastPropertyNameE15ComputeBufferIDb
BNh:_Thread_get_ManagedThreadId_m1068113671
Ufb:__ZN16MemoryFileSystemD2Ev
Yhi:__Z150RuntimeInvoker_Int32_t2950945753_RuntimeObject_Int32_t2950945753_Int32_t2950945753_RuntimeObject_Int32_t2950945753_Int32_t2950945753_Int32_t2950945753PFvvEPK10MethodInfoPvPS4_
fEg:_BitConverter_DoubleToInt64Bits_m3574395137
p1g:_DateTime_Parse_m3729096069
hQi:_List_1_System_Collections_IList_Add_m1540114404_gshared
oYe:_InternalEnumerator_1_System_Collections_IEnumerator_Reset_m81420524_AdjustorThunk
mFa:__ZN16GraphicsSettings27SetLightsUseLinearIntensityEb
nFc:__Z37Register_UnityEngine_Camera_get_depthv
BKf:_StackTraceUtility_ExtractStringFromExceptionInternal_m2686726792
Qwc:__ZZN8Renderer15InitializeClassEvEN32FunctorImpl_146kCullSceneChanged4CallEPviR11MessageData
fJe:_StringReader_Read_m3322058819
URd:_CrossAppDomainChannel_get_ChannelPriority_m3418073750
jyh:_EqualityComparer_1__ctor_m1860346363_gshared
pRf:_Selectable_StartColorTween_m3618813981
Ltd:_BaseInputModule_HandlePointerExitAndEnter_m1705532066
UJd:_EventInfo__ctor_m3033129999
Cqj:__ZL24UnresolvedVirtualCall_33P12Il2CppObjectiS0_S0_PK10MethodInfo
rpc:__ZN15ApplicationInfo16GetInstallerNameEv
wcc:__Z23ConvertIntegerToTypePtrItEbPvR14SafeBinaryRead
qah:_Delegate_CombineImpl_m3572135514
Txc:__Z13RegisterClassI15EditorExtensionEvPKc
yOe:_NumberFormatter_IntegerToString_m1679294587
$cg:_SHA256Managed_AddLength_m1060552216
Q$h:_ReadOnlyCollection_1_System_Collections_IList_RemoveAt_m422909114_gshared
DF:__ZN7mecanim5human29HumanGetGoalOrientationOffsetENS0_4GoalE
Td:_emscripten_glStencilFunc
bqj:__ZL23UnresolvedVirtualCall_6P12Il2CppObjectiPK10MethodInfo
Wqj:__ZL24UnresolvedVirtualCall_53P12Il2CppObjectPK10MethodInfo
njc:__ZN9ShaderLab20SerializedSubProgram14AddMatrixParamEPKcii15ShaderParamTypei
_d:_glGetActiveUniformBlockName
sAe:__ZL90PointerEventData_t3807901092_CustomAttributesCacheGenerator_U3CpointerIdU3Ek__BackingFieldP21CustomAttributesCache
Dfi:__Z67RuntimeInvoker_Int32_t2950945753_RuntimeObject_Int32U26_t1369213839PFvvEPK10MethodInfoPvPS4_
rfj:_Parser_IsIgnoreCase_m2210120858
yJj:__ZN6il2cpp2vm13MetadataCache28GetGenericContainerFromIndexEi
u8a:__ZN27UnloadUnusedAssetsOperationD0Ev
mN:__ZN4FMOD7Channel20set3DConeOrientationEP11FMOD_VECTOR
mn:FUNCTION_TABLE_iiifii
cSe:_AssemblyBuilder_not_supported_m1735277432
C4e:_InternalEnumerator_1_MoveNext_m1344185775_AdjustorThunk
L7j:__ZN6il2cpp2vm12GenericClass11SetupEventsEP11Il2CppClass
UZc:_ft_open_face_internal
A5c:_tt_cmap12_get_info
r3j:__ZN6il2cpp2vm15ReboxIReferenceEP14Il2CppIUnknownP11Il2CppClass
hWh:_Collection_1_Contains_m1707523067_gshared
MFh:_Enumerator__ctor_m2029608698_AdjustorThunk
Hzj:__ZN6il2cpp6icalls8mscorlib6System7Decimal14decimalCompareEP19il2cpp_decimal_reprS5_
Sif:_Dictionary_2_OnDeserialization_m4209543208_gshared
vek:__ZThn4_N6il2cpp2vm13CachedCCWBaseINS0_13ManagedObjectEE7ReleaseEv
Ibg:_RNGCryptoServiceProvider_GetNonZeroBytes_m1918423726
mri:__Z100RuntimeInvoker_Void_t1185182177_RuntimeObject_Int32_t2950945753_Int32_t2950945753_UInt16_t2177724958PFvvEPK10MethodInfoPvPS4_
Ryk:_glCopyTexImage2D__wrapper
Xae:__ZL62ArithmeticException_t4283546778_CustomAttributesCacheGeneratorP21CustomAttributesCache
hIb:__Z18ClearByDrawingQuad13GfxClearFlagsRK10ColorRGBAffjR17ShaderPassContext
Pha:__ZN6prcoreL17RemapGenericFloatI14TexFormatRHalf15TexFormatRFloatEEvPKNS_9InnerInfoE
n1c:_cf2_getBlueValues
pli:__Z155RuntimeInvoker_Void_t1185182177_RuntimeObject_SByte_t1669577662_SByte_t1669577662_Int64U26_t200113976_ObjectU26_t2146539884_SerializationInfoU26_t419328957PFvvEPK10MethodInfoPvPS4_
wea:__ZN15DirectorManager21RebuildStageCallbacksEv
zIb:__ZN19RuntimeSceneManager9LoadSceneERKN4core12basic_stringIcNS0_20StringStorageDefaultIcEEEES6_S6_RK9UnityGUIDiNS_11LoadingModeE
Atf:_Application_Internal_ApplicationQuit_m2936209313
RNb:__ZN7ApiGLES10DrawArraysE16GfxPrimitiveTypejjj
gR:__ZN10SampleClip13LoadBaseSoundEv
Qzg:_SmallXmlParser_SkipWhitespaces_m4243606597
GNg:_CompareInfo_IndexOf_m2631915198
nrb:__ZN14SafeBinaryRead21TransferSTLStyleArrayI13dynamic_arrayI10Matrix4x4fLj0EEEEvRT_17TransferMetaFlags
$Ud:_MethodCall__ctor_m3669645
IFg:_Byte_CompareTo_m4285128861
cvd:_TriggerEvent__ctor_m87299207
Dpi:__Z48RuntimeInvoker_ExchangeAlgorithmType_t1320888206PFvvEPK10MethodInfoPvPS4_
Msd:__ZN9Scripting11UnityEngine12Experimental27Internal_SubsystemInstances12CleanupProxyEv
CU:__Z57AudioSource_CUSTOM_INTERNAL_CALL_ClearExtensionPropertiesP12Il2CppObjectRK12PropertyName
E7j:__ZN15dense_hashtableINSt3__24pairIK10KeyWrapperIP12Il2CppObjectEN6il2cpp2gc9CachedCCWEEES5_NS7_5utils11PointerHashIS3_EEN14dense_hash_mapIS5_S9_SD_NS5_14EqualsComparerINS0_8equal_toIS4_EEEENS0_9allocatorISA_EEE9SelectKeyESI_SK_E15insert_noresizeERKSA_
Y4f:_CertificateValidationCallback2__ctor_m1685875113
kyh:_EqualityComparer_1__cctor_m3962593840_gshared
$Na:__ZN22DeviceMVPMatricesStateC2ER9GfxDevice
obg:_SslClientStream_Finalize_m1251363641
jZb:__ZNK6Camera32ResolveLastTargetToCurrentTargetEv
XAf:_Logger_set_logEnabled_m1180597166
aKg:_Comparer_Compare_m3984347512
Hah:_StackFrame_GetMethod_m1395840764
sVj:__ZN6il2cpp2vm10Reflection12HasAttributeEP9FieldInfoP11Il2CppClass
rpa:__ZN9Scripting11UnityEngine12Experimental9Rendering11CullResults9InitProxyEv
ec:invoke_viiifi
gsc:__Z13RegisterClassI6SpriteEvPKc
sNd:_MonoProperty_GetCustomAttributes_m3619796755
vNj:__ZNSt3__214__split_bufferIP11Il2CppClassRNS_9allocatorIS2_EEEC2EjjS5_
eWd:_MethodDictionary_System_Collections_IEnumerable_GetEnumerator_m4169036899
Vzg:__ZN23InterfaceActionInvoker2IP8String_tP12Il2CppObjectE6InvokeEjP11Il2CppClassS3_S1_S3_
e3h:_ReadOnlyCollection_1_System_Collections_Generic_IListU3CTU3E_get_Item_m3666607533_gshared
pPh:_TimeSpan_Subtract_m1264203589
GRd:_CrossContextChannel__ctor_m3755842292
qwh:_DefaultComparer_Equals_m3257444875_gshared
hf:_JS_Sound_SetPosition
TIa:__ZN19RenderBufferManager13GetTempBufferEii17DepthBufferFormat19RenderTextureFormatj22RenderTextureReadWrite14VRTextureUsagei23RenderTextureMemoryless
jJj:__ZL13GetSharedInstPK17Il2CppGenericInst
WAe:__ZL98PointerEventData_t3807901092_CustomAttributesCacheGenerator_PointerEventData_get_delta_m1062010255P21CustomAttributesCache
_Da:__Z27ConvertSubMeshesToTrianglesIjEvR13dynamic_arrayI7SubMeshLj0EERS0_IhLj0EE
qkd:__ZN22BaseUnityConnectClient17SaveSessionValuesEv
QZe:_InternalEnumerator_1_get_Current_m476140818_gshared
MRi:_List_1_Sort_m4240158523_gshared
PNf:_WaitForEndOfFrame__ctor_m1381314187
I3b:__Z24SetupActiveLightsContextR21ActiveLightingContextRK12ActiveLightsRK11CullResultsP14ShadowMapCacheRK10MinMaxAABB
Vyd:_AnimationTriggers_set_disabledTrigger_m933056574
qlc:__Z38Sprite_CUSTOM_INTERNAL_get_textureRectP12Il2CppObjectP5RectTIfE
eUj:__ZNK15dense_hashtableINSt3__24pairIK10KeyWrapperIPK22Il2CppGenericParameterEPK24MonoGenericParameterInfoEES6_N6il2cpp5utils11PointerHashIS4_EEN14dense_hash_mapIS6_SA_SF_NS6_14EqualsComparerINS0_8equal_toIS5_EEEENS0_9allocatorISB_EEE9SelectKeyESK_SM_E3endEv
BOi:_List_1_Add_m238442097_gshared
Bnc:__ZN9TextAsset7SetTextERKN4core12basic_stringIcNS0_20StringStorageDefaultIcEEEE
Sya:__ZN6Camera8TransferI24GenerateTypeTreeTransferEEvRT_
juj:__ZL25UnresolvedVirtualCall_230P12Il2CppObjectPK10MethodInfo
Ga:invoke_iiiiiiif
Ea:invoke_iiiiiiii
LGi:_Array_InternalArray__set_Item_TisByte_t1134296376_m3104140039_gshared
LEc:__Z56Register_UnityEngine_MonoBehaviour_IsObjectMonoBehaviourv
WHf:_Rect_ToString_m447614148
u8i:_PKCS12_GetBytes_m415958948
i7f:_Context_get_HandshakeState_m2425796590
wXb:__ZN8Renderer17PendingAddToSceneEv
dWh:_Collection_1_System_Collections_IList_set_Item_m2625856224_gshared
NCk:b122
YCk:b125
UCk:b124
ZCk:b126
amc:__Z52Register_UnityEngine_RectTransform_INTERNAL_get_rectv
wCf:_Mesh_SetSizedArrayForChannel_m2565120436
C5:__Z21PostprocessStacktracePKcRN4core12basic_stringIcNS1_20StringStorageDefaultIcEEEE
kBf:_ManagedStreamHelpers_ManagedStreamLength_m2930872960
Mlc:__Z43RectTransform_CUSTOM_INTERNAL_get_anchorMinP12Il2CppObjectP13Vector2fIcall
e7i:_BasicConstraintsExtension_Encode_m2009213240
Koc:__Z47Register_UnityEngine_Camera_get_allCamerasCountv
vAd:___clang_call_terminate
ukd:__ZN22BaseUnityConnectClient20StartEventDispatcherEv
WAc:__ZNSt3__26vectorIj13stl_allocatorIjL18MemLabelIdentifier1ELi16EEE6assignIPKtEENS_9enable_ifIXaasr21__is_forward_iteratorIT_EE5valuesr16is_constructibleIjNS_15iterator_traitsIS9_E9referenceEEE5valueEvE4typeES9_S9_
gE:__ZN7mecanim9animation16EvaluateAvatarIKEPKNS0_14AvatarConstantEPKNS0_11AvatarInputEPNS0_12AvatarOutputEPNS0_12AvatarMemoryEPNS0_15AvatarWorkspaceEb
uA:__ZN26AnimatorControllerPlayable10GetIntegerEiRi
Pbc:__Z29StdTemplateConversionFunctionIsiEbPvR14SafeBinaryRead
IWb:__ZN12InputManager13InputEndFrameEv
IMj:__ZNSt3__26__treeIP11Il2CppClassNS_4lessIS2_EENS_9allocatorIS2_EEE25__emplace_unique_key_argsIS2_JRKS2_EEENS_4pairINS_15__tree_iteratorIS2_PNS_11__tree_nodeIS2_PvEEiEEbEERKT_DpOT0_
LCf:_Object_get_name_m4211327027
SYj:__ZN6il2cpp2vm6Thread5SetupEP12Il2CppThread
Uak:__ZNSt3__26vectorIN6il2cpp2os10ThreadImpl10APCRequestENS_9allocatorIS4_EEE21__push_back_slow_pathIS4_EEvOT_
AZh:_ReadOnlyCollection_1_System_Collections_IList_get_IsReadOnly_m1248651675_gshared
hbf:_Enumerator_System_Collections_IDictionaryEnumerator_get_Key_m2500634048_gshared
tQg:_SortKey_Compare_m1705990888
VAj:_NativeNameAttribute__ctor_m3296876808
twj:_TextGenerator_t3211863866_marshal_pinvoke_back
gpk:___munmap
$f:_localtime_r
XXb:__ZN22RenderingCommandBuffer13GetAndCheckRTE24BuiltinRenderTextureTypeRKN9ShaderLab16FastPropertyNameEPKcPP13RenderTexture
DQd:_InterfaceTypeAttribute__ctor_m3307583035
M0e:_InternalEnumerator_1_System_Collections_IEnumerator_Reset_m3619766341_AdjustorThunk
d1:__Z19free_alloc_internalPv10MemLabelId
i6d:__ZL56ReturnMessage_t1376985608_CustomAttributesCacheGeneratorP21CustomAttributesCache
ot:__ZN9Scripting11UnityEngine10Animations18PositionConstraint9InitProxyEv
cg:_strftime
iJa:__ZN7Texture33SetStoredColorSpaceNoDirtyNoApplyE17TextureColorSpace
xPd:_ResourceSet__ctor_m3618395942
$8g:_Decimal_System_IConvertible_ToDouble_m3125524987_AdjustorThunk
paa:__ZN12FileAccessorD2Ev
Vya:__ZN10ColorRGBAf8TransferI18StreamedBinaryReadILb0EEEEvRT_
nEa:__ZN14VertexDataInfoC2Ev
D9j:__ZN6il2cpp2gc16GarbageCollector14CollectALittleEv
dre:__ZL87Sprite_t280657092_CustomAttributesCacheGenerator_Sprite_INTERNAL_get_border_m3728071101P21CustomAttributesCache
wzc:__ZNK9HPlayable15GetPlayableTypeEv
xCi:__Z117RuntimeInvoker_Void_t1185182177_CustomAttributeTypedArgumentU5BU5DU26_t2503877664_Int32_t2950945753_Int32_t2950945753PFvvEPK10MethodInfoPvPS4_
xzb:__ZL17Transfer_GUIStyleI18StreamedBinaryReadILb1EELb1EEvRK29SerializationCommandArgumentsR31RuntimeSerializationCommandInfo
GVf:_RectMask2D_IsRaycastLocationValid_m1652308696
C3:__ZNSt3__26__treeINS_12__value_typeIPKciEENS_19__map_value_compareIS3_S4_15compare_tstringIS3_ELb1EEENS_9allocatorIS4_EEE21__emplace_unique_implIJNS_4pairIPciEEEEENSD_INS_15__tree_iteratorIS4_PNS_11__tree_nodeIS4_PvEEiEEbEEDpOT_
bNj:__ZN6il2cpp6icalls8mscorlib6SystemL9IsPrivateEPK12PropertyInfo
D8i:_X501_ToString_m1148552872
LIf:_RectTransform_add_reapplyDrivenProperties_m1374850920
Q4:__ZN9shadertag10InitializeEv
azi:__Z69RuntimeInvoker_Void_t1185182177_Int32_t2950945753_Color32_t2600501292PFvvEPK10MethodInfoPvPS4_
FWc:__GLOBAL__sub_I_Modules_Terrain_Public_1_cpp
OTa:__ZN15QualitySettings14QualitySetting8TransferI24GenerateTypeTreeTransferEEvRT_
zkk:__ZN6il2cpp5utils6Memory11AlignedFreeEPv
Utj:__ZL25UnresolvedVirtualCall_213P12Il2CppObjectS0_aPK10MethodInfo
Q5f:_Context_get_ClientWriteKey_m3174706656
Wze:__ZL77ExecuteEvents_t3484638744_CustomAttributesCacheGenerator_U3CU3Ef__mgU24cache7P21CustomAttributesCache
YOf:_InputField_get_textComponent_m948764648
FGc:__Z44Register_UnityEngine_Object_DestroyImmediatev
XUc:__ZL34CleanupModule_PerformanceReportingv
G4g:_Convert_ToSingle_m835189399
Kkc:__ZN22BlockMemoryCacheWriter14LockCacheBlockEjPPhS1_
eKc:__ZNSt3__218__insertion_sort_3IRPFbPKN5IMGUI9GUIWindowES4_EPPS2_EEvT0_SA_T_
xqf:_CryptographicUnexpectedOperationException__ctor_m69881930
D8d:__ZL73TripleDESCryptoServiceProvider_t3595206342_CustomAttributesCacheGeneratorP21CustomAttributesCache
TZi:_Collection_1_SetItem_m1218178236_gshared
UTh:_UInt64_ToString_m2177233542
Ks:__ZN9Scripting11UnityEngine21StateMachineBehaviour9InitProxyEv
ORc:__Z22TransferField_NonArrayI8JSONRead27Converter_SimpleNativeClassI8GUIStyleEEvRK23StaticTransferFieldInfoR31RuntimeSerializationCommandInfoRT0_
$pa:__ZN9Scripting11UnityEngine26ExcludeFromPresetAttribute9InitProxyEv
Jg:_llvm_eh_typeid_for
Qve:__ZL79Event_t2956885303_CustomAttributesCacheGenerator_Event_get_modifiers_m995073384P21CustomAttributesCache
mlf:_RemotingServices_FindInterfaceMethod_m2125212568
HB:__ZNK23AnimationPlayableOutput7GetTypeEv
m_g:_StreamWriter__cctor_m1229272693
dch:_Enum_System_IConvertible_ToSByte_m779472798
WPh:_Type_get_IsInterface_m3284996719
JZe:_InternalEnumerator_1_MoveNext_m1543390728_gshared
OBb:__Z18Transfer_BlittableI18StreamedBinaryReadILb0EELb1E8Vector4fEvRK29SerializationCommandArgumentsR31RuntimeSerializationCommandInfo
cqb:__ZNSt3__26vectorI17ScriptingFieldPtr13stl_allocatorIS1_L18MemLabelIdentifier1ELi16EEE21__push_back_slow_pathIRKS1_EEvOT_
uQg:_SortKey_get_OriginalString_m1428586816
ezi:__Z51RuntimeInvoker_Void_t1185182177_Vector4_t3319028937PFvvEPK10MethodInfoPvPS4_
YXc:__ZN14SafeBinaryRead21TransferSTLStyleArrayI13dynamic_arrayIN4core17string_with_labelILi35EEELj0EEEEvRT_17TransferMetaFlags
Dsj:__ZL25UnresolvedVirtualCall_142P12Il2CppObject17Color_t2555686324faaaPK10MethodInfo
Lhi:__Z67RuntimeInvoker_Void_t1185182177_SByte_t1669577662_SByte_t1669577662PFvvEPK10MethodInfoPvPS4_
bwh:_Dictionary_2_U3CCopyToU3Em__0_m2023886030_gshared
uzi:__Z64RuntimeInvoker_Boolean_t97287965_RefEmitPermissionSet_t484390987PFvvEPK10MethodInfoPvPS4_
mBk:_glBindVertexArray__wrapper
hnf:_SerializationInfo__ctor_m2923079689
rMa:__ZN8Material8TransferI14SafeBinaryReadEEvRT_
IQa:__ZN12CubemapArray17UploadToGfxDeviceEv
b6h:_Func_2__ctor_m1150804732_gshared
wSg:_Int32_JumpOverWhite_m208298144
aFj:__ZN15dense_hashtableINSt3__24pairIK10KeyWrapperIP9FieldInfoEiEES5_N6il2cpp5utils11PointerHashIS3_EEN14dense_hash_mapIS5_iSB_NS5_14EqualsComparerINS0_8equal_toIS4_EEEENS0_9allocatorIS7_EEE9SelectKeyESG_SI_E4swapERSL_
XAi:__Z53RuntimeInvoker_Int32_t2950945753_UIVertex_t4057497605PFvvEPK10MethodInfoPvPS4_
nAk:_emscripten_glGetUniformiv__wrapper
oek:__ZN6il2cpp2vm13ManagedObject14QueryInterfaceERK10Il2CppGuidPPv
VN:__ZN11AudioSource4StopEb
Knk:_frexp
Nok:_fscanf
Zik:__ZN6il2cpp2os14WindowsRuntime13DeleteHStringEP15Il2CppHString__
dnb:__ZN18GlslGpuProgramGLESD2Ev
Y9b:__ZN13RenderTexture14SetVolumeDepthEi
IY:__ZN11UnityEngine15CloudWebService14DataErrorEvent12ToJsonStringERN4core12basic_stringIcNS2_20StringStorageDefaultIcEEEEjPKc
Eqi:__Z86RuntimeInvoker_Void_t1185182177_UInt16_t2177724958_SByte_t1669577662_SByte_t1669577662PFvvEPK10MethodInfoPvPS4_
ajc:__Z22LoadGpuProgramFromDataPKhS0_Rj
sSc:__ZN10Matrix4x4f8TransferI8JSONReadEEvRT_
pVf:_PositionAsUV1_ModifyMesh_m4231919476
cLg:_Hashtable__ctor_m1941859523
a1b:__Z26FindForwardLightsForObjectR13dynamic_arrayIhLj0EEPK11CulledLightjRK12ActiveLightsRK10RenderNodePK19ShaderPropertySheetbRK23FindForwardLightsParamsf
bma:__ZL44__ManagedRegistrationHelperFunction_GPUFencePv
lYf:_ScrollRect_set_horizontalScrollbarSpacing_m2209919081
TRb:__ZN25TransformFeedbackSkinning31CleanupTransformFeedbackShadersEv
sQh:_Type_GetTypeCodeInternal_m1968182887
zza:__Z22scripting_object_unbox18ScriptingObjectPtr
$Pd:_CriticalFinalizerObject__ctor_m3245424448
QUd:_AsyncResult_get_NextSink_m1844209137
bZc:__ZNK20TextRenderingPrivate8FontImpl19GetCharacterAdvanceEjijfPj
skh:_Array_InternalArray__ICollection_Add_TisUriScheme_t722425697_m3142345403_gshared
Enk:_fmt_u
oKi:_Dictionary_2_Do_CopyTo_TisDictionaryEntry_t3123975638_TisDictionaryEntry_t3123975638_m1126292988_gshared
QXa:__ZN10VertexData8TransferI18StreamedBinaryReadILb0EEEEvRT_
Gmk:__ZN6il2cpp8metadata25Il2CppGenericClassCompare7CompareEPK18Il2CppGenericClassS4_
lgd:__ZN2UI29ResetVRScreenSpaceWarningFlagEv
UMe:_MonoType_get_Assembly_m4290914179
Ljc:__ZN9ShaderLab7ProgramC2E10MemLabelIdi10ShaderType
Hra:__ZN9Scripting5Unity11Collections8LowLevel6Unsafe29NativeSetThreadIndexAttribute9InitProxyEv
Axa:__ZN12BaseRendererD2Ev
Anc:__ZNSt3__26vectorI4PPtrI10MonoScriptE13stl_allocatorIS3_L18MemLabelIdentifier79ELi16EEE6insertENS_11__wrap_iterIPKS3_EERS9_
Qjg:_String_LastIndexOf_m95398196
HHi:_Array_InternalArray__set_Item_TisUILineInfo_t4195266810_m2313892078_gshared
c4e:_InternalEnumerator_1_System_Collections_IEnumerator_Reset_m3355902602_AdjustorThunk
fFf:_PlayableAsset__ctor_m2395156306
uBe:__ZL79StandaloneInputModule_t2760469101_CustomAttributesCacheGenerator_m_SubmitButtonP21CustomAttributesCache
p3:__ZN13RuntimeStaticI13dynamic_arrayI22RenderingExtPluginDescLj0EELb0EE13StaticDestroyEPv
tdc:__ZNK21UnityDefaultAllocatorI17LowLevelAllocatorE8ContainsEPKv
sLj:__ZNSt3__213__vector_baseI6pollfdNS_9allocatorIS1_EEED2Ev
Vof:_RuntimeTypeHandle_Equals_m2857439487
Th:_emscripten_get_main_loop_timing
UQd:_SafeHandle_Finalize_m3866180675
NTa:__ZN24GenerateTypeTreeTransfer21TransferSTLStyleArrayINSt3__26vectorIN15QualitySettings14QualitySettingENS1_9allocatorIS4_EEEEEEvRT_17TransferMetaFlags
VYg:_MemoryStream_ToArray_m3911744835
Iaf:_Enumerator_System_Collections_IDictionaryEnumerator_get_Entry_m859540448_AdjustorThunk
xxi:__Z72RuntimeInvoker_Boolean_t97287965_RaycastHitU26_t2429360258_RuntimeObjectPFvvEPK10MethodInfoPvPS4_
k9b:__ZN23ManagedAttributeManager52CallManagedGetParentTypeDisallowingMultipleInclusionE17ScriptingClassPtr
N1a:__Z10AddGUIAxesR13dynamic_arrayI9InputAxisLj0EE
smk:__ZN6il2cpp2os5Event4WaitEjb
zQh:_Type_GetHashCode_m1947148725
Nli:__Z91RuntimeInvoker_Void_t1185182177_RuntimeObject_RuntimeObject_RuntimeObject_SByte_t1669577662PFvvEPK10MethodInfoPvPS4_
Q9a:__ZNK2UI13RectTransform22GetTypeVirtualInternalEv
Xef:__ZN28GenericInterfaceFuncInvoker2IP12Il2CppObjectS1_bE6InvokeEPK10MethodInfoS1_S1_b
cp:getTempRet0
sgg:_StrongName_get_Version_m4243032012
$0e:_InternalEnumerator_1_MoveNext_m2234422530_gshared
COj:__ZN6il2cpp2gc19AppendOnlyGCHashMapINSt3__24pairIPK14Il2CppAssemblyP11Il2CppClassEEP24Il2CppReflectionAssembly17ReflectionMapHashIS9_ENS2_8equal_toIS9_EEE10CopyValuesEPv
dud:_BaseRaycaster_OnEnable_m2678466030
Myf:_UnityEventBase__ctor_m1851535676
MJi:_Array_Sort_TisVector4_t3319028937_m2797285308_gshared
H8f:_HandshakeMessage_Update_m2417837686
Ome:__ZL58ProfilerEndFrame_t852348665_CustomAttributesCacheGeneratorP21CustomAttributesCache
X$j:__ZN6il2cpp6icalls8mscorlib6System9ThreadingL21lookup_cached_cultureEP12Il2CppThreadi
hyf:_NetFxCoreExtensions_CreateDelegate_m751211712
F4b:__ZN18DeferredRenderLoopD2Ev
Kyj:_AnimationLayerMixerPlayable__cctor_m4086299972
Asa:__ZNK16TypeTreeIterator4NameEv
dKi:_Array_swap_TisUICharInfo_t75501106_m3934244159_gshared
_Yd:__ZL40UIntPtr_t_CustomAttributesCacheGeneratorP21CustomAttributesCache
P9:__ZN15FileSystemEntry3SetEPKc
zSe:_ConstructorBuilder_Invoke_m3010446651
Xyd:_AspectRatioFitter_get_aspectMode_m3735191157
Fpc:__Z52Register_UnityEngine_Application_set_targetFrameRatev
Upg:_IPv6Address_set_ScopeId_m3907190992
GYh:_ReadOnlyCollection_1_System_Collections_Generic_IListU3CTU3E_Insert_m568455025_gshared
VM:__ZN20SoundChannelInstance15ParameterBuffer5ApplyEPN4FMOD7ChannelE
Ipg:_IPv6Address__ctor_m4117281080
a4g:_Convert_ToInt64_m2075293963
_Yc:__ZN20TextRenderingPrivate19NativeTextGenerator9InsertTabEv
Xrk:_sbrk
yuf:_Bounds_GetHashCode_m1844059663
a0i:_Collection_1_System_Collections_Generic_ICollectionU3CTU3E_get_IsReadOnly_m1032650589_gshared
XK:__ZL49__ManagedRegistrationHelperFunction_AudioSettingsPv
Qld:__ZN11UnityEngine15PlatformWrapper24GetRuntimePlatformStringEv
Di:_glIsEnabled
e9a:__ZN15CacheWriterBaseD2Ev
hSe:_DerivedType__ctor_m1853298054
$pb:__Z25scripting_class_get_image17ScriptingClassPtr
Qgg:_SecurityException__ctor_m836898292
iJh:_List_1_RemoveAt_m2730968292_gshared
v4a:__ZNSt3__26vectorIN4core12basic_stringIcNS1_20StringStorageDefaultIcEEEE13stl_allocatorIS5_L18MemLabelIdentifier13ELi16EEEC2INS_11__wrap_iterIPS5_EEEET_SE_RKS8_PNS_9enable_ifIXaasr21__is_forward_iteratorISE_EE5valuesr16is_constructibleIS5_NS_15iterator_traitsISE_E9referenceEEE5valueEvE4typeE
Hi:_emscripten_glDrawElementsInstanced
qA:__ZN26AnimatorControllerPlayable27SetupStateMachineBehavioursEv
sgh:_Array_InternalArray__IEnumerable_GetEnumerator_TisSlot_t3975888750_m1869932007_gshared
Lie:__ZL79Camera_t4157153871_CustomAttributesCacheGenerator_Camera_RaycastTry_m3913529496P21CustomAttributesCache
DSf:_LayoutGroup_get_preferredWidth_m3816902260
ZHa:__ZN18JobBatchDispatcherD2Ev
L9a:__ZN9Transform17MainThreadCleanupEv
chk:_GC_clear_hdr_marks
hCk:_emscripten_glCreateShader__wrapper
F$c:_cff_fd_select_get
t$f:_Text_set_resizeTextForBestFit_m4095249125
yod:__ZN11UnityEngine15PlatformWrapper23GetApplicationBuildGUIDEv
Rrg:_OidEnumerator_MoveNext_m3138911739
Gzi:__Z53RuntimeInvoker_Boolean_t97287965_Keyframe_t4206410242PFvvEPK10MethodInfoPvPS4_
Si:_emscripten_glGetShaderiv
mO:__ZN4FMOD6System10getVersionEPj
Fcd:__ZN2UI6Canvas23VirtualRedirectTransferER24GenerateTypeTreeTransfer
CZf:_Selectable_set_animationTriggers_m2970345687
e3i:_Collection_1_CopyTo_m4271769704_gshared
WPc:__ZN9JSONWrite8TransferIN4math12int2_storageEEEvRT_PKc17TransferMetaFlags
KXc:__ZN13TextRendering4Font13AwakeFromLoadE17AwakeFromLoadMode
MNg:_CompareInfo_LastIndexOf_m2688553706
Tbh:_Enum__ctor_m3602080049
Zhb:__ZN9GfxDevice21ReleaseSharedMeshDataEP14SharedMeshData
Vwd:_MouseState__ctor_m1467839005
hgj:_Uri_IsDomainAddress_m2867513594
w3a:__ZNSt3__27__sort5IRNS_6__lessINS_4pairIPKN5Unity4TypeE7Hash128EES8_EEPS8_EEjT0_SC_SC_SC_SC_T_
wbe:__ZL79Convert_t2465617642_CustomAttributesCacheGenerator_Convert_ToDouble_m2949593046P21CustomAttributesCache
VDd:_Dropdown_CreateItem_m2954407740
Xih:_Array_InternalArray__IndexOf_TisSingle_t1397266774_m2563096608_gshared
jgk:_GC_unreachable_finalize_mark_proc
QFf:_PlayerConnectionInternal_PollInternal_m3759016321
mtg:_X509Chain_ProcessCrlExtensions_m236234529
Hhk:_maybe_finalize
NDj:__ZN6il2cpp2vm5Class40GetInterfaceInvokeDataFromVTableSlowPathEPK12Il2CppObjectPK11Il2CppClassj
YEe:__ZL85ScrollRect_t4137855814_CustomAttributesCacheGenerator_m_HorizontalScrollbarVisibilityP21CustomAttributesCache
Plc:__Z43RectTransform_CUSTOM_INTERNAL_get_anchorMaxP12Il2CppObjectP13Vector2fIcall
Pwj:_TextGenerator_INTERNAL_CALL_Populate_Internal_cpp_m4171649399
zkf:_RealProxy_get_ObjectIdentity_m2790771985
Wkf:_RemotingConfiguration_RegisterChannelTemplate_m3105688054
t2g:_Decimal_Parse_m942471224
YBa:__ZN8Material28UpdateHashesOnPropertyChangeEN9ShaderLab16FastPropertyNameE
U_i:_Collection_1_System_Collections_IList_get_Item_m1368877441_gshared
a0f:_Locale_GetText_m3520169047
zoc:__Z53Register_UnityEngine_SortingLayer_GetLayerValueFromIDv
U1f:_ASN1_GetBytes_m1968380955
nne:__ZL85RectOffset_t1369453676_CustomAttributesCacheGenerator_RectOffset_set_right_m807318764P21CustomAttributesCache
Uob:__Z18Transfer_BlittableI14SafeBinaryReadLb1E8Vector4fEvRK29SerializationCommandArgumentsR31RuntimeSerializationCommandInfo
Nrd:__ZN13RuntimeStaticINSt3__26vectorI23UnityVRDeviceDefinition13stl_allocatorIS2_L18MemLabelIdentifier90ELi16EEEELb0EE13StaticDestroyEPv
uQ:__ZN11AudioSource12AddToManagerEv
Xu:__ZN8Animator23VirtualRedirectTransferER19StreamedBinaryWriteILb0EE
bC:__ZN11UnityEngine9Animation32CreateAnimatorGenericBindingsOptERKNS0_20AnimationSetBindingsER9TransformPKN7mecanim9animation14AvatarConstantEPKNS0_21AvatarBindingConstantEbRNS6_6memory9AllocatorER8Animator
c4h:_ReadOnlyCollection_1_get_Count_m3746330764_gshared
o4j:__ZN6il2cpp2vm5Image13ClassFromNameEPK11Il2CppImagePKcS6_
Ask:dynCall_vdddddd
ihc:__ZN24GenerateTypeTreeTransfer21TransferSTLStyleArrayINSt3__26vectorIN9ShaderLab14SerializedPassENS1_9allocatorIS4_EEEEEEvRT_17TransferMetaFlags
q5:__ZL32MarkLevelGameManagerDependenciesR27GarbageCollectorThreadState
ZMb:__ZNK13GfxDeviceGLES26HasActiveRandomWriteTargetEv
csj:__ZL25UnresolvedVirtualCall_115P12Il2CppObjectsaaaPK10MethodInfo
V_d:__ZL54_MemberInfo_t3922476713_CustomAttributesCacheGeneratorP21CustomAttributesCache
cxk:_glGetActiveUniformsiv__wrapper
FMa:__ZN14SafeBinaryRead8TransferINSt3__24pairIN9ShaderLab16FastPropertyNameE10ColorRGBAfEEEEvRT_PKc17TransferMetaFlags
QCf:_Mesh_GetIndices_m2873123901
L7:__ZN13MonoBehaviour19SetupScriptingCacheE17ScriptingClassPtrP10MonoScript
LLj:__ZNSt3__214__split_bufferIP12Il2CppThreadRNS_9allocatorIS2_EEED2Ev
lF:__Z20AnimationEventToMonoRK14AnimationEventR18MonoAnimationEvent
Pwc:__ZZN8Renderer15InitializeClassEvEN28FunctorImpl_145kLayerChanged4CallEPviR11MessageData
fCd:_FloatTween_set_targetValue_m3604919944_AdjustorThunk
zHg:_ArrayList_get_IsReadOnly_m913775115
Jwd:_PointerEventData_get_dragging_m746831934
jQh:_Type_get_TypeHandle_m160082026
G2h:_ReadOnlyCollection_1_System_Collections_IEnumerable_GetEnumerator_m2781605075_gshared
kpa:__ZN9Scripting11UnityEngine12Experimental9Rendering15ShadowSplitData12CleanupProxyEv
gea:__ZZN15DirectorManager15InitializeClassEvEN52PreLateUpdateDirectorUpdateAnimationBeginRegistrator7ForwardEv
cdh:_Array_get_swapper_TisCustomAttributeNamedArgument_t287865710_m4254011335_gshared
_Fd:_Graphic_RegisterDirtyMaterialCallback_m106898453
tij:_GUILayoutEntry_get_margin_m3174861737
cua:__ZN4PPtrI6SpriteE8TransferI14SafeBinaryReadEEvRT_
Byh:_EqualityComparer_1_System_Collections_IEqualityComparer_Equals_m1672604045_gshared
b_i:_Collection_1_System_Collections_IList_Add_m2739652888_gshared
f_j:__ZN15dense_hashtableINSt3__24pairIK10KeyWrapperIP11Il2CppClassES4_EES5_N6il2cpp8metadata16SZArrayClassHashEN14dense_hash_mapIS5_S4_SA_NS5_14EqualsComparerINS9_19SZArrayClassCompareEEENS0_9allocatorIS7_EEE9SelectKeyESE_SG_E16reset_thresholdsEv
uTi:_List_1_GetEnumerator_m2095602005_gshared
S3j:__ZNK15dense_hashtableINSt3__24pairIK10KeyWrapperINS1_IPKcS4_EEEiEES6_24NamespaceAndNamePairHashN14dense_hash_mapIS6_iS9_NS6_14EqualsComparerI26NamespaceAndNamePairEqualsEENS0_9allocatorIS8_EEE9SelectKeyESD_SF_E13find_positionERS7_
zgc:__ZNSt3__26vectorIN9ShaderLab14SerializedPassENS_9allocatorIS2_EEE8__appendEj
Ofc:__ZNSt3__26vectorIN9ShaderLab20SerializedSubProgram13BufferBindingENS_9allocatorIS3_EEEC2INS_11__wrap_iterIPS3_EEEET_SB_RKS5_PNS_9enable_ifIXaasr21__is_forward_iteratorISB_EE5valuesr16is_constructibleIS3_NS_15iterator_traitsISB_E9referenceEEE5valueEvE4typeE
iFi:__Z37RuntimeInvoker_Enumerator_t3436819725PFvvEPK10MethodInfoPvPS4_
EFf:_PlayableOutputHandle_op_Equality_m388301694
Jkg:_Encoding_get_ISOLatin1_m2107621369
h1f:_BigInteger_op_Inequality_m2697143438
Zje:__ZL89Mathf_t3464937446_CustomAttributesCacheGenerator_Mathf_SmoothDamp_m394423605____maxSpeed4P21CustomAttributesCache
UYd:__ZL72IntPtr_t_CustomAttributesCacheGenerator_IntPtr_op_Inequality_m3063970704P21CustomAttributesCache
mGb:__ZNK25PathNamePersistentManager30PathIDToFileIdentifierInternalEi
TSa:__ZN9Texture2D23VirtualRedirectTransferER18StreamedBinaryReadILb0EE
t6g:_DateTime_System_IConvertible_ToDouble_m2116720007_AdjustorThunk
RJg:_BitArrayEnumerator__ctor_m2359341397
OEh:_Enumerator_MoveNext_m1177880931_gshared
BQa:__ZNK12CubemapArray12GetDataWidthEv
o7e:_DefaultComparer__ctor_m3288720761_gshared
lAi:__Z102RuntimeInvoker_Int32_t2950945753_RuntimeObject_Vector2_t2156229523_Int32_t2950945753_Int32_t2950945753PFvvEPK10MethodInfoPvPS4_
NEj:__ZN30dense_hashtable_const_iteratorINSt3__24pairIK10KeyWrapperIPKcEP11Il2CppClassEES5_N6il2cpp5utils11StringUtils12StringHasherIS4_EEN14dense_hash_mapIS5_S8_SE_NS5_14EqualsComparerINSB_13VmStringUtils21CaseSensitiveComparerEEENS0_9allocatorIS9_EEE9SelectKeyESJ_SL_E30advance_past_empty_and_deletedEv
Bte:__ZL73g_UnityEngine_TextRenderingModule_Assembly_CustomAttributesCacheGeneratorP21CustomAttributesCache
q8:__ZN16ScriptingManager27NativeTypeForScriptingClassE17ScriptingClassPtr
iTh:_UInt64_System_IConvertible_ToDateTime_m3434604642
eQh:_Type_get_IsSerializable_m1040556850
m4c:_get_sfnt_table
IIi:_Array_Resize_TisUIVertex_t4057497605_m1219201596_gshared
V1d:__ZL55StreamWriter_t1266378904_CustomAttributesCacheGeneratorP21CustomAttributesCache
Jcj:_Parser_ResolveReferences_m1518052352
LNb:__ZThn10632_N13GfxDeviceGLES25SetStereoConstantPlatformEijRK8Vector4f
DUa:__ZN8Renderer20RendererAddedToSceneEv
h6b:__ZL22ScheduleSceneNodesJobsP25ScheduleSceneNodesJobDataj
Kk:_emscripten_set_canvas_size
lNa:__ZN18StreamedBinaryReadILb0EE19TransferSTLStyleMapINSt3__23mapIN9ShaderLab16FastPropertyNameEfNS2_4lessIS5_EENS2_9allocatorINS2_4pairIKS5_fEEEEEEEEvRT_17TransferMetaFlags
bFd:_Graphic_SetVerticesDirty_m2124914069
PNg:_CultureInfo__ctor_m3285927757
sUf:_MaskableGraphic_get_rootCanvasRect_m3492154629
TPc:__ZN9JSONWrite8TransferI13dynamic_arrayI11QuaternionfLj0EEEEvRT_PKc17TransferMetaFlags
hVc:__ZN9Scripting11UnityEngine9Physics2D9InitProxyEv
DIi:_Array_Resize_TisRaycastResult_t3360306849_m1811054291_gshared
ivc:__ZN12MeshRenderer27PrepareSingleRendererUpdateER13RendererSceneRS_10MemLabelId
nZh:_ReadOnlyCollection_1_System_Collections_Generic_ICollectionU3CTU3E_get_IsReadOnly_m3152485890_gshared
fgc:__ZNSt3__26vectorIN9ShaderLab20SerializedSubProgramENS_9allocatorIS2_EEE8__appendEj
q1:__ZN20DynamicHeapAllocatorI17LowLevelAllocatorE8AllocateEji
iid:__ZN11UnityEngine9Analytics15UserCustomEvent12ToJsonStringER9JSONWrite
Rjj:_Locale_GetText_m2427493201
k_b:__ZN20DynamicPropertySheet15SetVectorQueuedERKN9ShaderLab16FastPropertyNameERK8Vector4fN19ShaderPropertySheet8SetFlagsE
rD:__ZN7mecanim9animation22EvaluateAvatarRetargetEPKNS0_14AvatarConstantEPKNS0_11AvatarInputEPNS0_12AvatarOutputEPNS0_12AvatarMemoryEPNS0_15AvatarWorkspaceEb
m4e:_InternalEnumerator_1_System_Collections_IEnumerator_Reset_m996811230_AdjustorThunk
QGa:__ZN14RenderSettings23VirtualRedirectTransferER19StreamedBinaryWriteILb0EE
rSe:_ConstructorBuilder_get_TypeBuilder_m2755629087
sOc:__ZL26Transfer_SimpleNativeClassI9JSONWrite10RectOffsetLb0EEvRK29SerializationCommandArgumentsR31RuntimeSerializationCommandInfo
Dgk:_GC_push_conditional
$hd:__ZN21UnityAnalyticsManager23VirtualRedirectTransferER24GenerateTypeTreeTransfer
u_a:__ZN17GenericDynamicVBO10AllocateVBEjR21DynamicVBOChunkHandle
D8g:_DBNull_ToString_m3638608738
I5j:__ZN30dense_hashtable_const_iteratorI10KeyWrapperIP18Il2CppGenericClassES3_N6il2cpp8metadata22Il2CppGenericClassHashEN14dense_hash_setIS3_S6_NS3_14EqualsComparerINS5_25Il2CppGenericClassCompareEEENSt3__29allocatorIS3_EEE8IdentityESA_SD_EppEv
OJg:_BitArray_Clone_m3537018332
Lmf:_ObjectRecord_UnchainFixup_m3191243952
B6i:_TlsStream_get_CanWrite_m16389328
Ufd:__Z15GetUIModuleSpecv
Tti:__Z65RuntimeInvoker_RuntimeObject_RuntimeObject_Vector3U26_t3464235976PFvvEPK10MethodInfoPvPS4_
wXc:__ZN9Scripting11UnityEngine8UIVertex9InitProxyEv
hl:_glMapBufferRange
LSa:__ZN9Texture2D8TransferI18StreamedBinaryReadILb0EEEEvRT_
hrc:__Z31Input_CUSTOM_GetMouseButtonDowni
Lzc:__ZN13PlayableGraph4PlayEv
wab:__ZNK9Transform16GetLocalPositionEv
jmg:_EncoderExceptionFallbackBuffer_get_Remaining_m1573636148
XMe:_MonoType_get_BaseType_m1098640416
D5a:__ZN13LoadOperation19IntegrateTimeSlicedEi
U6i:_TlsStream_Read_m3392972801
mLf:_TouchScreenKeyboard_get_status_m3936201565
hNb:__ZN13GfxDeviceGLES22DispatchComputeProgramE12ObjectHandleI18ComputeProgram_TagPvE15ComputeBufferIDj
VIf:_Transform_get_localToWorldMatrix_m4155710351
CUb:__ZN20DefaultGfxDeviceImpl32InitStereoGlobalsBuffersPlatformEiijPKv
HJh:_Latin1Encoding_GetString_m254210343
F7a:__Z17TransformAABBSlowRK4AABBRK10Matrix4x4fRS_
$Cg:_Array_combsort_m4052486289
yGg:_Char_System_IConvertible_ToUInt16_m2449138174
jP:__ZN24AudioScriptBufferManager27InitialCompleteDomainReloadEv
ANi:_List_1_System_Collections_ICollection_get_SyncRoot_m314215814_gshared
Fec:__ZN9ShaderLab21SerializedShaderState8TransferI14SafeBinaryReadEEvRT_
Vch:_Environment_GetWindowsFolderPath_m1738399646
fYi:_Queue_1_System_Collections_Generic_IEnumerableU3CTU3E_GetEnumerator_m2263220760_gshared
xVi:_List_1_Sort_m378918663_gshared
Nxh:_DefaultComparer_GetHashCode_m77036565_gshared
F0c:_cf2_stack_pushInt
yG:__ZN7mecanim9animation20DestroyLayerConstantEPNS0_13LayerConstantERNS_6memory9AllocatorE
jD:__ZN8Animator19FireAnimationEventsERNS_11AnimatorJobE
hLd:_Module_GetCustomAttributes_m76573271
pqf:_CryptoConfig_EncodeOID_m2635914623
gNa:__ZN15SerializeTraitsINSt3__24pairIN4core12basic_stringIcNS2_20StringStorageDefaultIcEEEES6_EEE8TransferI24GenerateTypeTreeTransferEEvRS7_RT_
LAk:b89
KAk:b88
lzk:b81
kzk:b80
tSb:__ZN7ApiGLES19CreateSparseTextureEjj14GraphicsFormatiiiiRiS1_S1_
e9:__ZN18ResourceImageGroup7CleanupEv
yzk:b85
xzk:b84
JAk:b87
Ykg:_String_CharCopy_m3838781968
tq:__ZN11Quaternionf8TransferI24GenerateTypeTreeTransferEEvRT_
VWd:_RemotingSurrogateSelector_GetSurrogate_m3900875713
Bqi:__Z69RuntimeInvoker_Boolean_t97287965_UInt16_t2177724958_Int16_t2552820387PFvvEPK10MethodInfoPvPS4_
U$h:_ReadOnlyCollection_1_System_Collections_IList_get_IsReadOnly_m3626439112_gshared
P4f:_CertificateValidationCallback_Invoke_m1014111289
GIa:__ZN8Playable19SetOutputConnectionEPS_i
oWh:__ZN23InterfaceActionInvoker2Ii19Vector2_t2156229523E6InvokeEjP11Il2CppClassP12Il2CppObjectiS0_
HCa:__Z20RenderMultipleMeshesRK15RenderNodeQueueRK18RenderMultipleData16VertexInputMasks
Xl:_glDeleteShader
Xha:__ZN6prcoreL17RemapGenericFloatI15TexFormatRGHalf16TexFormatRGFloatEEvPKNS_9InnerInfoE
xJi:_Array_Sort_TisUICharInfo_t75501106_m128665067_gshared
S2c:_otv_GSUB_validate
qcg:_RSAPKCS1SignatureDeformatter_SetHashAlgorithm_m1602190713
Xbh:_Enum_System_IConvertible_ToByte_m1219166845
Hif:_Dictionary_2_CopyToCheck_m45332585_gshared
bTi:_List_1_System_Collections_ICollection_get_IsSynchronized_m3630704857_gshared
YZe:_InternalEnumerator_1_System_Collections_IEnumerator_Reset_m4239728915_AdjustorThunk
Sjc:__Z27scripting_add_internal_callPKcPKv
mwi:__Z38RuntimeInvoker_ContentType_t1787303396PFvvEPK10MethodInfoPvPS4_
MUj:__ZN13Il2CppHashMapINSt3__24pairIPK9EventInfoP11Il2CppClassEEj17ReflectionMapHashIS7_ENS0_8equal_toIS7_EENS0_9allocatorINS1_IK10KeyWrapperIS7_EjEEEEEC2EjRKS9_RKSB_
bte:__ZL106Transform_t3600365921_CustomAttributesCacheGenerator_Transform_INTERNAL_get_localToWorldMatrix_m1917635696P21CustomAttributesCache
lCa:__Z17GetPlayerSettingsv
Ouj:__ZL25UnresolvedVirtualCall_261P12Il2CppObject19Vector3_t3722313464PK10MethodInfo
RD:__ZN34BlobWriteTransferSTLStyleArrayImplI22OffsetPtrArrayTransferIiEEclERS1_17TransferMetaFlagsR9BlobWrite
CAf:_Input_get_inputString_m1307069105
$Ld:_MonoField_get_FieldHandle_m3729647377
MIc:__ZN9Scripting11UnityEngine3GUI9InitProxyEv
KXf:_ScrollRect_get_content_m2477524320
Qaf:_Enumerator_MoveNext_m1556953412_AdjustorThunk
rv:__ZN26AnimatorControllerPlayable18SetLayerAutoWeightEv
ced:__Z44Register_UnityEngine_Canvas_get_pixelPerfectv
gfj:_Literal_GetAnchorInfo_m810577400
zaf:_Enumerator__ctor_m65667165_AdjustorThunk
hhd:__ZN2UI14CanvasRenderer12SyncMaterialENS0_8SyncFlagE
x_g:_StreamWriter_Write_m1660535366
IBi:__Z66RuntimeInvoker_Void_t1185182177_Int32_t2950945753_Link_t3209266973PFvvEPK10MethodInfoPvPS4_
Dkk:__ZN6il2cpp2vm9Parameter30GetDefaultParameterValueObjectEPK10MethodInfoPK13ParameterInfoPb
ILh:_UTF8Encoding_GetByteCount_m4152118078
qqg:_ServicePoint_set_UseNagleAlgorithm_m1374731041
Mrh:_KeyPairPersistence__CanSecure_m3516574278
rc:invoke_iiiiiiiii
wmi:__Z95RuntimeInvoker_Void_t1185182177_RuntimeObject_RuntimeObject_Int32_t2950945753_SByte_t1669577662PFvvEPK10MethodInfoPvPS4_
Psf:_MD5CryptoServiceProvider_Dispose_m3502499818
X0i:_Collection_1_System_Collections_IList_get_Item_m2422562729_gshared
Psi:__Z87RuntimeInvoker_Void_t1185182177_RuntimeObject_StringU26_t181565287_StringU26_t181565287PFvvEPK10MethodInfoPvPS4_
EHa:__ZN12LightManager28IsLightTransformDataUpToDateEPK5Light
QZd:__ZL74RuntimeArray_CustomAttributesCacheGenerator_Array_BinarySearch_m3171087170P21CustomAttributesCache
_4c:_UNITY_tt_face_done_kern
V5f:_SecurityParameters_get_ServerWriteMAC_m3430427271
jxe:__ZL90GUIStyle_t3956901511_CustomAttributesCacheGenerator_GUIStyle_get_stretchHeight_m4172805773P21CustomAttributesCache
Dze:__ZL68g_UnityEngine_StandardEvents_Assembly_CustomAttributesCacheGeneratorP21CustomAttributesCache
GXe:_ArrayReadOnlyList_1_RemoveAt_m2104218585_gshared
GXa:__ZN12BoneWeights48TransferI24GenerateTypeTreeTransferEEvRT_
Jgh:_Array_InternalArray__IEnumerable_GetEnumerator_TisParameterModifier_t1461694466_m3675077728_gshared
$ka:__ZL49__ManagedRegistrationHelperFunction_PreLateUpdatePv
wEe:__ZL60RawImage_t3182918964_CustomAttributesCacheGenerator_m_UVRectP21CustomAttributesCache
QWh:__ZN21InterfaceFuncInvoker1I19Vector3_t3722313464iE6InvokeEjP11Il2CppClassP12Il2CppObjecti
cHb:__Z19scripting_gc_enablev
S4e:_InternalEnumerator_1_get_Current_m2907722321_gshared
AVb:__ZZ23InitPlayerLoopCallbacksvEN41InitializationPlayerUpdateTimeRegistrator7ForwardEv
uCc:__ZN11UTF16StringC2ERKS_10MemLabelId
sbc:__Z29StdTemplateConversionFunctionIihEbPvR14SafeBinaryRead
b6e:_InternalEnumerator_1_get_Current_m3792939945_AdjustorThunk
rfd:__Z55Register_UnityEngine_CanvasRenderer_DisableRectClippingv
tt:__ZN9Scripting11UnityEngine10Animations16ConstraintSource12CleanupProxyEv
qPh:_TimeSpan_Subtract_m1264203589_AdjustorThunk
HKd:_MethodBase__ctor_m1907868998
aEe:__ZL118U3CCaretBlinkU3Ec__Iterator0_t2589889038_CustomAttributesCacheGenerator_U3CCaretBlinkU3Ec__Iterator0_Reset_m1547565867P21CustomAttributesCache
Lib:__ZN9GfxDevice22UploadTextureCubeArrayE9TextureIDPKhjii14GraphicsFormati18TextureUploadFlags
x$e:_InternalEnumerator_1_System_Collections_IEnumerator_get_Current_m888718134_gshared
rii:__Z175RuntimeInvoker_Void_t1185182177_SByte_t1669577662_SByte_t1669577662_SByte_t1669577662_SByte_t1669577662_SByte_t1669577662_SByte_t1669577662_SByte_t1669577662_SByte_t1669577662PFvvEPK10MethodInfoPvPS4_
Ghh:_Array_compare_TisRaycastResult_t3360306849_m822404090_gshared
DEf:_Object_Destroy_m3118546832
gYh:_ReadOnlyCollection_1_System_Collections_Generic_IListU3CTU3E_set_Item_m519295790_gshared
R6g:_DateTime_FromTicks_m4059645178_AdjustorThunk
CLi:_Array_InternalArray__get_Item_TisClientCertificateType_t1004704908_m2297379651_gshared
KSd:_ConfigHandler_ParseTime_m1787834288
Uic:__ZN9ShaderLab7Program27CreateFromSerializedProgramERKNS_17SerializedProgramE10ShaderTypeiP16PropertyNamesSetPK6Shader
$eh:_Array_InternalArray__ICollection_Remove_TisX509ChainStatus_t133602714_m3635989134_gshared
AQe:_Assembly_Load_m3487507613
AK:__ZNSt3__27__sort4IRNS_6__lessIN4core12basic_stringIcNS2_20StringStorageDefaultIcEEEES6_EEPS6_EEjT0_SA_SA_SA_T_
btk:dynCall_viiiifii
oTj:__ZN6il2cpp2gc19AppendOnlyGCHashMapINSt3__24pairIPK11Il2CppImageP11Il2CppClassEEP22Il2CppReflectionModule17ReflectionMapHashIS9_ENS2_8equal_toIS9_EEEC2Ev
w6:__Z20GetPersistentManagerv
i8c:_UNITY_TT_Set_Var_Design
O2:__ZN21SystemInfoStringCache16StaticInitializeEPv
ube:__ZL80Convert_t2465617642_CustomAttributesCacheGenerator_Convert_ToDecimal_m1695757674P21CustomAttributesCache
fog:_NameObjectCollectionBase_FindFirstMatchedItem_m840305173
HYh:_ReadOnlyCollection_1_System_Collections_Generic_ICollectionU3CTU3E_Remove_m1100818788_gshared
V6j:__ZNK10KeyWrapperIP12Il2CppObjectE14EqualsComparerINSt3__28equal_toIS1_EEEclERKS2_S9_
Ifc:__ZNSt3__26vectorIN9ShaderLab20SerializedSubProgram15StructParameterENS_9allocatorIS3_EEE6assignIPS3_EENS_9enable_ifIXaasr21__is_forward_iteratorIT_EE5valuesr16is_constructibleIS3_NS_15iterator_traitsISA_E9referenceEEE5valueEvE4typeESA_SA_
lXh:_Collection_1_IsSynchronized_m2291009199_gshared
zjd:__ZN9Scripting11UnityEngine9Analytics21AnalyticsSessionState12CleanupProxyEv
DEb:__ZNK13MonoBehaviour7GetNameEv
M8a:__ZN19ScriptingInvocation28AdjustArgumentsToMatchMethodEv
eci:_IndexedSet_1_Contains_m1525966688_gshared
vM:__Z15_CheckFMODError11FMOD_RESULTPKciS1_
O0j:__ZN6il2cpp6icalls8mscorlib6SystemL16ThrowInvalidCastEPK11Il2CppClassS5_
Xzh:_EqualityComparer_1_get_Default_m79107703_gshared
$rf:_HMAC_KeySetup_m661741544
_ce:__ZL61MonoEnumInfo_t3694469084_CustomAttributesCacheGenerator_cacheP21CustomAttributesCache
c5j:__ZN6il2cpp2vm5Field11SetValueRawEPK10Il2CppTypePvS5_b
vJh:_Latin1Encoding__ctor_m498920120
tWj:__ZN6il2cpp2vm4Type19GetGenericParameterEPK10Il2CppType
_Zg:_StreamReader_Peek_m2272511193
gPg:_DateTimeFormatInfo_FillAllDateTimePatterns_m2683124783
Aed:__Z51Register_UnityEngine_CanvasGroup_get_blocksRaycastsv
lOe:_NumberFormatter_get_IsFloatingSource_m3714711779
g2i:_Collection_1_System_Collections_IList_Add_m1403891193_gshared
c$e:_InternalEnumerator_1_System_Collections_IEnumerator_Reset_m169899350_AdjustorThunk
PQh:_Type_GetConstructor_m1195697116
rd:_glBeginQuery
Nhh:__ZN21InterfaceFuncInvoker2Ii19Vector2_t2156229523S0_E6InvokeEjP11Il2CppClassP12Il2CppObjectS0_S0_
lla:__ZL48__ManagedRegistrationHelperFunction_VisibleLightPv
dxj:_Canvas_get_scaleFactor_m3314757802
pXb:__ZN6Camera12RenderStereoENS_10RenderFlagE8CullFlagPNS_24PerformEyeRenderFunctionE
vcb:__ZN20LocalFileSystemPosix10ToAbsoluteEPKc
iGa:__ZN20TierGraphicsSettings8TransferI19StreamedBinaryWriteILb0EEEEvRT_
CCk:b111
L7a:__Z23CollectSceneGameObjectsR13dynamic_arrayIiLj0EE
Adk:__ZN6il2cpp2vm13ComObjectBase16DisconnectObjectEj
yBh:_GenericComparer_1__ctor_m3652072706_gshared
Cm:f0
Gp:__ZN6Object17MainThreadCleanupEv
DFa:__Z32TransferEnumWithNameForceIntSizeI14SafeBinaryRead7HDRModeEvRT_RT0_PKc17TransferMetaFlags
Eok:_getcwd
Tua:__ZN25ThreadsafeLinearAllocatorD2Ev
L6a:__Z21SendMessageToEveryoneRK17MessageIdentifier11MessageData
Kca:__ZN21BillboardBatchManager16StaticInitializeEPv
Y1g:_DateTime_AbsoluteDays_m4235097773
j4:__ZN12_GLOBAL__N_138ArchiveRedirectFileSystemStaticDestroyEPv
G_d:__ZL126U3CGetEnumeratorU3Ec__Iterator0_t1202911786_CustomAttributesCacheGenerator_U3CGetEnumeratorU3Ec__Iterator0_Dispose_m2078994225P21CustomAttributesCache
Cdi:__Z74RuntimeInvoker_RuntimeObject_RuntimeObject_RuntimeObject_SByte_t1669577662PFvvEPK10MethodInfoPvPS4_
Q_d:__ZL69Type_t_CustomAttributesCacheGenerator_Type_GetConstructor_m1195697116P21CustomAttributesCache
VCd:_DefaultControls_CreateScrollView_m3842770629
bVc:__ZL55__ManagedRegistrationHelperFunction_PhysicsJobOptions2DPv
FQa:__ZN12CubemapArray34UpdateFileTextureUploadInstructionEP26FileAssetUploadInstructionj
e2d:__ZL94EnumBuilder_t2400448213_CustomAttributesCacheGenerator_EnumBuilder_GetConstructors_m3294436155P21CustomAttributesCache
QCi:__Z55RuntimeInvoker_TableRange_t3332867892_Int32_t2950945753PFvvEPK10MethodInfoPvPS4_
p2e:_InternalEnumerator_1_MoveNext_m1020308708_gshared
sSb:__Z23CreateSparseTextureGLES9TextureIDii14GraphicsFormati
y3c:_otv_Anchor_validate
SR:__ZN13dynamic_arrayI12SoundChannelLj0EE9push_backERKS0_
uJg:_SynchronizedArrayListWrapper_CopyTo_m4207791406
IMg:_CCMath_mod_m3631663509
oPh:_TimeSpan_Negate_m1889505500_AdjustorThunk
m0h:_ReadOnlyCollection_1_System_Collections_ICollection_CopyTo_m2715087453_gshared
iye:__ZL84Canvas_t3310196443_CustomAttributesCacheGenerator_Canvas_get_scaleFactor_m3314757802P21CustomAttributesCache
Ydf:_Transform_1__ctor_m2810088858_gshared
Vfb:__ZN16MemoryFileSystemD0Ev
Jmd:__ZN11UnityEngine7Connect20RemoteConfigSettings7SetJSONER8JSONReadb
KJj:__ZN6il2cpp2vm13MetadataCache37GetParameterDefaultValueDataFromIndexEi
zXj:_il2cpp_class_get_assemblyname
mni:__Z50RuntimeInvoker_SByte_t1669577662_SByte_t1669577662PFvvEPK10MethodInfoPvPS4_
JFd:_Graphic_OnFillVBO_m1026749972
pCj:__ZN6il2cpp2vm5Class15GetEnumBaseTypeEP11Il2CppClass
a8f:_Context_set_WriteSequenceNumber_m942577065
Wd:_glVertexAttrib4fv
jug:_X509CertificateEnumerator_Reset_m4026698923
Wdk:__ZNK6il2cpp5utils13VmStringUtils23CaseInsensitiveComparerclERKNSt3__212basic_stringIcNS3_11char_traitsIcEENS3_9allocatorIcEEEEPKc
bAd:_CanvasScaler_SetScaleFactor_m3006968999
TEi:__Z78RuntimeInvoker_Boolean_t97287965_Navigation_t3049316579_Navigation_t3049316579PFvvEPK10MethodInfoPvPS4_
eRa:__ZNK9Texture2D16GetNpotTexelSizeEv
$Ne:_NumberFormatter_Init_m3576155222
tdb:__ZL33FileEntryInfoListToFolderContentsRKN4core12basic_stringIcNS_20StringStorageDefaultIcEEEERK19dynamic_block_arrayI13FileEntryInfoLj32EERNSt3__23setIS3_NSB_4lessIS3_EENSB_9allocatorIS3_EEEE
DTf:_LayoutUtility_GetLayoutProperty_m714717302
Yvj:_Terminal_NotifyCommandHandlers_m909296863
iSj:__ZN24dense_hashtable_iteratorINSt3__24pairIK10KeyWrapperINS1_IPK12PropertyInfoP11Il2CppClassEEEjEES9_17ReflectionMapHashIS8_EN14dense_hash_mapIS9_jSD_NS9_14EqualsComparerINS0_8equal_toIS8_EEEENS0_9allocatorISB_EEE9SelectKeyESI_SK_E30advance_past_empty_and_deletedEv
qUh:__ZN23InterfaceActionInvoker1IP39UnhandledExceptionEventArgs_t2886101344E6InvokeEjP11Il2CppClassP12Il2CppObjectS1_
lud:_EventSystem_set_sendNavigationEvents_m983981895
Mhb:__ZN9GfxDevice22GetDefaultVertexBufferE26GfxDefaultVertexBufferTypej
Hdh:_Array_InternalArray__ICollection_Contains_TisInt64_t3736567304_m2911357929_gshared
jIb:__Z17BeginSplashScreenb
h1i:_Collection_1_Remove_m3022471627_gshared
Wok:___fseeko_unlocked
Opa:__ZN9Scripting11UnityEngine12Experimental9Playables21TexturePlayableOutput12CleanupProxyEv
APe:_Object_ToString_m1740002499
Ook:_sscanf
Kvd:_ExecuteEvents_GetEventChain_m2404658789
HIi:_Array_Resize_TisUILineInfo_t4195266810_m3763058392_gshared
Lpf:_SByte_ToString_m3584531119_AdjustorThunk
Xhc:__ZN9ShaderLab16SerializedShader8TransferI19StreamedBinaryWriteILb0EEEEvRT_
xmj:_TrackableProperty_GetHashCode_m3407865350
ku:__ZN7mecanim9animation18CreateAvatarMemoryEPKNS0_14AvatarConstantERNS_6memory9AllocatorE
G3g:_Convert_ToInt32_m1876369743
H0f:_ModulusRing__ctor_m2420310199
b2g:_Convert_ToDateTime_m626620011
jbf:_Enumerator_System_Collections_IDictionaryEnumerator_get_Key_m2500634048_AdjustorThunk
BE:__ZN7mecanim8skeleton16SkeletonPoseCopyIN4math4trsXENS2_7affineXEEEvPKNS0_13SkeletonPoseTIT_EEPNS5_IT0_EE
exb:__Z18Transfer_BlittableI19StreamedBinaryWriteILb0EELb0EaEvRK29SerializationCommandArgumentsR31RuntimeSerializationCommandInfo
kIh:_List_1_Remove_m3037048099_gshared
WPb:__ZN18GfxFramebufferGLES18GetFramebufferNameERK20GfxRenderTargetSetup
Fna:__ZN9Scripting11UnityEngine9Transform9InitProxyEv
NVj:__ZN6il2cpp2vm14TypeNameParser12ParseVersionERKNSt3__212basic_stringIcNS2_11char_traitsIcEENS2_9allocatorIcEEEERtSB_SB_SB_
RQf:_InputField_MoveDown_m1455948167
fJc:__Z30Event_Get_Custom_PropCharacterP12Il2CppObject
sea:__ZN13PlayableGraph27SchedulePlayableDestructionERK9HPlayable
J2c:_cff_get_mm_var
ewk:_glGetFramebufferAttachmentParameteriv__wrapper
DRd:_ChannelServices_GetCurrentChannelInfo_m3041604116
r5e:_InternalEnumerator_1__ctor_m2635640285_AdjustorThunk
Ypb:__Z22scripting_array_length17ScriptingArrayPtr
lJe:_SynchronizedReader_Peek_m148942882
lhi:__Z95RuntimeInvoker_Void_t1185182177_RuntimeObject_Int32_t2950945753_Int32_t2950945753_RuntimeObjectPFvvEPK10MethodInfoPvPS4_
PPa:__ZN14SafeBinaryRead20TransferTypelessDataEjPvi
x9j:__ZN15dense_hashtableINSt3__24pairIK10KeyWrapperIPcES3_EES4_N6il2cpp5utils15PassThroughHashIS3_EEN14dense_hash_mapIS4_S3_SA_NS4_14EqualsComparerINS0_8equal_toIS3_EEEENS0_9allocatorIS6_EEE9SelectKeyESF_SH_E3endEv
A9c:_Horizontal_Sweep_Init
aCa:__Z19GetActiveColorSpacev
B4c:_UNITY_tt_face_load_kern
DLd:_MonoMethodInfo_GetDeclaringType_m2924452727
A3:__Z6StrCmpPKcS0_
AXf:_Scrollbar_OnInitializePotentialDrag_m3588541308
Kjc:__Z21CheckGpuProgramUsable20ShaderGpuProgramType
uuc:__ZN13ProduceHelperI14Texture2DArrayLb0EE7ProduceE10MemLabelId18ObjectCreationMode
lbk:__ZN6il2cpp2os9Directory20GetFileSystemEntriesERKNSt3__212basic_stringIcNS2_11char_traitsIcEENS2_9allocatorIcEEEESA_iiPi
NBg:_Array_System_Collections_IList_Add_m1063688101
RYc:__ZN20TextRenderingPrivate19NativeTextGenerator5SetupEv
d3b:__ZNK15SharedLightData24GetFinalShadowResolutionEv
kcj:_PatternCompiler_EmitAlternationEnd_m2444359097
Jre:__ZL91GameObject_t1113636619_CustomAttributesCacheGenerator_GameObject_get_activeSelf_m1767405923P21CustomAttributesCache
L2a:__ZN12AspectRatios8TransferI18StreamedBinaryReadILb0EEEEvRT_
clc:__ZN10GameObject14CopyPropertiesERS_
JKc:__Z44Register_UnityEngine_GUIStyle_get_fixedWidthv
Eeh:_Array_InternalArray__ICollection_Remove_TisLink_t544317964_m1280781374_gshared
Vak:__ZNSt3__214__split_bufferIN6il2cpp2os10ThreadImpl10APCRequestERNS_9allocatorIS4_EEEC2EjjS7_
dEg:_BitConverter_DoubleWordsAreSwapped_m1474345095
IIg:_FixedSizeArrayListWrapper_set_Capacity_m4221053039
ppk:_rand
Iwk:_emscripten_glFramebufferRenderbuffer__wrapper
hBc:__ZN13MeshScripting10CreateMeshE21ScriptingObjectOfTypeI4MeshE
cdi:_ListPool_1__cctor_m3480273184_gshared
Esi:__Z56RuntimeInvoker_Void_t1185182177_PropertyName_t3749835189PFvvEPK10MethodInfoPvPS4_
Wx:__ZN17AnimationPlayable22PrepareAnimationEventsEfR13dynamic_arrayI22AnimationClipEventInfoLj0EE
qvd:__ZN23InterfaceActionInvoker1IP25BaseEventData_t3903027533E6InvokeEjP11Il2CppClassP12Il2CppObjectS1_
Xqb:__ZN14SafeBinaryRead21TransferSTLStyleArrayINSt3__26vectorI17AnimationCurveTplIfE13stl_allocatorIS4_L18MemLabelIdentifier1ELi16EEEEEEvRT_17TransferMetaFlags
lJg:_SynchronizedArrayListWrapper_Contains_m3809499313
r9f:_HandshakeMessage_Compare_m2214647946
Reh:_Array_InternalArray__ICollection_Remove_TisLabelData_t360167391_m3556246844_gshared
uRj:__ZN15dense_hashtableINSt3__24pairIK10KeyWrapperINS1_IPK11Il2CppImageP11Il2CppClassEEEjEES9_17ReflectionMapHashIS8_EN14dense_hash_mapIS9_jSD_NS9_14EqualsComparerINS0_8equal_toIS8_EEEENS0_9allocatorISB_EEE9SelectKeyESI_SK_E12expand_arrayEjN21dense_hash_map_traits17integral_constantIbLb0EEE
fkb:__ZN9GfxDevice30ResolveComputeProgramResourcesE12ObjectHandleI18ComputeProgram_TagPvER19ComputeShaderKernelR13dynamic_arrayI15ComputeShaderCBLj0EERS6_I18ComputeShaderParamLj0EEb
nsf:_HMACSHA256__ctor_m346174875
_vf:_Color_op_Multiply_m2887457390
kXi:_List_1_Remove_m2092443302_gshared
C5b:__Z22PrepareOptimizedPlanesPK5PlaneiPKN4math7_float4E
k$e:_InternalEnumerator_1__ctor_m1559487635_gshared
$$:__ZN11UnityEngine15CloudWebService17WebFileDownloaderINS0_20WebRequestRestClientENS0_23WebRequestRestHeaderMapEE10InitializeERKN4core12basic_stringIcNS5_20StringStorageDefaultIcEEEE
Ica:__ZN17UniqueIDGenerator15CreatePureIndexEv
Jsc:__Z48InitializeRectTransformAnimationBindingInterfacev
i5a:__ZNSt3__26vectorIN15ResourceManager10DependencyE13stl_allocatorIS2_L18MemLabelIdentifier52ELi16EEE6assignINS_11__wrap_iterIPS2_EEEENS_9enable_ifIXaasr21__is_forward_iteratorIT_EE5valuesr16is_constructibleIS2_NS_15iterator_traitsISC_E9referenceEEE5valueEvE4typeESC_SC_
EBj:__ZN15dense_hashtableINSt3__24pairIK10KeyWrapperIPK22Il2CppGenericParameterEP11Il2CppClassEES6_N6il2cpp5utils11PointerHashIS4_EEN14dense_hash_mapIS6_S9_SE_NS6_14EqualsComparerINS0_8equal_toIS5_EEEENS0_9allocatorISA_EEE9SelectKeyESJ_SL_E14squash_deletedEv
uLa:__ZN9ShaderLabL27GetDesiredRenderTextureDescEPK6Camera
i8d:__ZL131RSACryptoServiceProvider_t2683512874_CustomAttributesCacheGenerator_RSACryptoServiceProvider_t2683512874____PublicOnly_PropertyInfoP21CustomAttributesCache
lGi:_Array_InternalArray__Insert_TisMark_t3471605523_m2854535880_gshared
MAc:__ZN4Mesh24UpdateSubMeshVertexRangeEi
HJc:__Z14GUIClipTextureP9Texture2DPhiiii
Fue:__ZL52HumanBone_t2465339518_CustomAttributesCacheGeneratorP21CustomAttributesCache
CWd:_MethodReturnDictionary__cctor_m278392388
$Yb:__ZNK9Transform18TransformDirectionERK8Vector3f
F5i:_SslStreamBase_get_CanWrite_m1622082918
deb:__ZNK17ArchiveFileSystem12GetAssetGUIDERK13FileEntryData
XFe:__ZL80CanvasScaler_t2767979955_CustomAttributesCacheGenerator_m_ReferencePixelsPerUnitP21CustomAttributesCache
P7d:__ZL47HMAC_t2621101144_CustomAttributesCacheGeneratorP21CustomAttributesCache
sph:_PrimalityTests_RabinMillerTest_m1471415870
qEh:_Enumerator_MoveNext_m2114485647_gshared
XUe:_GenericTypeParameterBuilder_GetCustomAttributes_m580748276
Llj:_AnalyticsTracker_get_TP_m2800669040
tIj:__ZN15dense_hashtableINSt3__24pairIK10KeyWrapperIPK11Il2CppClassEPKcEES6_N6il2cpp5utils11PointerHashIS3_EEN14dense_hash_mapIS6_S9_SE_NS6_14EqualsComparerINS0_8equal_toIS5_EEEENS0_9allocatorISA_EEE9SelectKeyESJ_SL_E12resize_deltaEjj
_qk:__ZNK10__cxxabiv120__si_class_type_info27has_unambiguous_public_baseEPNS_19__dynamic_cast_infoEPvi
M0f:_Kernel_LeftShift_m4140742987
nQe:_Assembly_GetManifestResourceInternal_m1224391897
PCa:__Z30AddDefaultStreamsToMeshBuffersR9GfxDeviceR11MeshBuffersj17ShaderChannelMaskS3_
M3:__ZL16GetInterfaceImpl18UnityInterfaceGUID
Jdk:__ZN6il2cpp6icalls8mscorlib6System15MonoCustomAttrs27GetCustomAttributesInternalEP12Il2CppObjectP20Il2CppReflectionTypeb
B2e:_InternalEnumerator_1_get_Current_m1408339225_AdjustorThunk
F8c:_UNITY_TT_Set_MM_Blend
pra:__ZN9Scripting11UnityEngine11Application9InitProxyEv
H4i:_InternalAsyncResult_get_FromWrite_m4228047810
Aki:__Z53RuntimeInvoker_MonoEventInfo_t346866618_RuntimeObjectPFvvEPK10MethodInfoPvPS4_
wVh:_Collection_1_CopyTo_m955200729_gshared
BIb:__ZN14PreloadManager35WaitForAllAsyncOperationsToCompleteEv
TDj:__ZN13Il2CppHashMapIP9FieldInfoiN6il2cpp5utils11PointerHashIS0_EENSt3__28equal_toIS1_EENS6_9allocatorINS6_4pairIK10KeyWrapperIS1_EiEEEEEC2EjRKS5_RKS8_
Bye:__ZL103UISystemProfilerApi_t2230074258_CustomAttributesCacheGenerator_UISystemProfilerApi_AddMarker_m495483138P21CustomAttributesCache
G5:__ZNK18ScriptingObjectPtr17ToScriptingStringEv
rM:__ZL31InitializeAudioScriptingClassesv
uYb:__Z14SortGUIByDepthP10GUIElementS0_
$Ab:__ZN18StreamedBinaryReadILb1EE21TransferSTLStyleArrayI13dynamic_arrayIhLj0EEEEvRT_17TransferMetaFlags
ODf:_PlayerConnection_OnEnable_m4286555589
spi:__Z69RuntimeInvoker_UInt32_t2560061978_Int32_t2950945753_SByte_t1669577662PFvvEPK10MethodInfoPvPS4_
tF:__ZN12_GLOBAL__N_120ProcessRootMotionMixER33AnimationPlayableEvaluationOutputR35AnimationPlayableEvaluationConstantR32AnimationPlayableEvaluationInputS1_f
Sgj:_UriParser__cctor_m3655686731
tTf:_LayoutRebuilder_U3Cs_RebuildersU3Em__0_m589488547
wEi:__Z53RuntimeInvoker_KeyValuePair_2_t71524366_RuntimeObjectPFvvEPK10MethodInfoPvPS4_
Xcb:__ZNK20LocalFileSystemPosix21GetAvailableDiskSpaceEPKcRy
wK:__ZNSt3__26__treeIiNS_4lessIiEENS_9allocatorIiEEE7destroyEPNS_11__tree_nodeIiPvEE
xhb:__ZNK9GfxDevice14GetWorldMatrixEv
WKj:_RemoteConfigSettings_t1247263429_marshal_pinvoke
SLf:_Transform_set_parent_m786917804
Apj:_AudioSampleProvider_InternalSetScriptingPtr_m3742743270
v_f:_Slider_get_value_m739683640
tbb:__Z19scripting_array_new17ScriptingClassPtrjj
O3g:_Convert_ToInt32_m2128774575
LR:__ZN11SoundHandle13CreateChannelEb
INh:_WaitCallback_BeginInvoke_m3012509827
ngc:__ZNSt3__26vectorIN9ShaderLab20SerializedSubProgram16TextureParameterENS_9allocatorIS3_EEE6assignIPS3_EENS_9enable_ifIXaasr21__is_forward_iteratorIT_EE5valuesr16is_constructibleIS3_NS_15iterator_traitsISA_E9referenceEEE5valueEvE4typeESA_SA_
WGj:__ZN13Il2CppHashMapIN6il2cpp5utils13dynamic_arrayIPK10Il2CppTypeLj4EEEPFvvENS0_8metadata19Il2CppSignatureHashENS9_22Il2CppSignatureCompareENSt3__29allocatorINSC_4pairIK10KeyWrapperIS6_ES8_EEEEEC2EjRKSA_RKSB_
lTi:__ZN21InterfaceFuncInvoker0I22UILineInfo_t4195266810E6InvokeEjP11Il2CppClassP12Il2CppObject
Mhi:__Z122RuntimeInvoker_Void_t1185182177_RuntimeObject_RuntimeObject_ContractionU5BU5DU26_t2277527001_Level2MapU5BU5DU26_t359320357PFvvEPK10MethodInfoPvPS4_
WTj:__ZN15dense_hashtableINSt3__24pairIK10KeyWrapperIPK22Il2CppGenericParameterEPK24MonoGenericParameterInfoEES6_N6il2cpp5utils11PointerHashIS4_EEN14dense_hash_mapIS6_SA_SF_NS6_14EqualsComparerINS0_8equal_toIS5_EEEENS0_9allocatorISB_EEE9SelectKeyESK_SM_E15set_deleted_keyERKSB_
Jpf:_SByte_TryParse_m2431806379
eFj:__ZNK15dense_hashtableINSt3__24pairIK10KeyWrapperIP9FieldInfoEiEES5_N6il2cpp5utils11PointerHashIS3_EEN14dense_hash_mapIS5_iSB_NS5_14EqualsComparerINS0_8equal_toIS4_EEEENS0_9allocatorIS7_EEE9SelectKeyESG_SI_E8min_sizeEjj
Ide:__ZL64ObjectDisposedException_t21392786_CustomAttributesCacheGeneratorP21CustomAttributesCache
oIa:__ZN6prcoreL11inner_clearILj2EEEvPhjjj
$ra:__ZN9Scripting5Unity11Collections8LowLevel6Unsafe24NativeContainerAttribute9InitProxyEv
lrf:_DSACryptoServiceProvider_get_KeySize_m786836990
REj:__ZNSt3__218uninitialized_fillIPNS_4pairIK10KeyWrapperIPKcEP11Il2CppClassEES9_EEvT_SB_RKT0_
Hg:_emscripten_exit_fullscreen
NHi:_Array_qsort_TisBoolean_t97287965_TisBoolean_t97287965_m214793583_gshared
zDh:_Enumerator_System_Collections_IEnumerator_Reset_m1564381721_gshared
Psc:__ZZL31RegisterRectTransformPropertiesR22GenericPropertyBindingEN39Wrapper_RectTransformAnchoredPositiony113GetFloatValueEPv
uPe:_Object_MemberwiseClone_m1474068832
dak:__ZN6il2cpp6icalls8mscorlib6System6String19InternalAllocateStrEi
USc:__Z29Transfer_Blittable_ArrayFieldI8JSONRead11QuaternionfEvRT_R9ArrayInfoRK23StaticTransferFieldInfo
Ecb:__ZN20LocalFileSystemPosix8SetFlagsER13FileEntryDatajj
Joc:__Z45Register_UnityEngine_Camera_get_targetDisplayv
nxc:__ZNK24RendererAnimationBinding15GenerateBindingERKN4core12basic_stringIcNS0_20StringStorageDefaultIcEEEEbRN11UnityEngine9Animation14GenericBindingE
Ypg:_IPv6Address__ctor_m3704187391
CHa:__Z15GetFlareManagerv
spc:__ZN15ApplicationInfo24GetApplicationIdentifierEv
$sa:__ZN9Behaviour8TransferI18StreamedBinaryReadILb0EEEEvRT_
ou:__ZN8Animator13GetAvatarRootEv
hkh:_Array_InternalArray__ICollection_Add_TisResourceCacheItem_t51292791_m3851804827_gshared
pnk:___toread
qGb:__ZNSt3__26vectorI10vector_mapIiiNS_4lessIiEE13stl_allocatorINS_4pairIiiEEL18MemLabelIdentifier38ELi16EEES4_IS9_LS7_38ELi16EEE26__swap_out_circular_bufferERNS_14__split_bufferIS9_RSA_EE
i0f:_BigInteger_get_Rng_m3283260184
Brk:___cxa_is_pointer_type
nJ:__ZN8Animator22ScriptingStringToCRC32ERK11ICallString
ree:__ZL55EventHandler_t1348719766_CustomAttributesCacheGeneratorP21CustomAttributesCache
vF:__ZN7mecanim9animation16EvaluateAvatarDXEPKNS0_14AvatarConstantEPKNS0_11AvatarInputEPNS0_12AvatarMemoryEPNS0_15AvatarWorkspaceEPNS0_12AvatarOutputE
Exd:_RaycastResult_ToString_m2678663776_AdjustorThunk
LLi:_Array_InternalArray__get_Item_TisKeyValuePair_2_t2530217319_m2886833132_gshared
TAb:__ZN18StreamedBinaryReadILb1EE21TransferSTLStyleArrayI13dynamic_arrayIN4math12int3_storageELj0EEEEvRT_17TransferMetaFlags
Mka:__ZL50__ManagedRegistrationHelperFunction_UnityEventBasePv
nqc:__Z34Transform_CUSTOM_SetAsFirstSiblingP12Il2CppObject
LOj:__ZNK15dense_hashtableINSt3__24pairIK10KeyWrapperINS1_IPK14Il2CppAssemblyP11Il2CppClassEEEjEES9_17ReflectionMapHashIS8_EN14dense_hash_mapIS9_jSD_NS9_14EqualsComparerINS0_8equal_toIS8_EEEENS0_9allocatorISB_EEE9SelectKeyESI_SK_E10test_emptyEj
qsj:__ZL25UnresolvedVirtualCall_129P12Il2CppObjectjijPK10MethodInfo
Fhi:__Z63RuntimeInvoker_Void_t1185182177_RuntimeObject_SByte_t1669577662PFvvEPK10MethodInfoPvPS4_
jje:__ZL57SetupCoroutine_t2062820429_CustomAttributesCacheGeneratorP21CustomAttributesCache
GQf:_InputField_Delete_m3471899192
Jce:__ZL79Convert_t2465617642_CustomAttributesCacheGenerator_Convert_ToUInt64_m1627266664P21CustomAttributesCache
q5d:__ZL91UrlAttribute_t221584584_CustomAttributesCacheGenerator_UrlAttribute_IsContextOK_m1228378186P21CustomAttributesCache
Ikf:_RemotingConfiguration_get_ProcessId_m2180277012
Vtj:__ZL25UnresolvedVirtualCall_214P12Il2CppObjectS0_iPK10MethodInfo
xY:__ZN11UnityEngine15CloudWebService17SessionEventQueue14ParseEventDataERKN4core12basic_stringIcNS2_20StringStorageDefaultIcEEEE
Cqg:_WebHeaderCollection_Add_m183143026
oHh:_List_1_Remove_m2605758101_gshared
POb:__ZN13TranslateGLES4InitERK12GraphicsCaps16GfxDeviceLevelGL
iDb:__Z29Transfer_Blittable_ArrayFieldI18StreamedBinaryReadILb0EE10ColorRGBAfEvRT_R9ArrayInfoRK23StaticTransferFieldInfo
ZAj:_NativeTypeAttribute_set_CodegenOptions_m3839252515
Hyh:_EqualityComparer_1_get_Default_m180770000_gshared
iUg:_Int64_System_IConvertible_ToUInt16_m848637338_AdjustorThunk
ajd:__Z32CustomEventData_CUSTOM_AddUInt32P12Il2CppObjectP12Il2CppStringj
zih:_Array_InternalArray__IndexOf_TisLink_t544317964_m455584088_gshared
QXi:_Enumerator_get_Current_m2282646120_AdjustorThunk
a0h:_ReadOnlyCollection_1_IndexOf_m2539022912_gshared
Ksh:_KeyGeneratedEventHandler__ctor_m1990062371
dFe:__ZL66Selectable_t3250028441_CustomAttributesCacheGenerator_m_TransitionP21CustomAttributesCache
hlk:__ZN6il2cpp2os6Memory12AlignedAllocEjj
IDh:_Enumerator_get_Current_m2305210644_AdjustorThunk
YPc:__ZN9JSONWrite8TransferI13dynamic_arrayIN4math12int3_storageELj0EEEEvRT_PKc17TransferMetaFlags
B$f:_Text_set_alignByGeometry_m3828822280
Iek:__ZN6il2cpp8metadataL7CompareEPK10Il2CppTypeS3_
Wsb:__Z18Transfer_BlittableI17RemapPPtrTransferLb0E11ColorRGBA32EvRK29SerializationCommandArgumentsR31RuntimeSerializationCommandInfo
cng:_HybridDictionary__ctor_m1681134385
kya:__ZN21ScalableBufferManager11GetInstanceEv
zBb:__Z18Transfer_BlittableI18StreamedBinaryReadILb0EELb1E10ColorRGBAfEvRK29SerializationCommandArgumentsR31RuntimeSerializationCommandInfo
xQa:__ZN12CubemapArray23VirtualRedirectTransferER17RemapPPtrTransfer
yPh:_TimeSpan_op_LessThan_m1594498345
Umc:__ZL27GetComponentsImplementationILb0ELi0EEbR10GameObjectbRK17CompareParametersRK39GetComponentsImplementation_ReturnValue
pFb:__ZN9Scripting36IsSystemCollectionsGenericDictionaryE17ScriptingClassPtr
ibi:_UnityEvent_1_FindMethod_Impl_m322741469_gshared
U5d:__ZL92ConstructionCallDictionary_t686578562_CustomAttributesCacheGenerator_U3CU3Ef__switchU24map24P21CustomAttributesCache
zFe:__ZL64Slider_t3903728902_CustomAttributesCacheGenerator_m_WholeNumbersP21CustomAttributesCache
gMf:_Enumerator_get_Current_m2591725252
J9:__ZL16ReadTypeTreeImplILb0EEbR8TypeTreeRK16TypeTreeIteratorRPKhS6_i
qxg:_Interval_Contains_m110351300_AdjustorThunk
H3g:_Convert_ToInt32_m3048308591
Eu:__ZN25RuntimeAnimatorControllerD2Ev
dHe:__ZL77LayoutUtility_t2745813735_CustomAttributesCacheGenerator_U3CU3Ef__amU24cache6P21CustomAttributesCache
KVf:_RectMask2D_OnCanvasHierarchyChanged_m3195492255
$7g:_DateTimeOffset_Equals_m3030958070
fHa:__ZNK22BuiltinResourceManager21GetResourceInstanceIDEPKN5Unity4TypeERKN4core12basic_stringIcNS4_20StringStorageDefaultIcEEEE
jDb:__ZN18StreamedBinaryReadILb0EE21TransferSTLStyleArrayI13dynamic_arrayI10ColorRGBAfLj0EEEEvRT_17TransferMetaFlags
noc:__Z42Register_UnityEngine_RectOffset_set_bottomv
Plj:_AnalyticsTracker_BuildParameters_m43920649
fuj:__ZL25UnresolvedVirtualCall_226P12Il2CppObject23SpriteState_t1362986479PK10MethodInfo
rKc:__Z28GUIStyleState_CUSTOM_CleanupP12Il2CppObject
MOg:_DateTimeFormatInfo_GetMonthName_m2034512315
z_b:__ZN28LightProbeProxyVolumeContext8CopyFromERKS_
N0h:_ReadOnlyCollection_1_System_Collections_Generic_IListU3CTU3E_Insert_m2489506856_gshared
qxa:__ZN23TransformChangeDispatch32QueueTransformChangeIfHasChangedER18TransformHierarchy
bCf:_Matrix4x4_MultiplyPoint_m1575665487
uRb:__ZN7ApiGLES18DeleteRenderbufferERj
GQb:__ZL23ProgramUniformMatrix4fvPK7ApiGLESjiihPKv
HKb:__ZN7ApiGLES13CreateTextureEjj14GraphicsFormatiiiii
eDg:_Array_new_gap_m262136975
Vfc:__ZN9ShaderLab20SerializedSubProgram15MatrixParameter8TransferI14SafeBinaryReadEEvRT_
Wmc:__ZL27GetComponentsImplementationILb0ELi1EEbR10GameObjectbRK17CompareParametersRK39GetComponentsImplementation_ReturnValue
rtg:_X509Store__ctor_m275383717
BLf:_Transform_INTERNAL_get_position_m1310184257
q7c:_Round_Down_To_Grid
PJj:__ZN6il2cpp2vm13MetadataCache40AddThreadLocalStaticOffsetForFieldLockedEP9FieldInfoiRKNS_2os12FastAutoLockE
Kza:__ZN13RenderTexture7ReleaseEv
rQc:__Z18Transfer_BlittableI8JSONReadLb1EN4math12int3_storageEEvRK29SerializationCommandArgumentsR31RuntimeSerializationCommandInfo
H_a:__ZN10MeshFilter23VirtualRedirectTransferER14SafeBinaryRead
EGe:__ZL64LayoutGroup_t2436138090_CustomAttributesCacheGenerator_m_PaddingP21CustomAttributesCache
frg:_AsnEncodedData_get_Oid_m402887164
W0a:__ZN12MeshRenderer17MainThreadCleanupEv
tCj:__ZN6il2cpp2vmL10InitLockedEP11Il2CppClassRKNS_2os12FastAutoLockE
gmb:__ZN22CreateGpuProgramOutput12CreateParamsEv
zN:__ZN10ObjectPoolIN4FMOD7ChannelENS0_8ChannelIEE7GetFreeEi
Bs:__ZL62__ManagedRegistrationHelperFunction_AnimatorOverrideControllerPv
_0h:_ReadOnlyCollection_1_System_Collections_IList_Insert_m177536056_gshared
oEd:_FontData_get_font_m2720086288
$$e:_InternalEnumerator_1_System_Collections_IEnumerator_get_Current_m548105685_gshared
GOb:__ZNK14GfxContextGLES13GetDefaultFBOEv
HCi:__Z99RuntimeInvoker_Void_t1185182177_UILineInfoU5BU5DU26_t2468919161_Int32_t2950945753_Int32_t2950945753PFvvEPK10MethodInfoPvPS4_
fFg:_Byte_System_IConvertible_ToType_m2251112646
OEc:__Z55Register_UnityEngine_MonoBehaviour_StopCoroutineManagedv
ywi:__Z81RuntimeInvoker_Char_t3634460470_RuntimeObject_Int32_t2950945753_Int16_t2552820387PFvvEPK10MethodInfoPvPS4_
V6g:_DateTime_get_Hour_m4153505178_AdjustorThunk
Loj:_AudioExtensionManager_WriteExtensionProperties_m3028464154
Wfg:_Evidence_Equals_m1478353107
Gaj:_CostDelegate__ctor_m4027655829
oAc:__Z13GetImagePixelI10ColorRGBAfET_PKhii13TextureFormat15TextureWrapModeS5_ii
oRi:_List_1_System_Collections_IList_set_Item_m1842844683_gshared
ldi:_ObjectPool_1__ctor_m2535233435_gshared
Qbi:_EventFunction_1__ctor_m4292798223_gshared
YYj:__ZN6il2cpp2vm6Thread49CheckCurrentThreadForInterruptAndThrowIfNecessaryEv
m1g:_Convert_ToChar_m3757390865
uCa:__ZNSt3__23mapIN9ShaderLab16FastPropertyNameEN18UnityPropertySheet11UnityTexEnvENS_4lessIS2_EENS_9allocatorINS_4pairIKS2_S4_EEEEEixERS9_
IKb:__ZNK13TranslateGLES25GetTextureTargetDimensionEj
bQe:_RankException__ctor_m3453633632
B4h:_Comparison_1__ctor_m533218197_gshared
NCi:__Z96RuntimeInvoker_Void_t1185182177_Vector3U5BU5DU26_t3038522815_Int32_t2950945753_Int32_t2950945753PFvvEPK10MethodInfoPvPS4_
_Zh:_ReadOnlyCollection_1_System_Collections_IList_Remove_m1842121503_gshared
RWg:_File_OpenRead_m2936789020
x5:__ZN9Scripting12LogExceptionE21ScriptingExceptionPtriPKcb
oti:__Z94RuntimeInvoker_Void_t1185182177_RuntimeObject_PlayableGraph_t3515989261_RuntimeObject_IntPtr_tPFvvEPK10MethodInfoPvPS4_
Ii:_emscripten_glVertexAttrib4f
Vrb:__ZN14SafeBinaryRead21TransferSTLStyleArrayI13dynamic_arrayIN4math12int3_storageELj0EEEEvRT_17TransferMetaFlags
o6e:_InternalEnumerator_1_System_Collections_IEnumerator_Reset_m4072625129_AdjustorThunk
hjc:__ZNSt3__26vectorIN20GpuProgramParameters14ConstantBufferENS_9allocatorIS2_EEE8__appendEj
$tg:_X509CertificateCollection_AddRange_m3683116910
a3e:_InternalEnumerator_1_Dispose_m1837758743_AdjustorThunk
rAj:_CustomEventData_t317522481_marshal_pinvoke_cleanup
dSd:_SinkProviderData__ctor_m1624738837
U$b:__ZN11HaloManager21ReleaseGeometryJobMemEP25DynamicVBOGeometryJobData
GWg:_DirectoryNotFoundException__ctor_m1689636868
Uvi:__Z88RuntimeInvoker_RuntimeObject_RuntimeObject_SByte_t1669577662_RuntimeObject_RuntimeObjectPFvvEPK10MethodInfoPvPS4_
t_h:_ReadOnlyCollection_1_System_Collections_Generic_IListU3CTU3E_get_Item_m978644313_gshared
HVh:_Collection_1_get_Item_m2253972692_gshared
DId:_RefEmitPermissionSet_t484390987_marshal_pinvoke_cleanup
LRe:_CustomAttributeTypedArgument_Equals_m2261980307
Wz:__ZN7mecanim12statemachine24CreateStateMachineMemoryEPKNS0_20StateMachineConstantERNS_6memory9AllocatorE
sjb:__ZN9GfxDevice18SetGlobalDepthBiasEff
aMj:__ZN6il2cpp6icalls8mscorlib6System8MonoType12get_AssemblyEP20Il2CppReflectionType
CYg:_IsolatedStorageException__ctor_m3386787868
FJd:_TypeBuilder_MakeGenericType_m2799607032
zwg:_RepeatContext_get_Start_m1076992038
z3h:_ReadOnlyCollection_1_IndexOf_m3669095250_gshared
Wi:_emscripten_glGetPointerv
aRi:_List_1_System_Collections_Generic_IEnumerableU3CTU3E_GetEnumerator_m3687886202_gshared
BKi:_Dictionary_2_Do_CopyTo_TisKeyValuePair_2_t3842366416_TisRuntimeObject_m1564656153_gshared
cF:__ZN8Animator22ApplyBuiltinRootMotionEv
Sqc:__Z14BezierExtractUfff
ZHb:__Z26ApplyMaterialPassWithCacheRK18SharedMaterialDataR17ShaderPassContextP6ShaderPN9ShaderLab4PassEibPKNS6_10GrabPassesEPNS6_11SubProgramsEPK22DeviceRenderStateBlock
Tni:__Z55RuntimeInvoker_DateTime_t3738529785_TimeSpan_t881159249PFvvEPK10MethodInfoPvPS4_
Mie:__ZL81Camera_t4157153871_CustomAttributesCacheGenerator_Camera_RaycastTry2D_m2460696262P21CustomAttributesCache
rNe:_MulticastDelegate_KPM_m22863605
H3e:_InternalEnumerator_1_get_Current_m1897120917_AdjustorThunk
QMe:_MonoType_ReorderParamArrayArguments_m2458683451
imf:_FormatterConverter_ToInt16_m4282804414
Bli:__Z81RuntimeInvoker_Void_t1185182177_Int64_t3736567304_RuntimeObject_Int64_t3736567304PFvvEPK10MethodInfoPvPS4_
iyd:_StandaloneInputModule_ProcessTouchPress_m4019232747
NWg:_FileStream__ctor_m3151488352
dDg:_Array_swap_m547389985
vUa:__ZN8Renderer23VirtualRedirectTransferER14SafeBinaryRead
$Sh:_UInt32_ToString_m2420423038
pOi:_List_1_System_Collections_IList_Add_m634558835_gshared
s3h:_ReadOnlyCollection_1_System_Collections_IList_get_IsFixedSize_m1923250479_gshared
pXg:_FileStream_get_Length_m426703983
Xyc:__Z13RegisterClassI10TagManagerEvPKc
Cgf:_Enumerator__ctor_m1558933899_AdjustorThunk
Dee:__ZL88BigInteger_t2902905090_CustomAttributesCacheGenerator_BigInteger_op_Implicit_m3414367033P21CustomAttributesCache
DCj:__ZN6il2cpp2vmL15GetBitmapNoInitEP11Il2CppClassPjRjj
Wtj:__ZL25UnresolvedVirtualCall_215P12Il2CppObjectS0_iPK10MethodInfo
sVi:_List_1_Remove_m2092085040_gshared
Tcc:__ZL13MotionHandleriPK27EmscriptenDeviceMotionEventPv
YL:__ZN12AudioManager5ResetEv
Kei:__Z67RuntimeInvoker_Boolean_t97287965_RuntimeObject_SByteU26_t3619038962PFvvEPK10MethodInfoPvPS4_
hie:__ZL68DisallowMultipleComponent_t1422053217_CustomAttributesCacheGeneratorP21CustomAttributesCache
l_h:_ReadOnlyCollection_1_get_Count_m1336304542_gshared
lHe:__ZL111LayoutUtility_t2745813735_CustomAttributesCacheGenerator_LayoutUtility_U3CGetPreferredHeightU3Em__6_m3049688934P21CustomAttributesCache
hia:__ZN6prcoreL17RemapGenericFloatI17TexFormatRGBAHalf15TexFormatRGHalfEEvPKNS_9InnerInfoE
JTj:__ZNK15dense_hashtableINSt3__24pairIK10KeyWrapperIPK14Il2CppAssemblyEPK22Il2CppMonoAssemblyNameEES6_N6il2cpp5utils11PointerHashIS4_EEN14dense_hash_mapIS6_SA_SF_NS6_14EqualsComparerINS0_8equal_toIS5_EEEENS0_9allocatorISB_EEE9SelectKeyESK_SM_E10test_emptyEj
wbk:__ZN6il2cpp6icalls8mscorlib6System11Environment20GetWindowsFolderPathEi
B0g:_Convert_ToBoolean_m2833752130
Ky:__ZN7mecanim5human18HumanPoseBlendNodeERNS0_9HumanPoseEPS1_f
J1c:_UNITY_FT_RoundFix
EX:__ZN23CloudWebServicesManager23VirtualRedirectTransferER17RemapPPtrTransfer
gVc:__ZN9Scripting11UnityEngine19PhysicsJobOptions2D12CleanupProxyEv
cik:_GC_is_heap_ptr
G9f:_HandshakeMessage_EncodeMessage_m3919107786
eqh:_ASN1_DecodeTLV_m1200977460
Tyf:_UnityEventBase_PrepareInvoke_m1785382128
cKd:__ZN23InterfaceActionInvoker2IP12Il2CppObjectP20Delegate_t1188392813E6InvokeEjP11Il2CppClassS1_S1_S3_
Y0a:__ZNK12MeshRenderer22GetTypeVirtualInternalEv
AGg:_Char_System_IConvertible_ToUInt32_m3901815580
VWf:_Scrollbar_set_onValueChanged_m346467699
$ni:__Z157RuntimeInvoker_Int32_t2950945753_RuntimeObject_Int32_t2950945753_Int32_t2950945753_Int32_t2950945753_SByte_t1669577662_SByte_t1669577662_Int32U26_t1369213839PFvvEPK10MethodInfoPvPS4_
Rci:_ListPool_1_Release_m957266927_gshared
G6d:__ZL105ConfigHandler_t4192437216_CustomAttributesCacheGenerator_ConfigHandler_ValidatePath_m3895556516____paths1P21CustomAttributesCache
WO:__ZN4FMOD6System17setSoftwareFormatEi17FMOD_SOUND_FORMATii18FMOD_DSP_RESAMPLER
sMa:__ZN14SafeBinaryRead19TransferSTLStyleMapINSt3__23mapIN4core12basic_stringIcNS3_20StringStorageDefaultIcEEEES7_NS1_4lessIS7_EE13stl_allocatorINS1_4pairIKS7_S7_EEL18MemLabelIdentifier1ELi16EEEEEEvRT_17TransferMetaFlags
js:__ZL49__ManagedRegistrationHelperFunction_AimConstraintPv
lhd:__ZN2UI6Canvas27UpdateEventIndexesRecursiveERi
EY:__ZN11UnityEngine15CloudWebService16SessionContainer21PrepareDataErrorEventERN4core12basic_stringIcNS2_20StringStorageDefaultIcEEEE
yvd:_ExecuteEvents_get_pointerUpHandler_m3515704212
uHg:_ArrayList_set_Item_m2003485935
fck:__ZNSt3__218uninitialized_copyIPNS_4pairIK10KeyWrapperIPK19Il2CppGenericMethodEP10MethodInfoEESB_EET0_T_SD_SC_
MPd:_SatelliteContractVersionAttribute__ctor_m3630863995
Gce:__ZL79Convert_t2465617642_CustomAttributesCacheGenerator_Convert_ToUInt64_m3102114524P21CustomAttributesCache
rxd:_MouseButtonEventData_PressedThisFrame_m1060658845
Xsd:_AxisEventData_get_moveVector_m270528189
Axb:__Z19TransferField_ArrayI19StreamedBinaryWriteILb0EE27Converter_SimpleNativeClassI8GUIStyleEEvRK23StaticTransferFieldInfoR31RuntimeSerializationCommandInfoRT0_
hYb:__Z27SetClippingPlaneShaderPropsR9GfxDevice
s_h:_ReadOnlyCollection_1_System_Collections_Generic_IListU3CTU3E_RemoveAt_m3969985996_gshared
xve:__ZL83AudioSource_t3935305588_CustomAttributesCacheGenerator_AudioSource_Play_m3389845180P21CustomAttributesCache
IEa:__Z28BuildSingleStreamChannelInfoP11ChannelInfo17ShaderChannelMaskS1_
SYa:__ZNK13ScreenManager12GetIsFocusedEv
MDf:_PlayerConnection_get_isConnected_m911966057
lGd:_GraphicRegistry_GetGraphicsForCanvas_m4219276355
rYg:__ZN23InterfaceActionInvoker3IP22ByteU5BU5D_t4116647657iiE6InvokeEjP11Il2CppClassP12Il2CppObjectS1_ii
LNe:_NumberFormatter_FastToDecHex_m699829267
Gbj:_PatternCompiler_MakeFlags_m1977119795
fQc:__Z35Transfer_Blittable_FixedBufferFieldI8JSONReadiEvRK29SerializationCommandArgumentsR31RuntimeSerializationCommandInfo
n7d:__ZL59StreamingContext_t3711869237_CustomAttributesCacheGeneratorP21CustomAttributesCache
yKj:__ZNSt3__213__vector_baseIN6il2cpp2os19SocketHandleWrapperENS_9allocatorIS3_EEED2Ev
X_d:__ZL48_Type_t3588564251_CustomAttributesCacheGeneratorP21CustomAttributesCache
WCe:__ZL81FontUpdateTracker_t1839077620_CustomAttributesCacheGenerator_U3CU3Ef__mgU24cache0P21CustomAttributesCache
cVa:__ZN28ReflectionProbeAnchorManager18RemoveCachedAnchorERK4PPtrI9TransformE
$b:invoke_viiffi
m1d:__ZL103RegionInfo_t1090270226_CustomAttributesCacheGenerator_RegionInfo_t1090270226____NativeName_PropertyInfoP21CustomAttributesCache
Dac:__ZN13sorted_vectorINSt3__24pairIN4core12basic_stringIcNS2_20StringStorageDefaultIcEEEEPK17MessageIdentifierEEN10vector_mapIS6_S9_NS0_4lessIS6_EENS0_9allocatorISA_EEE13value_compareESF_E10insert_oneERKSA_
aF:__ZNSt3__227__insertion_sort_incompleteIRPFbPKN8Animator11AnimatorJobES4_EPS4_EEbT0_S9_T_
oY:__ZNSt3__26__treeINS_12__value_typeIN4core12basic_stringIcNS2_20StringStorageDefaultIcEEEEjEENS_19__map_value_compareIS6_S7_NS_4lessIS6_EELb1EEE13stl_allocatorIS7_L18MemLabelIdentifier88ELi16EEE4findIS6_EENS_15__tree_iteratorIS7_PNS_11__tree_nodeIS7_PvEEiEERKT_
sTc:__ZN5Unity9rapidjson13GenericReaderINS0_4UTF8IcEES3_13JSONAllocatorE10ParseFalseILj0ENS0_19GenericStringStreamIS3_EENS0_15GenericDocumentIS3_S4_S4_EEEEvRT0_RT1_
VCa:__ZL13MeshExtractorPv16VertexInputMasksiR11MeshBuffersR16DrawBuffersRangeRiS5_
uQa:__ZNK12CubemapArray20GetRuntimeMemorySizeEv
hPh:_TimeSpan_FromHours_m1109641064
Rgc:__Z14resize_trimmedINSt3__26vectorIN9ShaderLab18SerializedPropertyENS0_9allocatorIS3_EEEEEvRT_j
rsb:__Z18Transfer_BlittableI17RemapPPtrTransferLb0EN4math12int3_storageEEvRK29SerializationCommandArgumentsR31RuntimeSerializationCommandInfo
Lhe:__ZL92StaticAccessorAttribute_t2432663902_CustomAttributesCacheGenerator_U3CNameU3Ek__BackingFieldP21CustomAttributesCache
Y4e:_InternalEnumerator_1__ctor_m4124630986_gshared
aIj:__ZN6il2cpp2vm13MetadataCache38GetMethodInfoFromMethodDefinitionIndexEi
jud:_EventSystem_set_current_m38955169
BEc:__Z39MonoBehaviour_CUSTOM_GetScriptClassNameP12Il2CppObject
bFe:__ZL53Selectable_t3250028441_CustomAttributesCacheGeneratorP21CustomAttributesCache
Iaj:_CostDelegate_EndInvoke_m2797921932
EXa:__ZN10VertexData8TransferI24GenerateTypeTreeTransferEEvRT_
R0g:_Double_IsInfinity_m820013146
T2g:__ZN21InterfaceFuncInvoker1I19Decimal_t2948259380P12Il2CppObjectE6InvokeEjP11Il2CppClassS2_S2_
Mbk:__ZN13Il2CppHashMapIPK19Il2CppGenericMethodP10MethodInfoN6il2cpp8metadata23Il2CppGenericMethodHashENS6_26Il2CppGenericMethodCompareENSt3__29allocatorINS9_4pairIK10KeyWrapperIS2_ES4_EEEEEC2EjRKS7_RKS8_
dOi:_List_1_TrimExcess_m440552561_gshared
GJf:_Screen_get_dpi_m495672463
HLh:_UTF8Encoding_InternalGetByteCount_m2120178851
Dhe:__ZL130NativeTypeAttribute_t2250406315_CustomAttributesCacheGenerator_NativeTypeAttribute_set_IntermediateScriptingStructName_m3613994509P21CustomAttributesCache
a5b:__ZL10CullLightsRK22SceneCullingParametersR11CullResults
M5g:_Convert_ToUInt64_m3170916409
Csd:__ZN9Scripting11UnityEngine12Experimental2XR14ReferencePoint12CleanupProxyEv
YTg:_Int64_System_IConvertible_ToInt16_m4062196970_AdjustorThunk
lNe:_MonoType_GetGenericTypeDefinition_m3201894896
npc:__Z40GetTemporaryCachePathApplicationSpecificv
Uhb:__ZN9GfxDevice16EndAsyncJobFrameEv
Cxi:__Z99RuntimeInvoker_Int32_t2950945753_Ray_t3785851493_RuntimeObject_Single_t1397266774_Int32_t2950945753PFvvEPK10MethodInfoPvPS4_
fSj:__ZNK15dense_hashtableINSt3__24pairIK10KeyWrapperINS1_IPK12PropertyInfoP11Il2CppClassEEEjEES9_17ReflectionMapHashIS8_EN14dense_hash_mapIS9_jSD_NS9_14EqualsComparerINS0_8equal_toIS8_EEEENS0_9allocatorISB_EEE9SelectKeyESI_SK_E10test_emptyERK30dense_hashtable_const_iteratorISB_S9_SD_SM_SI_SK_E
u4c:_UNITY_tt_face_load_hhea
oTe:_DerivedType_get_Assembly_m2979298667
c9j:__ZN15dense_hashtableINSt3__24pairIK10KeyWrapperIPcES3_EES4_N6il2cpp5utils15PassThroughHashIS3_EEN14dense_hash_mapIS4_S3_SA_NS4_14EqualsComparerINS0_8equal_toIS3_EEEENS0_9allocatorIS6_EEE9SelectKeyESF_SH_E16reset_thresholdsEv
Uk:___syscall3
wke:__ZL95MonoBehaviour_t3962482529_CustomAttributesCacheGenerator_MonoBehaviour_CancelInvoke_m3252264575P21CustomAttributesCache
Xk:___syscall6
Zib:__ZN9GfxDevice15GetNextCPUFenceEv
Zk:___syscall4
ZSe:_DerivedType_GetMethods_m3787404845
XWd:_ReturnMessage__ctor_m2352989078
Qgb:__ZNSt3__26__treeINS_12__value_typeIN4core12basic_stringIcNS2_20StringStorageDefaultIcEEEEPN16MemoryFileSystem4NodeEEENS_19__map_value_compareIS6_SA_NS_4lessIS6_EELb1EEE13stl_allocatorISA_L18MemLabelIdentifier55ELi16EEE7destroyEPNS_11__tree_nodeISA_PvEE
pui:__Z67RuntimeInvoker_Boolean_t97287965_TextGenerationSettings_t1351628751PFvvEPK10MethodInfoPvPS4_
A7j:__ZN6il2cpp2vm3RCW14QueryInterfaceILb1EEEP14Il2CppIUnknownP15Il2CppComObjectRK10Il2CppGuid
m7f:_TlsServerCertificateRequest__ctor_m1334974076
VTc:__ZN27PerformanceReportingManager23VirtualRedirectTransferER14SafeBinaryRead
K3g:_Convert_ToInt32_m1613163543
mDi:__Z52RuntimeInvoker_TimeSpan_t881159249_Int32_t2950945753PFvvEPK10MethodInfoPvPS4_
ooa:__ZN9Scripting11UnityEngine9Playables8Playable12CleanupProxyEv
SZh:_ReadOnlyCollection_1_System_Collections_ICollection_CopyTo_m3127175806_gshared
ml:_emscripten_glShaderBinary
ugg:_String_op_Inequality_m215368492
RZ:__ZN15DownloadHandler19OnFinishReceiveDataEv
gSh:_UInt16_ToString_m760649087
Pcb:__ZNK20LocalFileSystemPosix6ExistsERK13FileEntryData
Doi:__Z21RuntimeInvoker_Guid_tPFvvEPK10MethodInfoPvPS4_
Bpi:__Z46RuntimeInvoker_CipherAlgorithmType_t1174400495PFvvEPK10MethodInfoPvPS4_
Jvf:_Camera_GetAllCameras_m668492922
ned:__Z58Register_UnityEngine_Canvas_GetETC1SupportedCanvasMaterialv
xPh:_TimeSpan_op_Inequality_m2467851530
dAb:__ZN17AnimationCurveTplIfE8TransferI18StreamedBinaryReadILb1EEEEvRT_
FVd:__ZN28GenericInterfaceFuncInvoker1IP12Il2CppObjectP23HeaderU5BU5D_t204812840E6InvokeEPK10MethodInfoS1_S3_
CJi:_Array_Sort_TisUIVertex_t4057497605_m3996333845_gshared
V7f:_Context_get_ReceivedConnectionEnd_m4011125537
heg:_ToBase64Transform_get_CanReuseTransform_m702204640
Csi:__Z53RuntimeInvoker_PropertyName_t3749835189_RuntimeObjectPFvvEPK10MethodInfoPvPS4_
xDg:_Swapper_BeginInvoke_m1688449973
xxf:_Display_get_renderingWidth_m1970428952
ylj:_U3CTimedTriggerU3Ec__Iterator0_MoveNext_m825792986
kwa:__ZN16LevelGameManager23VirtualRedirectTransferER19StreamedBinaryWriteILb0EE
Fpi:__Z81RuntimeInvoker_Void_t1185182177_RuntimeObject_Int32_t2950945753_Int64_t3736567304PFvvEPK10MethodInfoPvPS4_
xXa:__Z32TransferEnumWithNameForceIntSizeI14SafeBinaryRead16GfxPrimitiveTypeEvRT_RT0_PKc17TransferMetaFlags
lJ:__ZNSt3__26vectorIN4core12basic_stringIcNS1_20StringStorageDefaultIcEEEE13stl_allocatorIS5_L18MemLabelIdentifier1ELi16EEE21__push_back_slow_pathIS5_EEvOT_
oke:__ZL92Mesh_t3648964284_CustomAttributesCacheGenerator_Mesh_SetTriangles_m2205169959____baseVertex3P21CustomAttributesCache
UAi:__Z52RuntimeInvoker_Int32_t2950945753_HitInfo_t3229609740PFvvEPK10MethodInfoPvPS4_
dmi:__Z86RuntimeInvoker_Boolean_t97287965_Int16_t2552820387_Int16_t2552820387_Int32_t2950945753PFvvEPK10MethodInfoPvPS4_
dbe:__ZL80Convert_t2465617642_CustomAttributesCacheGenerator_Convert_ToBoolean_m2807110707P21CustomAttributesCache
cZd:__ZL72Enum_t4135868527_CustomAttributesCacheGenerator_Enum_GetName_m2151614395P21CustomAttributesCache
ici:_IndexedSet_1_IndexOf_m241693686_gshared
uld:__ZN11UnityEngine15PlatformWrapper30GetGraphicsDriverLibraryStringEv
Pof:_RuntimeMethodHandle_Equals_m3301340296_AdjustorThunk
xTh:_UInt64_System_IConvertible_ToSingle_m925613075_AdjustorThunk
Jqj:__ZL24UnresolvedVirtualCall_40P12Il2CppObjectS0_PK10MethodInfo
kdi:_ListPool_1__cctor_m704263611_gshared
ABb:__Z18Transfer_BlittableI18StreamedBinaryReadILb0EELb0E4AABBEvRK29SerializationCommandArgumentsR31RuntimeSerializationCommandInfo
p5a:__ZN24GenerateTypeTreeTransfer19TransferSTLStyleMapINSt3__28multimapIN4core12basic_stringIcNS3_20StringStorageDefaultIcEEEE4PPtrI6ObjectENS1_4lessIS7_EE13stl_allocatorINS1_4pairIKS7_SA_EEL18MemLabelIdentifier52ELi16EEEEEEvRT_17TransferMetaFlags
Qt:__ZN16MecanimAnimation24DeleteAnimatedPropertiesERP26IAnimatedPropertyEvaluator
Sxj:_CanvasRenderer_SetMaterial_m824577244
XWb:__Z14DrawGUITextureRK5RectTIfEP7Texture11ColorRGBA32P8Materiali
jne:__ZL84RectOffset_t1369453676_CustomAttributesCacheGenerator_RectOffset_Cleanup_m2552807639P21CustomAttributesCache
iLa:__ZNK15PlayableMethods18InvokeProcessFrameER18ScriptingObjectPtrRK9HPlayableP18ScriptingFrameDataRK9FrameData
ND:__ZN9BlobWrite8TransferI22OffsetPtrArrayTransferIKN4math7_float4EEEEvRT_PKc17TransferMetaFlags
cMf:_Transform_IsChildOf_m224006092
kKa:__ZN15TextureSettings8TransferI24GenerateTypeTreeTransferEEvRT_
QPc:__ZN9JSONWrite8TransferI4AABBEEvRT_PKc17TransferMetaFlags
Uec:__ZN15dense_hashtableINSt3__24pairIKiN4core17string_with_labelILi1EEEEEi18SInt32HashFunctionN14dense_hash_mapIiS5_S7_NS0_8equal_toIiEE13stl_allocatorIS6_L18MemLabelIdentifier1ELi16EEE9SelectKeyESA_SD_E12expand_arrayEjN21dense_hash_map_traits17integral_constantIbLb0EEE
_Hh:_List_1_Clear_m2154023298_gshared
Src:__Z13RegisterClassI15QualitySettingsEvPKc
arj:__ZL24UnresolvedVirtualCall_59P12Il2CppObjectiPK10MethodInfo
Ssd:_AbstractEventData_get_used_m2991176710
Txi:__Z94RuntimeInvoker_Void_t1185182177_ObjectU5BU5DU26_t712384779_Int32_t2950945753_Int32_t2950945753PFvvEPK10MethodInfoPvPS4_
jBi:__Z71RuntimeInvoker_Void_t1185182177_CustomAttributeNamedArgument_t287865710PFvvEPK10MethodInfoPvPS4_
Ar:__ZN13ConstraintJob17ConstraintJobDataD2Ev
vkj:_Aes__ctor_m178909601
WQa:__ZNK9Texture2D20GetRuntimeMemorySizeEv
_Vd:_MethodCall_get_MethodSignature_m2407904958
rTc:__ZN5Unity9rapidjson13GenericReaderINS0_4UTF8IcEES3_13JSONAllocatorE9ParseTrueILj0ENS0_19GenericStringStreamIS3_EENS0_15GenericDocumentIS3_S4_S4_EEEEvRT0_RT1_
oTi:_List_1_Clear_m2003943277_gshared
vm:_emscripten_glUniform2iv
zka:__ZL46__ManagedRegistrationHelperFunction_ColorGamutPv
zKh:_UnicodeEncoding_CopyChars_m785272451
tCh:_Enumerator_Dispose_m1204547613_AdjustorThunk
DZc:_UNITY_FT_Outline_Transform
Jlc:__Z60Register_UnityEngine_Sprites_DataUtility_Internal_GetMinSizev
vhe:__ZL118NativeMethodAttribute_t4187428193_CustomAttributesCacheGenerator_NativeMethodAttribute_set_HasExplicitThis_m2961870915P21CustomAttributesCache
WCj:__ZN6il2cpp2vm5Class10GetMethodsEP11Il2CppClassPPv
Mpd:__ZNK25UnityWebRequestJavaScript17GetUploadProgressEv
H0b:__Z30AddDefaultStreamsToMeshBuffersR9GfxDeviceR11MeshBuffersRK16DrawBuffersRange17ShaderChannelMaskS6_
KPi:_List_1_GetEnumerator_m1430071802_gshared
YQb:__ZN7ApiGLES17DeleteFramebufferERN2gl6HandleILNS0_10ObjectTypeE9EEES3_
oTb:__ZN15UniformTFMethod13MapBoneBufferEj
dcd:__ZN2UI14CanvasRendererD2Ev
cMi:_Array_InternalArray__get_Item_TisParameterModifier_t1461694466_m29553316_gshared
oUg:_Int64_CompareTo_m1928360444_AdjustorThunk
QUj:__ZN15dense_hashtableINSt3__24pairIK10KeyWrapperINS1_IPK9EventInfoP11Il2CppClassEEEjEES9_17ReflectionMapHashIS8_EN14dense_hash_mapIS9_jSD_NS9_14EqualsComparerINS0_8equal_toIS8_EEEENS0_9allocatorISB_EEE9SelectKeyESI_SK_E15set_deleted_keyERKSB_
PGb:__Z9SetupArgviPPKc
d4g:_Convert_ToInt64_m2075031821
vne:__ZL111ScriptableObject_t2528358522_CustomAttributesCacheGenerator_ScriptableObject_CreateScriptableObject_m3504774547P21CustomAttributesCache
w1e:_InternalEnumerator_1__ctor_m236665673_gshared
ulj:_AnalyticsEventTracker_OnDisable_m1553012800
Mzk:_glTexParameteri__wrapper
lta:__ZN12ImmediatePtrI10GameObjectE8TransferI19StreamedBinaryWriteILb0EEEEvRT_
yQa:__ZN12CubemapArray23VirtualRedirectTransferER24GenerateTypeTreeTransfer
Fka:__ZL49__ManagedRegistrationHelperFunction_RenderTexturePv
MFa:__ZNSt3__26vectorI4PPtrI6ShaderE13stl_allocatorIS3_L18MemLabelIdentifier53ELi16EEE8__appendEj
kbk:__ZN6il2cpp2os9Directory6CreateERKNSt3__212basic_stringIcNS2_11char_traitsIcEENS2_9allocatorIcEEEEPi
XFa:__ZN4PPtrI6ShaderE8TransferI18StreamedBinaryReadILb0EEEEvRT_
nxa:__ZN23TransformChangeDispatch32QueueTransformChangeIfHasChangedERK15TransformAccess
web:__ZN15ArchiveReadFile5WriteEyPKvPy
jQe:_Assembly_get_FullName_m293988418
lvf:_Camera_get_pixelRect_Injected_m2326986893
U_c:__ZNSt3__26__treeINS_12__value_typeIN20TextRenderingPrivate7FontRefENS2_6OSFontEEENS_19__map_value_compareIS3_S5_NS_4lessIS3_EELb1EEENS_9allocatorIS5_EEE12__find_equalIS3_EERPNS_16__tree_node_baseIPvEESI_RKT_
pUc:__ZN27PerformanceReportingManager18ActiveSceneChangedEPS_P10UnitySceneS2_
B:tempValue
vAb:__ZN18StreamedBinaryReadILb1EE21TransferSTLStyleArrayI13dynamic_arrayI8Vector4fLj0EEEEvRT_17TransferMetaFlags
fcc:__Z29StdTemplateConversionFunctionIaiEbPvR14SafeBinaryRead
Tlk:__ZN6il2cpp8metadata24Il2CppGenericContextHash4HashEPK20Il2CppGenericContext
P1e:_InternalEnumerator_1_get_Current_m356936020_AdjustorThunk
FXb:__ZN6Camera21RenderODSWorldTextureERK11CullResultsRK19SharedRendererSceneR17ShaderPassContextNS_10RenderFlagE
DTg:_Int32_ToString_m141394615_AdjustorThunk
_5:__Z29scripting_class_from_fullnamePKcS0_S0_
kWg:_Directory_GetCurrentDirectory_m219218555
Tzg:_SmallXmlParser_UnexpectedEndError_m1914362401
oA:__ZN26AnimatorControllerPlayable18DeallocateBindingsEv
U6d:__ZL61FormatterTypeStyle_t3400733584_CustomAttributesCacheGeneratorP21CustomAttributesCache
Ilb:__ZN14DelayedDeletorI15dense_hashtableINSt3__24pairIK9TextureIDiEES3_14GfxGenericHashIS3_EN14GfxDoubleCacheIS3_iS7_NS1_8equal_toIS3_EEN31GfxDoubleCacheConcurrencyPolicy11LocklessGetE42GfxDoubleCacheDefaultEmptyDeletedGeneratorIS3_EE9SelectKeyESA_13stl_allocatorIS5_L18MemLabelIdentifier24ELi16EEEEclEv
XR:__ZN11AudioSource19CreateOpenALRolloffEfff
o4c:_UNITY_FT_Stream_ReadAt
zpj:_AudioSampleProvider_Dispose_m1993565764
wOh:_TimeSpan__ctor_m1896986612_AdjustorThunk
jHj:__ZN15dense_hashtableINSt3__24pairIK10KeyWrapperIN6il2cpp5utils13dynamic_arrayIPK10Il2CppTypeLj4EEEEPFvvEEESA_NS3_8metadata19Il2CppSignatureHashEN14dense_hash_mapISA_SD_SG_NSA_14EqualsComparerINSF_22Il2CppSignatureCompareEEENS0_9allocatorISE_EEE9SelectKeyESK_SM_E9set_valueEPSE_RKSE_
Vxg:_ArgumentException__ctor_m1216717135
SGf:_Ray_ToString_m1732834890_AdjustorThunk
EPc:__ZN9JSONWrite8TransferI13dynamic_arrayI5RectTIfELj0EEEEvRT_PKc17TransferMetaFlags
eRi:_List_1_System_Collections_IList_Contains_m3860993176_gshared
DV:__ZN11AudioModule22CreateAudioClipFromWWWEP10IWWWStreamPKcbbi
xuc:__ZN9Texture2DC2E10MemLabelId18ObjectCreationMode
gKb:__Z17DebugStringToFileIA59_cEvRKT_iPKci15LogMessageFlagsiiPFvRK11CppLogEntryE
Ri:_emscripten_glRotatef
kSh:_UInt32_System_IConvertible_ToBoolean_m1763673183_AdjustorThunk
Nyf:_UnityEvent_AddListener_m2276267359
hr:__Z9SetLocalR15TransformAccessRKN4math7_float4Ey
Wri:__Z35RuntimeInvoker_RangeInt_t2094684618PFvvEPK10MethodInfoPvPS4_
qIa:__ZN6prcoreL11inner_clearILj4EEEvPhjjj
XVd:_MethodCall_get_Args_m148309537
zWd:_DictionaryEnumerator_get_Value_m2166220004
bBj:_NativeTypeAttribute__ctor_m1677513894
ioj:_PCMReaderCallback_BeginInvoke_m3391809637
N0:__GLOBAL__sub_I_Runtime_SceneManager_0_cpp
Dgi:__Z74RuntimeInvoker_Void_t1185182177_RuntimeObject_StreamingContext_t3711869237PFvvEPK10MethodInfoPvPS4_
whk:_GC_initialize_offsets
rea:__ZNK8Playable6HandleEv
dPf:_SetPropertyUtility_SetColor_m2229203028
yrk:___cxa_guard_abort
n8:__ZN14MessageHandler28MessageIDToMessageIdentifierEi
hYa:__ZNK11SpriteAtlas20GetRuntimeRenderDataEPK6Sprite
aWg:_FileSystemInfo__ctor_m3035148496
Q1a:__ZNSt3__26__treeINS_12__value_typeIN4core12basic_stringIcNS2_20StringStorageDefaultIcEEEEiEENS_19__map_value_compareIS6_S7_NS_4lessIS6_EELb1EEENS_9allocatorIS7_EEE4findIS6_EENS_15__tree_iteratorIS7_PNS_11__tree_nodeIS7_PvEEiEERKT_
WSg:_Int32_System_IConvertible_ToDecimal_m2190376994_AdjustorThunk
ZCh:_KeyValuePair_2_set_Key_m2121548577_AdjustorThunk
NDi:__Z46RuntimeInvoker_RefEmitPermissionSet_t484390987PFvvEPK10MethodInfoPvPS4_
T9d:__ZL88UTF7Encoding_t2644108479_CustomAttributesCacheGenerator_UTF7Encoding_GetBytes_m521917477P21CustomAttributesCache
xma:__ZL43__ManagedRegistrationHelperFunction_Vector4Pv
my:__ZN7mecanim14ValueArrayCopyILb0EEEvPKNS_10ValueArrayEPS1_
DJ:__Z51Register_UnityEngine_Animator_get_hasBoundPlayablesv
J$i:_Collection_1_CopyTo_m3142835220_gshared
Dd:emscriptenWebGLGetUniform
ro:FUNCTION_TABLE_iiiiiiiiiii
Hhj:_GUI_CallWindowDelegate_m3309453386
H2c:_cff_set_mm_blend
rUb:__ZN19GfxThreadableDevice15OnDeviceCreatedEb
U6b:__ZL10CleanUpJobP20CullingGroupsJobData
F0b:__Z20IsRunningNativeTestsv
YVg:_DirectoryInfo_get_Exists_m3142069876
G_a:__ZN10MeshFilter23VirtualRedirectTransferER24GenerateTypeTreeTransfer
Trc:__Z13RegisterClassI16LightmapSettingsEvPKc
OWb:__ZN13RenderManager15BatchModeUpdateEv
Y6h:_Predicate_1__ctor_m327447107_gshared
otg:_X509Chain_get_CertificateAuthorities_m804805415
k1b:__Z14SetupLightmapsRK8Vector4fS1_R17ShaderPassContext
YIf:_Vector2_get_one_m738793577
tAc:__ZNK4Mesh14GetIndexFormatEv
yjd:__ZN9Scripting11UnityEngine9Analytics21AnalyticsSessionState9InitProxyEv
fCh:_GenericEqualityComparer_1__ctor_m4072188982_gshared
Wgj:_UriParser_set_DefaultPort_m4007715058
S6j:__ZN14dense_hash_mapI10KeyWrapperIP12Il2CppObjectEN6il2cpp2gc9CachedCCWENS4_5utils11PointerHashIS1_EENS3_14EqualsComparerINSt3__28equal_toIS2_EEEENSB_9allocatorINSB_4pairIKS3_S6_EEEEE13set_empty_keyERSH_
ymj:_FieldWithTarget__ctor_m583221563
gd:_glVertexAttribIPointer
sAf:_Input_GetAxisRaw_m2316819917
ylc:__ZNK6Sprite10GetPaddingE20SpriteRenderDataMode
efh:_Array_InternalArray__ICollection_Remove_TisUInt32_t2560061978_m733727733_gshared
cqf:_CryptographicException__ctor_m503735289
iVd:_ConstructionCall_get_CallSiteActivationAttributes_m3498917408
JXg:_Stream_EndRead_m1896469262
Vdi:__Z93RuntimeInvoker_Boolean_t97287965_Int32_t2950945753_SByte_t1669577662_ExceptionU26_t3600731591PFvvEPK10MethodInfoPvPS4_
o_b:__ZN14qsort_internal5QSortIP15RODataDepthPassi17ROSorterDepthPassEEvT_S4_T0_T1_
Z4c:_UNITY_ft_glyphslot_alloc_bitmap
kYh:_ReadOnlyCollection_1_System_Collections_IList_Add_m3642938800_gshared
Mag:_RSASslSignatureDeformatter_SetHashAlgorithm_m895570787
w4:__ZL36TransformAccessArray_InitializeClassPv
M9i:_X509CrlEntry__ctor_m4013514048
YFj:__ZN15dense_hashtableI10KeyWrapperIPK17Il2CppGenericInstES4_N6il2cpp8metadata21Il2CppGenericInstHashEN14dense_hash_setIS4_S7_NS4_14EqualsComparerINS6_24Il2CppGenericInstCompareEEENSt3__29allocatorIS4_EEE8IdentityESB_SE_E16reset_thresholdsEv
Ori:__Z87RuntimeInvoker_Color_t2555686324_Color_t2555686324_Color_t2555686324_Single_t1397266774PFvvEPK10MethodInfoPvPS4_
N9c:_ft_raster1_render
OWh:_Collection_1_System_Collections_IList_get_IsReadOnly_m2288996004_gshared
UFc:__Z47Register_UnityEngine_Mesh_RecalculateBoundsImplv
fib:__ZN9GfxDevice27UpdateComputeSkinPoseBufferEP9GfxBufferP12SkinMeshInfo
KFh:_Enumerator_get_Current_m3382684163_AdjustorThunk
uZe:_InternalEnumerator_1_System_Collections_IEnumerator_Reset_m3677481164_AdjustorThunk
iqk:__ZNKSt3__221__basic_string_commonILb1EE20__throw_length_errorEv
nzh:_EqualityComparer_1_System_Collections_IEqualityComparer_Equals_m245992594_gshared
Mni:__Z52RuntimeInvoker_UInt64_t4134040092_Single_t1397266774PFvvEPK10MethodInfoPvPS4_
Rih:_Array_InternalArray__IndexOf_TisParameterModifier_t1461694466_m1227120810_gshared
GRb:__ZN18GfxFramebufferGLES13ReadbackImageER14ImageReferenceiiiiii
uMc:__ZN5Unity9rapidjson6WriterI16TempBufferWriterNS0_4UTF8IcEES4_13JSONAllocatorE11WriteStringEPKcj
yze:__ZL95WebRequestUtils_t3541624225_CustomAttributesCacheGenerator_WebRequestUtils_RedirectTo_m55747000P21CustomAttributesCache
Iia:__ZN6prcoreL12RemapGenericI17TexFormatARGB888815TexFormatRGB565EEvPKNS_9InnerInfoE
iN:__ZN4FMOD7Channel19setReverbPropertiesEPK29FMOD_REVERB_CHANNELPROPERTIES
rmj:_StandardEventPayload_GetParameters_m2672427676
XZg:_StreamReader_Dispose_m156389394
O7:__ZN13MonoBehaviour22GetScriptFullClassNameEv
eYj:_il2cpp_object_get_class
aeg:_SymmetricAlgorithm_get_Padding_m1011382560
nyc:__ZN13ProduceHelperI11MonoManagerLb0EE7ProduceE10MemLabelId18ObjectCreationMode
f4i:_RIPEMD160Managed_JJ_m112143231
AZb:__ZN13BatchRendererC2ER15RenderLoopStatsRK15RenderNodeQueuebb
V8e:_Comparer_1__ctor_m191896560_gshared
loh:_PreviousInfo_t2148130204_marshal_pinvoke_back
Egb:__ZNK16MemoryFileSystem9EnumerateEPKcP19dynamic_block_arrayI13FileEntryInfoLj32EEbPPv19FileEnumerationFlag
ZEb:__ZN13MonoBehaviour9CallAwakeEv
eIa:__ZN20SphericalHarmonicsL211AddWeightedERKS_f
Ygi:__Z82RuntimeInvoker_RuntimeObject_Int64_t3736567304_Int64_t3736567304_Int64_t3736567304PFvvEPK10MethodInfoPvPS4_
Etb:__Z19TransferField_ArrayI17RemapPPtrTransfer27Converter_SimpleNativeClassI8GUIStyleEEvRK23StaticTransferFieldInfoR31RuntimeSerializationCommandInfoRT0_
J2:__ZL22StaticInitializeShaderPv
iNc:__ZN9JSONWrite8TransferI10ColorRGBAfEEvRT_PKc17TransferMetaFlags
Sod:__ZN11UnityEngine9Analytics22EventLimitResumedEventC2EjRKN4core12basic_stringIcNS2_20StringStorageDefaultIcEEEEb
B5e:_InternalEnumerator_1__ctor_m3913006324_AdjustorThunk
h8:__Z25scripting_method_get_name18ScriptingMethodPtr
Xag:_SslCipherSuite_ComputeKeys_m661027754
c6e:_InternalEnumerator_1__ctor_m3322594868_gshared
BEf:_Object_set_name_m291480324
gme:__ZL68UpdateCanvasRectTransform_t1832875547_CustomAttributesCacheGeneratorP21CustomAttributesCache
F0g:_Convert_ToBoolean_m481380807
N9g:_Decimal_Equals_m2486655999
yhk:_GC_exit_check
XQe:_AssemblyName_SetPublicKeyToken_m582470133
zsi:__Z52RuntimeInvoker_Boolean_t97287965_HitInfo_t3229609740PFvvEPK10MethodInfoPvPS4_
zQ:__ZNK4PPtrI9AudioClipEcvPS0_Ev
H6:__Z20UnlockObjectCreationv
R4h:__ZN16VirtFuncInvoker2Ii19Color32_t2600501292S0_E6InvokeEjP12Il2CppObjectS0_S0_
H1b:__Z34SetupObjectBakedOcclusionInForwardbRK15SharedLightDataRK26SharedLightmapSettingsDataRK15LightmapIndicesR17ShaderPassContext
$qh:_DSAManaged_get_Random_m923751780
A4:__ZL29TransformAccessChangeCallbackPK15TransformAccessj
hNf:_Vector3_set_Item_m1772472431_AdjustorThunk
hwg:_Interpreter_PopulateGroup_m4042796257
Dpd:__ZN9Scripting11UnityEngine10Networking18CertificateHandler9InitProxyEv
xsd:__ZN9Scripting11UnityEngine12Experimental2XR13TrackableType9InitProxyEv
FQh:_Type_GetProperty_m3414567179
U1j:__ZN6il2cpp2vm13LivenessState25FieldCanContainReferencesEP9FieldInfo
Xac:__ZNSt3__26vectorINS_4pairIN4core12basic_stringIcNS2_20StringStorageDefaultIcEEEES6_EE13stl_allocatorIS7_L18MemLabelIdentifier38ELi16EEE6insertENS_11__wrap_iterIPKS7_EERSD_
zzf:_RenderPipelineManager_DoRenderLoop_Internal_m3799666479
cre:__ZL78Sprite_t280657092_CustomAttributesCacheGenerator_Sprite_get_packed_m1179604684P21CustomAttributesCache
ED:__ZN9BlobWrite8TransferI22OffsetPtrArrayTransferI9OffsetPtrIN7mecanim12statemachine18StateMachineMemoryEEEEEvRT_PKc17TransferMetaFlags
wqj:__ZL24UnresolvedVirtualCall_27P12Il2CppObjectS0_aPK10MethodInfo
_xc:__Z13RegisterClassI14PlayerSettingsEvPKc
df:_emscripten_glStencilOpSeparate
z1i:_Collection_1_System_Collections_IList_IndexOf_m3894953546_gshared
Y7i:_PKCS12_get_Certificates_m26161562
Rng:_NameObjectCollectionBase_Init_m2525481323
G0b:__ZN15SkyboxGenerator28GetCubemapSkyboxVertexFormatEv
Skb:__ZN19ShaderPropertySheet24SetTextureWithExplicitIDERK23FastTexturePropertyNameP7Texture9TextureID
mHh:_List_1_Insert_m1582252370_gshared
idk:__ZN6il2cpp2vm6String8NewUtf16EPKDsi
$of:_SByte_System_IConvertible_ToByte_m2268214252_AdjustorThunk
Tak:__ZN6il2cpp2os10ThreadImpl12QueueUserAPCEPFvPvES2_
CS:__Z32TransferEnumWithNameForceIntSizeI14SafeBinaryReadN10SampleClip17CompressionFormatEEvRT_RT0_PKc17TransferMetaFlags
lfj:_RegularExpression__ctor_m119502265
fpd:__ZN22BaseUnityConnectClient10QueueEventERN11UnityEngine15CloudWebService17CloudServiceEventEPKcjb
wWf:_DelegatePInvokeWrapper_RaycastAllCallback_t1884415901
p_h:_ReadOnlyCollection_1_System_Collections_Generic_ICollectionU3CTU3E_Clear_m522482168_gshared
dTe:_DerivedType_IsByRefImpl_m2585680005
kVd:_ConstructionCall_InitMethodProperty_m2021094586
VDc:__Z27Texture_CUSTOM_GetDataWidthP12Il2CppObject
L7c:_UNITY_FT_Hypot
Lte:__ZL95TextGenerator_t3211863866_CustomAttributesCacheGenerator_TextGenerator_get_lineCount_m916872812P21CustomAttributesCache
cGe:__ZL74CanvasScaler_t2767979955_CustomAttributesCacheGenerator_m_DefaultSpriteDPIP21CustomAttributesCache
rXj:_il2cpp_class_is_abstract
xf:_emscripten_glGetError
zTj:__ZN15dense_hashtableINSt3__24pairIK10KeyWrapperIPK14Il2CppAssemblyEPK22Il2CppMonoAssemblyNameEES6_N6il2cpp5utils11PointerHashIS4_EEN14dense_hash_mapIS6_SA_SF_NS6_14EqualsComparerINS0_8equal_toIS5_EEEENS0_9allocatorISB_EEE9SelectKeyESK_SM_E14squash_deletedEv
yzg:_SmallXmlParser__ctor_m202236734
kO:__Z14FMOD_FILE_SeekPvjS_
EUf:_MaskableGraphic_OnDisable_m1757789159
rJa:__ZN7TextureC2E10MemLabelId18ObjectCreationMode
tSf:_LayoutGroup__ctor_m2162961217
hjd:__Z56Register_UnityEngine_Analytics_CustomEventData_AddStringv
qgd:__ZZN2UI6Canvas15InitializeClassEvEN39FunctorImpl_1449kCanvasHierarchyChanged4CallEPviR11MessageData
vUh:_ValueType_t3640485471_marshal_pinvoke_cleanup
d8b:__ZNK13RenderTexture32CalculateNeedsInvertedProjectionEv
idc:__ZN10systeminfo18GetOperatingSystemEv
Ff:emscriptenWebGLGet
Caa:__Z19CanReplaceComponentRN5Unity9ComponentEPKNS_4TypeEPN4core12basic_stringIcNS5_20StringStorageDefaultIcEEEE
zKe:_UnmanagedMemoryStream_Flush_m1540584491
t0i:_Collection_1_GetEnumerator_m3986802482_gshared
UQg:_GuidParser_ParseGuid2_m1914838819
iwc:__ZN12CubemapArray11InitTextureEiii13TextureFormatb
sEi:__Z36RuntimeInvoker_Enumerator_t185561725PFvvEPK10MethodInfoPvPS4_
zOi:_List_1_System_Collections_IList_get_Item_m1112579679_gshared
k4d:__ZL70ReliabilityContractAttribute_t502331440_CustomAttributesCacheGeneratorP21CustomAttributesCache
zYe:_InternalEnumerator_1_System_Collections_IEnumerator_get_Current_m55999184_gshared
jhf:_ValueCollection_System_Collections_Generic_ICollectionU3CTValueU3E_Contains_m1842955046_gshared
oQj:__ZN24dense_hashtable_iteratorINSt3__24pairIK10KeyWrapperIPK10Il2CppTypeEjEES6_N6il2cpp8metadata14Il2CppTypeHashEN14dense_hash_mapIS6_jSB_NS6_14EqualsComparerINSA_26Il2CppTypeEqualityComparerEEENS0_9allocatorIS8_EEE9SelectKeyESF_SH_E30advance_past_empty_and_deletedEv
_sj:__ZL25UnresolvedVirtualCall_165P12Il2CppObjectiiPK10MethodInfo
mFd:_Graphic_get_depth_m815589653
hhj:_Event_set_displayIndex_m1342258734
rBd:_ContentSizeFitter_get_horizontalFit_m2773126143
SSf:_LayoutGroup_SetLayoutInputForAxis_m2458344630
lE:__ZN7mecanim5human13HumanFixTwistEPKNS0_5HumanEPNS_8skeleton13SkeletonPoseTIN4math4trsXEEES9_iiRKf
u1b:__ZL24AssignProjectorQueuesJobP30AssignProjectorQueuesJobHeader
Cuh:_KeyValuePair_2_get_Key_m1218836954_gshared
fOd:_ParameterModifier_t1461694466_marshal_pinvoke
yjc:__ZNSt3__26vectorIN9ShaderLab20SerializedSubProgram15StructParameterENS_9allocatorIS3_EEE21__push_back_slow_pathIS3_EEvOT_
dSg:_Int16_System_IConvertible_ToUInt32_m3410279543
ljc:__ZN9ShaderLab20SerializedSubProgram14SetConstBufferEPKci
qOj:__ZN6il2cpp2os4File5CloseEPNS0_10FileHandleEPi
RGj:__ZNSt3__27__sort5IRN6il2cpp5utils11collections13ArrayValueMapIPK10Il2CppType17Il2CppInteropData26InteropDataToTypeConverterNS1_8metadata14Il2CppTypeLessENSA_26Il2CppTypeEqualityComparerEE12SortComparerEPS8_EEjT0_SH_SH_SH_SH_T_
$Kf:_Touch_get_fingerId_m859576425_AdjustorThunk
lzi:__Z48RuntimeInvoker_Boolean_t97287965_Link_t544317964PFvvEPK10MethodInfoPvPS4_
X$c:_cf2_getStdVW
fQi:_List_1_System_Collections_ICollection_CopyTo_m2688165607_gshared
Wyi:__Z53RuntimeInvoker_UIVertex_t4057497605_Int32_t2950945753PFvvEPK10MethodInfoPvPS4_
QRh:_UInt16_CompareTo_m2664746316_AdjustorThunk
shf:_ValueCollection_GetEnumerator_m616748621_gshared
bhb:__ZN9GfxDevice13SetActiveTierE12GraphicsTier
WRc:__Z29Transfer_Blittable_ArrayFieldI8JSONReadjEvRT_R9ArrayInfoRK23StaticTransferFieldInfo
v2h:_ReadOnlyCollection_1_get_Item_m679165083_gshared
Ehk:_GC_check_finalizer_nested
lg:__setLetterbox
LYf:_ScrollRect_OnScroll_m3861066534
Xif:_Dictionary_2_ToTKey_m224697230_gshared
Nqe:__ZL72FormerlySerializedAsAttribute_t2859083114_CustomAttributesCacheGeneratorP21CustomAttributesCache
sOf:_OnValidateInput_Invoke_m1009124904
acj:_PatternCompiler_EmitFastRepeat_m3012952683
O$a:__ZNSt3__26vectorI17BlendShapeChannelNS_9allocatorIS1_EEE6assignINS_11__wrap_iterIPS1_EEEENS_9enable_ifIXaasr21__is_forward_iteratorIT_EE5valuesr16is_constructibleIS1_NS_15iterator_traitsISA_E9referenceEEE5valueEvE4typeESA_SA_
hKb:__Z12SetGfxDeviceP9GfxDevice
bdc:__ZN11TimeManager11GetRealtimeEv
sne:__ZL91RectOffset_t1369453676_CustomAttributesCacheGenerator_RectOffset_get_horizontal_m2663785949P21CustomAttributesCache
xEf:_Object_GetHashCode_m1944636947
RVg:_BinaryReader_ReadUInt32_m2210658763
GO:__ZN29AudioEffectInternalDefinitionC2EP26UnityAudioEffectDefinitionb
o3h:_ReadOnlyCollection_1_System_Collections_IList_Remove_m2434650390_gshared
hSh:_UInt16_ToString_m3056878594_AdjustorThunk
Odf:_ShimEnumerator_get_Value_m1878724567_gshared
xvh:_Dictionary_2_System_Collections_Generic_ICollectionU3CSystem_Collections_Generic_KeyValuePairU3CTKeyU2CTValueU3EU3E_Contains_m2803718146_gshared
amj:_EventTrigger_set_repeatTime_m1188543944
exg:_Interval_get_IsSingleton_m3386290029
MWj:__ZNSt3__2plIcNS_11char_traitsIcEENS_9allocatorIcEEEENS_12basic_stringIT_T0_T1_EERKS9_PKS6_
XKf:_Time_get_unscaledDeltaTime_m4270080131
Nmd:__ZN18UnityConnectClient27OnPlayerSessionStateChangedEjyy
ePa:_stbir_resize
dih:_Array_IndexOf_TisCustomAttributeTypedArgument_t2723150157_m3158556463_gshared
Pyh:_EqualityComparer_1_System_Collections_IEqualityComparer_GetHashCode_m360549782_gshared
Qch:_Environment_GetOSVersionString_m407782784
Jlg:_DecoderExceptionFallback_Equals_m1082173956
MAh:_EqualityComparer_1_System_Collections_IEqualityComparer_GetHashCode_m345188086_gshared
Q2d:__ZL69Assembly_t_CustomAttributesCacheGenerator_Assembly_GetName_m981771927P21CustomAttributesCache
cla:__ZL59__ManagedRegistrationHelperFunction_AsyncGPUReadbackRequestPv
hke:__ZL93Mesh_t3648964284_CustomAttributesCacheGenerator_Mesh_GetAllocArrayFromChannelImpl_m3084065604P21CustomAttributesCache
O_a:__ZN4PPtrI4MeshE8TransferI14SafeBinaryReadEEvRT_
tHc:__ZNSt3__26__treeINS_12__value_typeI7Hash12816CrashReportEventEENS_19__map_value_compareIS2_S4_NS_4lessIS2_EELb1EEE13stl_allocatorIS4_L18MemLabelIdentifier6ELi16EEE7destroyEPNS_11__tree_nodeIS4_PvEE
Teb:__Z37ReadDirectoryInfo_UnityWebAndUnityRawR12FileAccessorRKN20ArchiveStorageHeader6HeaderERNS1_13DirectoryInfoE
O4:__ZNSt3__26__treeINS_12__value_typeIPKciEENS_19__map_value_compareIS3_S4_15compare_tstringIS3_ELb1EEENS_9allocatorIS4_EEE7destroyEPNS_11__tree_nodeIS4_PvEE
hmh:_Array_InternalArray__Insert_TisIntPtr_t_m189626842_gshared
tsg:_X509Certificate2_get_IssuerName_m1277209535
kmh:_Locale_GetText_m3374010885
EWh:_Collection_1_System_Collections_IEnumerable_GetEnumerator_m1598238343_gshared
G3i:_RijndaelManaged_CreateEncryptor_m263736311
dOh:_WaitCallback__ctor_m1893321019
l_b:__ZN20DynamicPropertySheet14SetValueQueuedEN9ShaderLab16FastPropertyNameEN19ShaderPropertySheet12PropertyTypeEjNS2_8SetFlagsE
syf:_InvokableCallList_ClearPersistent_m1904264973
hGb:__ZN25PathNamePersistentManagerD2Ev
K5a:__ZN17PersistentManager48IntegrateObjectAndUnlockIntegrationMutexInternalEi
ope:__ZL85NativeDisableUnsafePtrRestrictionAttribute_t2582701661_CustomAttributesCacheGeneratorP21CustomAttributesCache
dha:__ZZ29InitializeSortingGroupManagerPvEN44PostLateUpdateSortingGroupsUpdateRegistrator7ForwardEv
Mze:__ZL55EventTrigger_t1076084509_CustomAttributesCacheGeneratorP21CustomAttributesCache
Ngg:_SecurityElement_SearchForChildByTag_m900466299
zp:__ZN6Object12SetHideFlagsENS_9HideFlagsE
F4g:_Convert_ToSingle_m3227075028
Jwk:_emscripten_glGetFramebufferAttachmentParameteriv__wrapper
t7b:__ZN13RendererScene15InitializeUmbraEv
rff:__ZN21InterfaceFuncInvoker2I26KeyValuePair_2_t2401056908P12Il2CppObjectiE6InvokeEjP11Il2CppClassS2_S2_i
rGa:__Z28CalculateGlobalMatrixInverse23TransformAccessReadOnly
YCf:_MonoBehaviour__ctor_m1579109191
lxe:__ZL59GUITargetAttribute_t25796337_CustomAttributesCacheGeneratorP21CustomAttributesCache
UBh:_GenericEqualityComparer_1_Equals_m3457564127_gshared
C0f:_BigInteger_ModInverse_m2426215562
Lfa:__ZN17CallbackArrayBaseIPFvPK9IndexListPK16RendererCullDataEPFvPKvS2_S5_EE8RegisterES7_SB_S9_
g_e:_InternalEnumerator_1_System_Collections_IEnumerator_Reset_m2386791007_AdjustorThunk
Flg:_DecoderExceptionFallback__ctor_m4044614564
_$e:_InternalEnumerator_1_System_Collections_IEnumerator_Reset_m3011999097_AdjustorThunk
kZj:__ZN6il2cpp2vm6Thread17FullMemoryBarrierEv
EKe:_LocalDataStoreSlot__cctor_m644942532
Rlk:__ZN6il2cpp6icalls8mscorlib6System6Object7GetTypeEP12Il2CppObject
cNd:_MonoProperty_CachePropertyInfo_m2968057423
Lpd:__ZNK25UnityWebRequestJavaScript18GetDownloadedBytesEv
QGf:_Ray_GetPoint_m1852405345_AdjustorThunk
h1d:__ZL53RegionInfo_t1090270226_CustomAttributesCacheGeneratorP21CustomAttributesCache
qye:__ZL85Canvas_t3310196443_CustomAttributesCacheGenerator_Canvas_get_sortingOrder_m1860900812P21CustomAttributesCache
sYd:__ZL74Single_t1397266774_CustomAttributesCacheGenerator_Single_IsNaN_m4024467661P21CustomAttributesCache
lIb:__Z21BeginSplashScreenFadev
Xpd:__ZN12HeaderHelper14SetUnvalidatedERKN4core12basic_stringIcNS0_20StringStorageDefaultIcEEEES6_b
OM:__ZN4FMOD6SoundI7releaseEv
y1c:_cff_parse_num
vfb:__ZN10MemoryFile9SetLengthEy
Kvb:__ZN5RectTIiE8TransferI24GenerateTypeTreeTransferEEvRT_
kMg:_Exception_get_ClassName_m2428844642
CFb:__Z28scripting_class_is_interface17ScriptingClassPtr
Ch:_glTexStorage2D
SNg:_CultureInfo_ConstructInternalLocaleFromName_m4012802696
VLa:__ZNK9ShaderLab10SubProgram14EnsureCompiledEv
WVe:_MethodBuilder_GetGenericArguments_m1765425737
k7g:_DateTime_CompareTo_m3687348273
tgk:_GC_push_marked
J7g:_DateTime_ToUniversalTime_m1945318289_AdjustorThunk
N6e:_InternalEnumerator_1_MoveNext_m1262669372_gshared
ZLg:_EventArgs__ctor_m32674013
t3g:_Convert_ToInt16_m1336719169
Z7:__Z18BuildScriptClassId17ScriptingClassPtr
xwj:_TextGenerator_Init_m1168488231
xsh:_RSAManaged_Finalize_m3915335854
wp:__ZNK16LevelGameManager7GetNameEv
ddb:__ZL31DeleteLastPathNameComponentImplRKN4core12basic_stringIcNS_20StringStorageDefaultIcEEEEPKc
C8g:_DBNull_System_IConvertible_ToUInt64_m4072736670
Qjd:__ZN18UnityConnectClient15GetCloudServiceEv
orb:__Z29Transfer_Blittable_ArrayFieldI14SafeBinaryRead5RectTIiEEvRT_R9ArrayInfoRK23StaticTransferFieldInfo
O0e:_InternalEnumerator_1_get_Current_m2698009637_gshared
sKj:__ZN6il2cpp2os19SocketHandleWrapperD2Ev
oEf:_U3CAddAndCreateU3Ec__AnonStorey1__ctor_m1186055370
wFb:__ZL28SerializationCommandGroupForRK31TransferFunctionScriptingTraits17ScriptingClassPtr17ScriptingFieldPtrRK20CoreScriptingClasses
xva:__ZN10TagManager32RegisterDefaultTagsAndLayerMasksEv
qOh:_WaitHandle_Dispose_m738127030
aUi:_List_1_System_Collections_IList_get_IsReadOnly_m1729002068_gshared
$mi:__Z50RuntimeInvoker_Double_t594665363_Int32_t2950945753PFvvEPK10MethodInfoPvPS4_
$6h:_Predicate_1_EndInvoke_m1490920825_gshared
qde:__ZL78LoaderOptimization_t1484956347_CustomAttributesCacheGenerator_DisallowBindingsP21CustomAttributesCache
yvh:_Dictionary_2_System_Collections_Generic_ICollectionU3CSystem_Collections_Generic_KeyValuePairU3CTKeyU2CTValueU3EU3E_CopyTo_m3122240003_gshared
Zvi:__Z104RuntimeInvoker_Void_t1185182177_Color_t2555686324_Single_t1397266774_SByte_t1669577662_SByte_t1669577662PFvvEPK10MethodInfoPvPS4_
ATi:_List_1_Remove_m3853969205_gshared
aGh:_Enumerator_System_Collections_IEnumerator_get_Current_m1540440674_gshared
Jhg:_Single_System_IConvertible_ToInt16_m809233024_AdjustorThunk
jjd:__Z56Register_UnityEngine_Analytics_CustomEventData_AddUInt32v
vok:_fmodf
fla:__ZL47__ManagedRegistrationHelperFunction_CullResultsPv
OOb:__ZN4gles8InitCapsEP7ApiGLESP12GraphicsCapsR16GfxDeviceLevelGL
wPa:__ZN6prcore14BlitImageFloatERK14ImageReferenceRS0_NS0_8BlitModeE
MHa:__Z24CalculateVertexLightDataRK15SharedLightDataR14GfxVertexLight
ki:_glEnable
NRj:__ZN15dense_hashtableINSt3__24pairIK10KeyWrapperINS1_IPK12PropertyInfoP11Il2CppClassEEEjEES9_17ReflectionMapHashIS8_EN14dense_hash_mapIS9_jSD_NS9_14EqualsComparerINS0_8equal_toIS8_EEEENS0_9allocatorISB_EEE9SelectKeyESI_SK_E15insert_noresizeERKSB_
cqa:__ZN9Scripting11UnityEngine33ExcludeFromObjectFactoryAttribute12CleanupProxyEv
RLa:__ZNK9ShaderLab7Program28BeginReadUnsupportedVariantsEv
ita:__ZN12CachedWriter11Align4WriteEv
Dtj:__ZL25UnresolvedVirtualCall_196P12Il2CppObject22UILineInfo_t4195266810S1_PK10MethodInfo
n4a:__ZNSt3__26vectorIN30RuntimeInitializeOnLoadManager9ClassInfoE13stl_allocatorIS2_L18MemLabelIdentifier13ELi16EEE7reserveEj
uNc:__Z35Transfer_Blittable_FixedBufferFieldI9JSONWriteiEvRK29SerializationCommandArgumentsR31RuntimeSerializationCommandInfo
wve:__ZL85AudioSource_t3935305588_CustomAttributesCacheGenerator_AudioSource_set_clip_m31653938P21CustomAttributesCache
iCh:_Enumerator__ctor_m1590062855_AdjustorThunk
xUj:__ZN14dense_hash_mapI10KeyWrapperINSt3__24pairIPK10MethodInfoP11Il2CppClassEEEj17ReflectionMapHashIS8_ENS9_14EqualsComparerINS1_8equal_toIS8_EEEENS1_9allocatorINS2_IKS9_jEEEEEC2EjRKSB_RKSF_
gA:__ZN26AnimatorControllerPlayable17ProcessRootMotionEP35AnimationPlayableEvaluationConstantP32AnimationPlayableEvaluationInputP33AnimationPlayableEvaluationOutput
L6d:__ZL54SoapServices_t133988723_CustomAttributesCacheGeneratorP21CustomAttributesCache
bKe:_UnexceptionalStreamReader_Peek_m1842169584
Ukd:__ZN11UnityEngine7Connect15DeviceInfoEvent16CollectExtraInfoEv
gYi:_Queue_1_System_Collections_IEnumerable_GetEnumerator_m3464578225_gshared
bOf:_TypeInferenceRuleAttribute__ctor_m2736695831
Buf:_Bounds_GetHashCode_m1844059663_AdjustorThunk
tqf:_CryptographicException__ctor_m1422015889
FNf:_Vector4_Equals_m1779210055_AdjustorThunk
O5g:_Convert_ChangeType_m739676612
Gpk:_atoi
SUb:__ZN20ArchiveStorageReader10InitializeER15FileSystemEntryyb
Hpk:_atol
xek:__ZThn8_N6il2cpp2vm13CachedCCWBaseINS0_13ManagedObjectEE6AddRefEv
gJd:_TypeBuilder_CreateType_m3375483507
zYh:_ReadOnlyCollection_1_GetEnumerator_m3690861713_gshared
fph:_ModulusRing_BarrettReduction_m167376748
bjf:_RemotingServices_GetRealProxy_m2081098851
Iqh:_BlockProcessor_Core_m189015002
TEj:__ZN15dense_hashtableINSt3__24pairIK10KeyWrapperIPKcEP11Il2CppClassEES5_N6il2cpp5utils11StringUtils12StringHasherIS4_EEN14dense_hash_mapIS5_S8_SE_NS5_14EqualsComparerINSB_13VmStringUtils21CaseSensitiveComparerEEENS0_9allocatorIS9_EEE9SelectKeyESJ_SL_EC2EjRKSE_RKSJ_RKSN_
Rwk:_emscripten_glScissor__wrapper
vo:FUNCTION_TABLE_viifi
wo:FUNCTION_TABLE_viiff
Xyg:_X501__cctor_m1166912714
HAe:__ZL102PointerEventData_t3807901092_CustomAttributesCacheGenerator_PointerEventData_set_lastPress_m2928324031P21CustomAttributesCache
M_d:__ZL37Type_t_CustomAttributesCacheGeneratorP21CustomAttributesCache
it:__ZN9Scripting11UnityEngine14AnimationState9InitProxyEv
bvf:_Bounds_ToString_m4208690781
IZj:__ZN15dense_hashtableINSt3__24pairIK10KeyWrapperINS1_IP11Il2CppClassjEEES4_EES6_N6il2cpp8metadata14ArrayClassHashEN14dense_hash_mapIS6_S4_SB_NS6_14EqualsComparerINSA_17ArrayClassCompareEEENS0_9allocatorIS8_EEE9SelectKeyESF_SH_E5clearEv
qEj:__ZNSt3__218uninitialized_copyIPNS_4pairIK10KeyWrapperIPK11Il2CppClassEPKcEESB_EET0_T_SD_SC_
wVj:__ZN6il2cpp2vm14TypeNameParser5ParseEb
aLe:_Math_Sqrt_m1297338011
l_g:_StreamWriter_Initialize_m3490883444
SQh:_Type_GetGenericArguments_m3500465462
SJj:__ZN15dense_hashtableINSt3__24pairIK10KeyWrapperIP9FieldInfoEiEES5_N6il2cpp5utils11PointerHashIS3_EEN14dense_hash_mapIS5_iSB_NS5_14EqualsComparerINS0_8equal_toIS4_EEEENS0_9allocatorIS7_EEE9SelectKeyESG_SI_E12resize_deltaEjj
vod:__ZN23UnityPurchasingSettingsC2Ev
grk:__ZNSt9bad_allocD0Ev
kLd:_Module_IsDefined_m2423524910
SSe:_DerivedType_create_unmanaged_type_m747846525
cwe:__ZL60EventType_t3528516131_CustomAttributesCacheGenerator_repaintP21CustomAttributesCache
lAa:__ZN17GPUFenceInternals7ReleaseEv
cFe:__ZL66Selectable_t3250028441_CustomAttributesCacheGenerator_m_NavigationP21CustomAttributesCache
DOd:_ResolveEventHandler__ctor_m1911137231
zAc:__ZN17MaterialScripting18CreateWithMaterialE21ScriptingObjectOfTypeI8MaterialEPS1_
S2i:_Collection_1_System_Collections_IList_Contains_m2393482847_gshared
e8b:__ZL10RenderFaceR9GfxDeviceR18MaterialStateCacheP13RenderTextureiif
cih:_Array_IndexOf_TisCustomAttributeNamedArgument_t287865710_m2817957199_gshared
wZh:_ReadOnlyCollection_1_System_Collections_IList_RemoveAt_m1980090087_gshared
l7i:_ExtendedKeyUsageExtension_ToString_m2116504780
R8a:__ZNK5Unity9Component38MarkGameObjectAndComponentDependenciesER27GarbageCollectorThreadState
BVg:_BinaryReader_Read_m3708759962
HT:__ZNK7Texture21GetShadowSamplingModeEv
y8:__ZNK11TypeManager15ClassNameToRTTIEPKcb
Ika:__ZL57__ManagedRegistrationHelperFunction_DefaultExecutionOrderPv
fZa:__ZN13ScreenManager21OnWindowRegainedFocusEv
pCb:__Z18Transfer_BlittableI18StreamedBinaryReadILb0EELb1EdEvRK29SerializationCommandArgumentsR31RuntimeSerializationCommandInfo
tOb:__ZN9GfxDevice26CreateDefaultVertexBuffersEv
jyk:_emscripten_glVertexAttrib2fv__wrapper
urd:__ZN13RuntimeStaticINSt3__26vectorIPN5physx15PxVehicleWheelsENS0_9allocatorIS4_EEEELb0EE13StaticDestroyEPv
nJe:_SynchronizedReader_ReadToEnd_m2160105378
ubh:_Double_System_IConvertible_ToUInt16_m4132603953_AdjustorThunk
gSa:__ZN4crnd12symbol_codec32decode_receive_static_data_modelERNS_25static_huffman_data_modelE
Xuc:__ZN18ScriptingArguments8AddFloatEf
sHd:_Image_set_fillOrigin_m469806249
Ikd:__ZN11UnityEngine15PlatformWrapper16GetVRRenderScaleEv
uOc:__Z18Transfer_BlittableI9JSONWriteLb0EaEvRK29SerializationCommandArgumentsR31RuntimeSerializationCommandInfo
ZX:__ZN11UnityEngine15CloudWebService14DataDispatcher34OnSessionContainerArchivedAndReadyERNS0_16SessionContainerE
HDf:_ConnectionChangeEvent__ctor_m764126802
Q0f:_Kernel_Multiply_m193213393
ZLe:_IntComparer__ctor_m2901422390
EOd:_ResolveEventHandler_Invoke_m1337322179
Q7d:__ZL50HMACMD5_t2742219965_CustomAttributesCacheGeneratorP21CustomAttributesCache
l8e:_Comparer_1__ctor_m1078828713_gshared
nwb:__Z18Transfer_BlittableI19StreamedBinaryWriteILb0EELb0E8Vector3fEvRK29SerializationCommandArgumentsR31RuntimeSerializationCommandInfo
UEh:_Enumerator_VerifyState_m2621680056_gshared
fgj:_UriParser_InternalRegister_m3643767086
Hte:__ZL106TextGenerator_t3211863866_CustomAttributesCacheGenerator_TextGenerator_INTERNAL_get_rectExtents_m183810018P21CustomAttributesCache
Dec:__ZN14SafeBinaryRead19TransferSTLStyleMapINSt3__23mapIN4core12basic_stringIcNS3_20StringStorageDefaultIcEEEEiNS1_4lessIS7_EENS1_9allocatorINS1_4pairIKS7_iEEEEEEEEvRT_17TransferMetaFlags
NOg:_DateTimeFormatInfo_get_RawAbbreviatedDayNames_m1257850285
_bg:_RSACryptoServiceProvider_EncryptValue_m944137256
qRj:__ZN15dense_hashtableINSt3__24pairIK10KeyWrapperINS1_IPK11Il2CppImageP11Il2CppClassEEEjEES9_17ReflectionMapHashIS8_EN14dense_hash_mapIS9_jSD_NS9_14EqualsComparerINS0_8equal_toIS8_EEEENS0_9allocatorISB_EEE9SelectKeyESI_SK_ED2Ev
n6c:_gray_move_to
y8g:_DBNull_System_IConvertible_ToSingle_m13713620
YGg:_Char_ToLowerInvariant_m1926695830
MGe:__ZL127U3CDelayedSetDirtyU3Ec__Iterator0_t3170500204_CustomAttributesCacheGenerator_U3CDelayedSetDirtyU3Ec__Iterator0_Reset_m160466733P21CustomAttributesCache
Kvf:_CameraCallback__ctor_m899467377
sZh:_ReadOnlyCollection_1_System_Collections_IList_Contains_m1327645028_gshared
FHd:_Image_GetDrawingDimensions_m3060965396
Vte:__ZL69FontTextureRebuildCallback_t2467502454_CustomAttributesCacheGeneratorP21CustomAttributesCache
jRh:_TypeLoadException__ctor_m1154572625
ZCc:__Z30RegisterValidateMethodCallbackiPF18ScriptingMethodPtrS_17ScriptingClassPtrP6ObjectEPKc
DNa:__ZNSt3__27__sort4IRPFbRKNS_4pairIN9ShaderLab16FastPropertyNameE10ColorRGBAfEES7_EPS5_EEjT0_SC_SC_SC_T_
BYd:__ZL75Decimal_t2948259380_CustomAttributesCacheGenerator_Decimal__ctor_m593929528P21CustomAttributesCache
$7f:_Context_get_WriteSequenceNumber_m1115956887
l5f:_CipherSuite_get_ClientHMAC_m377589750
MKi:_Dictionary_2_Do_ICollectionCopyTo_TisKeyValuePair_2_t2401056908_m1169495264_gshared
zWe:_OpCodes__cctor_m3821715395
qBd:_ContentSizeFitter__ctor_m2349275633
rfe:__ZL56TypeConverter_t2249118273_CustomAttributesCacheGeneratorP21CustomAttributesCache
C2i:_Collection_1_RemoveAt_m3506636491_gshared
D5c:_tt_cmap_init
NSc:__ZN8JSONRead8TransferI9BoundsIntEEvRT_PKc17TransferMetaFlagsb
z9j:__ZN24dense_hashtable_iteratorINSt3__24pairIK10KeyWrapperIPcES3_EES4_N6il2cpp5utils15PassThroughHashIS3_EEN14dense_hash_mapIS4_S3_SA_NS4_14EqualsComparerINS0_8equal_toIS3_EEEENS0_9allocatorIS6_EEE9SelectKeyESF_SH_E30advance_past_empty_and_deletedEv
mb:invoke_viidi
Ffb:__ZN25SingleBlockMemoryFileData9SetLengthEy
lJi:_Array_Sort_TisOrderBlock_t1585977831_m2922111197_gshared
dFd:_Graphic_OnRectTransformDimensionsChange_m3695755375
bpf:_SByte_System_IConvertible_ToChar_m1489191771_AdjustorThunk
EM:__ZN9AudioClip7CleanupEv
Vxc:__Z13RegisterClassI18DelayedCallManagerEvPKc
kCi:__Z76RuntimeInvoker_Void_t1185182177_Int32_t2950945753_PlayableBinding_t354260709PFvvEPK10MethodInfoPvPS4_
_wg:_Interval_t1802865632_marshal_pinvoke_cleanup
U_j:__ZNK15dense_hashtableINSt3__24pairIK10KeyWrapperIP11Il2CppClassES4_EES5_N6il2cpp8metadata16SZArrayClassHashEN14dense_hash_mapIS5_S4_SA_NS5_14EqualsComparerINS9_19SZArrayClassCompareEEENS0_9allocatorIS7_EEE9SelectKeyESE_SG_E12test_deletedEj
D3g:_Convert_ToInt16_m1223489986
AFd:_Graphic_GraphicUpdateComplete_m1502194795
oRc:__Z18Transfer_BlittableI8JSONReadLb0EdEvRK29SerializationCommandArgumentsR31RuntimeSerializationCommandInfo
tUd:_SynchronizationAttribute_EnterContext_m1660729920
fxj:_Canvas_get_referencePixelsPerUnit_m3420541976
yZh:_ReadOnlyCollection_1_System_Collections_ICollection_get_SyncRoot_m2522539235_gshared
fhj:_Event_get_current_m2393892120
ynj:_VertexHelper_Clear_m627349662
qLj:__ZN6il2cpp2vm21ThreadPoolCompartment13QueueWorkItemEP17Il2CppAsyncResult
yhb:__ZNK9GfxDevice13GetViewMatrixEv
AKe:_UnmanagedMemoryStream_Dispose_m2681886347
Q7a:__ZN17RemapPPtrTransferC2E24TransferInstructionFlagsb
M2g:_Convert_ToDecimal_m889385228
B9:__ZN8TypeTree8BlobReadERPKhS1_ib
tre:__ZL87Display_t1387065949_CustomAttributesCacheGenerator_Display_GetSystemExtImpl_m2808197389P21CustomAttributesCache
XCg:_Array_Reverse_m3714848183
zDd:_Dropdown_ClearOptions_m4085591601
DAd:_CanvasUpdateRegistry_InternalRegisterCanvasElementForGraphicRebuild_m3522560454
Suh:_KeyValuePair_2__ctor_m880186442_gshared
X5a:__ZN18LoadSceneOperation23GetAllowSceneActivationEv
qya:__ZN6CameraD0Ev
SYi:_Collection_1_System_Collections_IList_get_IsReadOnly_m2319019412_gshared
iwe:__ZL57EventModifiers_t2016417398_CustomAttributesCacheGeneratorP21CustomAttributesCache
IWh:_Collection_1_System_Collections_IList_IndexOf_m837396833_gshared
yz:__ZN7mecanim12AndValueMaskILb0EEEvPKNS_14ValueArrayMaskEPS1_
b4a:__ZN14SafeBinaryRead21TransferSTLStyleArrayINSt3__26vectorIi13stl_allocatorIiL18MemLabelIdentifier13ELi16EEEEEEvRT_17TransferMetaFlags
pmg:_EncoderFallback__cctor_m3806755293
NZe:_InternalEnumerator_1__ctor_m962177456_AdjustorThunk
o_c:_raccess_guess_apple_double
mQb:__ZL18ProgramUniform1uivPK7ApiGLESjiihPKv
rwc:__ZN14Texture2DArray13RebuildMipMapEv
RDj:__ZN13Il2CppHashSetIPK17Il2CppGenericInstN6il2cpp8metadata21Il2CppGenericInstHashENS4_24Il2CppGenericInstCompareENSt3__29allocatorI10KeyWrapperIS2_EEEEC2EjRKS5_RKS6_
mpb:__Z18Transfer_BlittableI14SafeBinaryReadLb1EaEvRK29SerializationCommandArgumentsR31RuntimeSerializationCommandInfo
K9j:__ZN6il2cpp2gc16GarbageCollector14RemoveWeakLinkEPPv
mjc:__ZN9ShaderLab20SerializedSubProgram14AddVectorParamEPKcii15ShaderParamTypei
GQi:_List_1_GetEnumerator_m563931292_gshared
_fd:__ZN2UI14CanvasRenderer12CleanupClassEv
W$g:_Enumerator__ctor_m3362421874
Tue:__ZL94AudioSampleProvider_t3950279772_CustomAttributesCacheGenerator_U3CtrackIndexU3Ek__BackingFieldP21CustomAttributesCache
h6j:__ZN6il2cpp2vm6Object3BoxEP11Il2CppClassPv
jZj:__ZN6il2cpp2vm6Thread7SetNameEP12Il2CppThreadP12Il2CppString
sZ:__ZN11UnityEngine15CloudWebService10RestClientINS0_23WebRequestRestHeaderMapEE16SetRequestHeaderERKN4core12basic_stringIcNS4_20StringStorageDefaultIcEEEESA_
g4a:__ZN30RuntimeInitializeOnLoadManager15ClassMethodInfo8TransferI14SafeBinaryReadEEvRT_
cVd:_ConstructionCall_InitDictionary_m2824447813
sOd:_TargetException__ctor_m3701535709
_zi:__Z86RuntimeInvoker_Int32_t2950945753_Vector3_t3722313464_Vector3_t3722313464_RuntimeObjectPFvvEPK10MethodInfoPvPS4_
zW:__ZL22InitializeModule_Audiov
qgb:__ZN16MemoryFileSystem8IsLockedERK13FileEntryData
x0j:__ZN6il2cpp6icalls8mscorlib6System2IO6MonoIO5WriteEiP11Il2CppArrayiiPi
TBf:_Mathf_InverseLerp_m4155825980
ZJf:_HitInfo_SendMessage_m1343099429_AdjustorThunk
mki:__Z92RuntimeInvoker_RuntimeObject_RuntimeObject_RuntimeObject_SByte_t1669577662_SByte_t1669577662PFvvEPK10MethodInfoPvPS4_
_k:_emscripten_glBindRenderbuffer
sOi:_List_1_System_Collections_IList_Insert_m1011775503_gshared
thk:_GC_dirty_init
Q4j:__ZN6il2cpp2vm5Image33GetCachedMemoryMappedResourceFileEP24Il2CppReflectionAssembly
d5j:__ZN6il2cpp2vm5Field14GetValueObjectEP9FieldInfoP12Il2CppObject
Ldd:__ZNK2UI6Canvas16GetTargetDisplayEv
bzi:__Z69RuntimeInvoker_Void_t1185182177_Int32_t2950945753_Vector2_t2156229523PFvvEPK10MethodInfoPvPS4_
gjd:__Z63Register_UnityEngine_Analytics_CustomEventData_Internal_Destroyv
_Oh:_TimeSpan_CompareTo_m3633415627_AdjustorThunk
bPc:__ZN9JSONWrite8TransferI4PPtrI9Texture2DEEEvRT_PKc17TransferMetaFlags
P$i:_Collection_1_Remove_m3611142372_gshared
TEb:__ZN13MonoBehaviour17RemoveFromManagerEv
fNf:_Vector3_get_Item_m668685504_AdjustorThunk
eza:__ZN12ImageFilters14AddImageFilterERK11ImageFilter
qTd:_Context_NotifyDynamicSinks_m1841702879
Phj:_GUIUtility_get_pixelsPerPoint_m2369948084
zgg:_WindowsIdentity_System_Runtime_Serialization_IDeserializationCallback_OnDeserialization_m3428853631
e1:__ZN13MemoryManagerC2Ev
K0a:__ZN12SkinMeshInfo10DeallocateEPS_
GEj:__ZNK15dense_hashtableINSt3__24pairIK10KeyWrapperIPKcEP11Il2CppClassEES5_N6il2cpp5utils11StringUtils12StringHasherIS4_EEN14dense_hash_mapIS5_S8_SE_NS5_14EqualsComparerINSB_13VmStringUtils21CaseSensitiveComparerEEENS0_9allocatorIS9_EEE9SelectKeyESJ_SL_E8min_sizeEjj
mYf:_ScrollRect_SetDirty_m214267968
mEi:__Z74RuntimeInvoker_Int32_t2950945753_UIVertex_t4057497605_UIVertex_t4057497605PFvvEPK10MethodInfoPvPS4_
Kfb:__ZN20ArchiveStorageReader28AcquireAndPrefillUnusedBlockEjPNS_11CacheResultE
uEg:_Boolean_System_IConvertible_ToDateTime_m603510836
mwc:__Z12NHxRoughnessIA4_tEvP9Texture2DPT_iiii
g4h:__ZN28GenericInterfaceFuncInvoker2IibbE6InvokeEPK10MethodInfoP12Il2CppObjectbb
jqh:_ASN1_get_Value_m1857007406
Urj:__ZL25UnresolvedVirtualCall_105P12Il2CppObjecthPK10MethodInfo
fX:__Z6simd4iiiii
Dab:__ZN9Transform5ResetEv
I3g:_Decimal_op_Explicit_m1842265407
_vb:__Z22TransferField_NonArrayI24GenerateTypeTreeTransfer16Converter_StringEvRK23StaticTransferFieldInfoR31RuntimeSerializationCommandInfoRT0_
Yka:__ZL47__ManagedRegistrationHelperFunction_FixedUpdatePv
Xxj:_CanvasRenderer_SetAlphaTexture_m2009567627
b2c:_UNITY_FT_CMap_New
LZe:_InternalEnumerator_1_get_Current_m4241643334_AdjustorThunk
OYe:_InternalEnumerator_1_MoveNext_m154749640_AdjustorThunk
oHb:__Z17MainLoopKeepalivePv
vFe:__ZL62Slider_t3903728902_CustomAttributesCacheGenerator_m_HandleRectP21CustomAttributesCache
vHc:__ZN18CrashReportHandler25UnregisterGlobalCallbacksEv
aGj:__ZN15dense_hashtableI10KeyWrapperIPK17Il2CppGenericInstES4_N6il2cpp8metadata21Il2CppGenericInstHashEN14dense_hash_setIS4_S7_NS4_14EqualsComparerINS6_24Il2CppGenericInstCompareEEENSt3__29allocatorIS4_EEE8IdentityESB_SE_E12expand_arrayEjN21dense_hash_map_traits17integral_constantIbLb0EEE
R3e:_InternalEnumerator_1_get_Current_m1588647567_AdjustorThunk
Ank:_printf_core
w4d:__ZL51GCHandle_t3351438187_CustomAttributesCacheGeneratorP21CustomAttributesCache
UOf:_InputField_get_caretBlinkRate_m3620074524
Bmj:_FieldWithTarget_get_fieldPath_m341366840
OZe:_InternalEnumerator_1_System_Collections_IEnumerator_Reset_m1716381123_AdjustorThunk
ucg:_RSAPKCS1SignatureFormatter_CreateSignature_m3191980616
KLa:__ZN10builtintex16GetDefaultTexEnvE16TextureDimensionb
uSb:__ZL25CheckCopyTextureArgumentsRK7ApiGLESP11GLESTextureS3_
T3e:_InternalEnumerator_1__ctor_m362401472_AdjustorThunk
HOi:_List_1_AsReadOnly_m2400800347_gshared
_Ak:_glDeleteShader__wrapper
dfa:__ZNK15PlayableMethods18InvokeOnGraphStartER18ScriptingObjectPtrRK9HPlayable
wvb:__Z29Transfer_Blittable_ArrayFieldI24GenerateTypeTreeTransferyEvRT_R9ArrayInfoRK23StaticTransferFieldInfo
zUh:_ValueType_Equals_m1524437845
sie:__ZL71RuntimePlatform_t4159857903_CustomAttributesCacheGenerator_OSXWebPlayerP21CustomAttributesCache
yN:__ZN4FMOD7SystemI9playSoundE17FMOD_CHANNELINDEXPNS_5SoundEbPPNS_7ChannelE
Dxi:__Z123RuntimeInvoker_RuntimeObject_Ray_t3785851493_RuntimeObject_Single_t1397266774_Int32_t2950945753_RuntimeObject_RuntimeObjectPFvvEPK10MethodInfoPvPS4_
rUg:_Int64_GetHashCode_m703091690
dma:__ZL60__ManagedRegistrationHelperFunction_ReflectionProbeBlendInfoPv
Z9i:_X509CrlEntry_get_RevocationDate_m606796547
shj:_Event_get_commandName_m4275147343
xz:__ZN27AnimationLayerMixerPlayable17LayerMixerProcessEP35AnimationPlayableEvaluationConstantP32AnimationPlayableEvaluationInputP33AnimationPlayableEvaluationOutputM17AnimationPlayableFvS1_S3_S5_EMS_FvS1_S3_S5_ESA_MS_FvS5_S1_S3_S5_ifE
R2g:_Decimal_op_Implicit_m4256234411
$L:__ZN12AudioManager23VirtualRedirectTransferER18StreamedBinaryReadILb0EE
Qgi:__Z60RuntimeInvoker_RuntimeObject_RuntimeObject_Int16_t2552820387PFvvEPK10MethodInfoPvPS4_
i7h:__ZN28GenericInterfaceFuncInvoker1Ib40CustomAttributeTypedArgument_t2723150157E6InvokeEPK10MethodInfoP12Il2CppObjectS0_
TZg:_StreamReader__ctor_m3941437302
xqc:__Z57Register_UnityEngine_Transform_INTERNAL_get_localRotationv
Mpg:_IPv6Address_get_Address_m1389170741
V3a:__ZN30RuntimeInitializeOnLoadManager23VirtualRedirectTransferER17RemapPPtrTransfer
Jtk:dynCall_viif
OQe:_AssemblyName_get_Flags_m1616840602
Bu:__ZN7mecanim4hand8HandPoseC2Ev
Rrc:__Z13RegisterClassIN5Unity9ComponentEEvPKc
hJe:_StringReader_ReadLine_m2337102945
ctb:__ZL26Transfer_SimpleNativeClassI17RemapPPtrTransfer8GradientLb0EEvRK29SerializationCommandArgumentsR31RuntimeSerializationCommandInfo
Fje:__ZL49Shader_t4151988712_CustomAttributesCacheGeneratorP21CustomAttributesCache
bxf:__ZN23InterfaceActionInvoker3IiP8String_tP24ObjectU5BU5D_t2843939325E6InvokeEjP11Il2CppClassP12Il2CppObjectiS1_S3_
iB:__ZN17AnimationPlayable26DisconnectNoTopologyChangeEPS_i
TEg:_Boolean_Equals_m2410333903_AdjustorThunk
QUi:_List_1_System_Collections_IList_Contains_m2131605266_gshared
b7d:__ZL61ISurrogateSelector_t3040401154_CustomAttributesCacheGeneratorP21CustomAttributesCache
uWi:_List_1_ToArray_m1990123684_gshared
n_:__ZN13UploadHandlerD2Ev
_J:__GLOBAL__sub_I_Modules_AssetBundle_Public_1_cpp
isk:dynCall_viiiiiffi
pvj:_Hacker__ctor_m518604791
wc:_emscripten_glBlendFuncSeparate
I1i:_Collection_1_Add_m809543251_gshared
H5:__Z20scripting_string_newPKc
qfj:_Parser_IsSingleline_m326238187
uKg:_CollectionBase_get_Count_m1708965601
Qrf:_HMAC__ctor_m97939284
o$h:_ReadOnlyCollection_1_System_Collections_IList_get_Item_m1005238747_gshared
Tce:__ZL49DBNull_t3725197148_CustomAttributesCacheGeneratorP21CustomAttributesCache
yUh:_ValueType_DefaultEquals_m2927252100
$Mc:__ZN9JSONWrite12AppendToNodeEPN5Unity9rapidjson12GenericValueINS1_4UTF8IcEE13JSONAllocatorEEPKcRS6_
qqh:_ASN1_ToString_m1340204511
Ssg:_X509ChainElementEnumerator_get_Current_m1301774989
utg:_X509Store_get_Certificates_m2149701265
klb:__ZN20GfxAsyncReadbackDataD2Ev
mwh:_DefaultComparer_GetHashCode_m2865442331_gshared
yQh:_Type_GetField_m2961003358
BBe:__ZL144StandaloneInputModule_t2760469101_CustomAttributesCacheGenerator_StandaloneInputModule_t2760469101____allowActivationOnMobileDevice_PropertyInfoP21CustomAttributesCache
Eqa:__ZN9Scripting11UnityEngine13ComputeBuffer12CleanupProxyEv
WJh:_StringBuilder_set_Chars_m3548656617
iOj:__ZN6il2cpp2os4File17GetFileAttributesERKNSt3__212basic_stringIcNS2_11char_traitsIcEENS2_9allocatorIcEEEEPi
JAi:__Z59RuntimeInvoker_Int32_t2950945753_X509ChainStatus_t133602714PFvvEPK10MethodInfoPvPS4_
WE:__ZNSt3__26__sortIRPFbPKN8Animator11AnimatorJobES4_EPS4_EEvT0_S9_T_
wT:__ZN17AudioCustomFilterD2Ev
TLc:__ZN11IMGUIModule26SetDeveloperConsoleVisibleEb
oBi:__Z56RuntimeInvoker_Void_t1185182177_MonoResource_t4103430009PFvvEPK10MethodInfoPvPS4_
Y9a:__ZN9Transform16ResetReplacementEv
mfk:_GC_unpromote_black_lists
VJ:__ZN9Scripting11UnityEngine2XR5Tango9GridIndex9InitProxyEv
qRb:__ZN18GfxFramebufferGLES18ReleaseFramebufferEP17RenderSurfaceBaseP14GfxContextGLES
eQc:__Z18Transfer_BlittableI8JSONReadLb1EiEvRK29SerializationCommandArgumentsR31RuntimeSerializationCommandInfo
DJe:_TextReader_Dispose_m4253712522
R_:__ZN19CloudServiceHandler34HandleSaveFileWebRequestPlayerLoopEv
yee:__ZL82BigInteger_t2902905090_CustomAttributesCacheGenerator_BigInteger__ctor_m2474659844P21CustomAttributesCache
WA:__ZN7mecanim21ValueArrayReverseCopyEPKNS_18ValueArrayConstantEPKNS_10ValueArrayES2_PS3_PKi
Urd:__ZL47__ManagedRegistrationHelperFunction_XRNodeStatePv
PS:__Z31GetParentSampleClipFromInstancePN11SoundHandle8InstanceE
t5i:_InternalAsyncResult_get_BytesRead_m3975435112
usc:__ZNK28RectTransformPropertyBinding13GetFloatValueERKN11UnityEngine9Animation10BoundCurveE
B8b:__ZN6Camera22StandaloneCustomRenderENS_10RenderFlagEP6ShaderRKN4core12basic_stringIcNS3_20StringStorageDefaultIcEEEEPNS_21PerformRenderFunctionE
xih:_Array_InternalArray__IndexOf_TisKeyValuePair_2_t2401056908_m4118889689_gshared
f5a:__ZNSt3__26vectorI4PPtrI6ObjectE13stl_allocatorIS3_L18MemLabelIdentifier52ELi16EEE6assignINS_11__wrap_iterIPS3_EEEENS_9enable_ifIXaasr21__is_forward_iteratorIT_EE5valuesr16is_constructibleIS3_NS_15iterator_traitsISD_E9referenceEEE5valueEvE4typeESD_SD_
xXh:_Collection_1_System_Collections_ICollection_get_IsSynchronized_m500240145_gshared
kmk:__ZN6il2cpp2os16ThreadLocalValue8GetValueEPPv
xsg:_X509Certificate2_get_PublicKey_m370665820
IIj:__ZN6il2cpp2vm13MetadataCache14GetGenericInstEPKPK10Il2CppTypej
fU:__ZN13AudioListener17ReadExtensionNameEi
Zc:_glUniform1uiv
Dmd:__ZN11UnityEngine7Connect20RemoteConfigSettings35CallConfigUpdatedOnMainThreadStaticEPS1_
r$i:_Collection_1_System_Collections_Generic_ICollectionU3CTU3E_get_IsReadOnly_m1419845799_gshared
Clj:_U3CTimedTriggerU3Ec__Iterator0_System_Collections_Generic_IEnumeratorU3CobjectU3E_get_Current_m3822291412
mV:__ZN9AudioClip15InitializeClassEv
ap:setThrew
zbg:_SslClientStream_OnLocalPrivateKeySelection_m1934775249
ewc:__ZL21BuildEmptyCubeTexturePKci11ColorRGBA3217TextureColorSpace
gre:__ZL106AsyncOperation_t1445031843_CustomAttributesCacheGenerator_AsyncOperation_InvokeCompletionEvent_m1410305036P21CustomAttributesCache
UFg:_Byte_ToString_m721125428
Gec:__ZN14SafeBinaryRead21TransferSTLStyleArrayINSt3__26vectorIN9ShaderLab20SerializedSubProgramENS1_9allocatorIS4_EEEEEEvRT_17TransferMetaFlags
Wih:_Array_InternalArray__IndexOf_TisX509ChainStatus_t133602714_m48896230_gshared
fdb:__ZN19dynamic_block_arrayI13FileEntryInfoLj32EE4growEj
nQc:__Z15Transfer_StringI8JSONReadLb1EEvRK29SerializationCommandArgumentsR31RuntimeSerializationCommandInfo
s6a:__ZN16LightmapSettings15AppendLightmapsEiRK13dynamic_arrayI12LightmapDataLj0EE
zha:__ZN6prcoreL17RemapGenericFloatI17TexFormatRGBFloat15TexFormatRGHalfEEvPKNS_9InnerInfoE
H5d:__ZL63IContributeEnvoySink_t2817847987_CustomAttributesCacheGeneratorP21CustomAttributesCache
r4c:_sfnt_load_face
zZc:_UNITY_FT_Render_Glyph_Internal
h1j:__ZNSt3__212basic_stringIDsNS_11char_traitsIDsEENS_9allocatorIDsEEE21__grow_by_and_replaceEjjjjjjPKDs
r2c:_UNITY_ft_service_list_lookup
Yrj:__ZL25UnresolvedVirtualCall_109P12Il2CppObjectiaPK10MethodInfo
Xsb:__Z18Transfer_BlittableI17RemapPPtrTransferLb1E11ColorRGBA32EvRK29SerializationCommandArgumentsR31RuntimeSerializationCommandInfo
TJc:__ZN5IMGUI21SelectReceivingWindowER8GUIStateb
esf:_HMAC_Initialize_m3157696427
XGa:__ZN4PPtrI5LightE8TransferI14SafeBinaryReadEEvRT_
Cok:___strchrnul
VSi:_List_1_System_Collections_ICollection_CopyTo_m3643417403_gshared
n2:__ZN13BaseAllocator13TryDeallocateEPv
fyb:__Z29Transfer_Blittable_ArrayFieldI19StreamedBinaryWriteILb0EEfEvRT_R9ArrayInfoRK23StaticTransferFieldInfo
jdi:_ListPool_1_Release_m1363449253_gshared
qrg:_X509SubjectKeyIdentifierExtension__ctor_m2055934916
YLc:__ZN9Scripting19UnityEngineInternal5Input17NativeInputSystem9InitProxyEv
iFh:_Enumerator_Dispose_m2531396701_AdjustorThunk
_fb:__ZN16MemoryFileSystem5WriteER13FileEntryDatayPvPy
onj:_Toggle_OnSubmit_m1320104356
wnk:_sprintf
Ujc:__ZN9Scripting25CreateNullExceptionObjectE18ScriptingObjectPtr
ssh:_PrivateKeyInfo_DecodeRSA_m2889346634
jT:__ZN13AudioListener17RemoveFromManagerEv
sd:_glAttachShader
BBd:_ContentSizeFitter_SetLayoutHorizontal_m2833273874
qYh:_ReadOnlyCollection_1_System_Collections_IList_RemoveAt_m134366701_gshared
T4f:__ZN28GenericInterfaceFuncInvoker1IbP22Int32U5BU5D_t385246372E6InvokeEPK10MethodInfoP12Il2CppObjectS1_
Txa:__ZNK6Camera19GetProjectionMatrixEv
NDe:__ZL70InputField_t3762917431_CustomAttributesCacheGenerator_m_SelectionColorP21CustomAttributesCache
uPf:_InputField_SetToCustomIfContentTypeIsNot_m2813459946
Gdi:__Z49RuntimeInvoker_DateTime_t3738529785_RuntimeObjectPFvvEPK10MethodInfoPvPS4_
yie:__ZL70RuntimePlatform_t4159857903_CustomAttributesCacheGenerator_FlashPlayerP21CustomAttributesCache
nRg:_Guid_GetHashCode_m3042133858_AdjustorThunk
ysa:__Z38PreallocateObjectFromPersistentManagerib
Zgj:_Event_t2956885303_marshal_pinvoke_cleanup
Ugg:_SecurityException_get_FirstPermissionThatFailed_m3934559164
pwg:_Interpreter_Backtrack_m2828876822
bRa:__ZNK9Texture2D20GetUnscaledTextureIDEv
EUi:_List_1_get_Capacity_m3666274724_gshared
rpf:_SByte_System_IConvertible_ToType_m4075253447
tth:_StrongName_get_PublicKey_m1841537984
qzk:_glFenceSync__wrapper
KBj:__ZNK15dense_hashtableINSt3__24pairIK10KeyWrapperIPK22Il2CppGenericParameterEP11Il2CppClassEES6_N6il2cpp5utils11PointerHashIS4_EEN14dense_hash_mapIS6_S9_SE_NS6_14EqualsComparerINS0_8equal_toIS5_EEEENS0_9allocatorISA_EEE9SelectKeyESJ_SL_E8min_sizeEjj
XLf:_Transform_INTERNAL_get_worldToLocalMatrix_m2730237241
Yhg:_Single_System_IConvertible_ToUInt64_m3299129161
wre:__ZL53GameObject_t1113636619_CustomAttributesCacheGeneratorP21CustomAttributesCache
CBi:__Z51RuntimeInvoker_Void_t1185182177_HitInfo_t3229609740PFvvEPK10MethodInfoPvPS4_
gRa:__ZNK9Texture2D26CanReuploadDataToGfxDeviceEv
Z8d:__ZL63CodeAccessPermission_t2681295399_CustomAttributesCacheGeneratorP21CustomAttributesCache
R6a:__Z29ClearRepeatingLogMessageStatev
c2e:_InternalEnumerator_1_get_Current_m3191242573_gshared
LFg:_Byte_Equals_m1161982810_AdjustorThunk
VAi:__Z53RuntimeInvoker_Int32_t2950945753_UICharInfo_t75501106PFvvEPK10MethodInfoPvPS4_
uxc:__ZN15QualitySettings12CleanupClassEv
Yca:__ZN21EnlightenSceneMappingaSERKS_
Bva:__ZN14SafeBinaryRead21TransferSTLStyleArrayI13dynamic_arrayI17SortingLayerEntryLj0EEEEvRT_17TransferMetaFlags
dWc:__ZL48__ManagedRegistrationHelperFunction_MeshColliderPv
YVi:_List_1_GrowIfNeeded_m278824317_gshared
iUb:__ZN7ApiGLESD2Ev
_wa:__ZN9Transform47ClearTransformHierarchyAndApplyToSerializedDataEv
DKj:_CertificateHandler_t2739891000_marshal_pinvoke
CRc:__ZN8JSONRead21TransferSTLStyleArrayINSt3__26vectorI8MonoPPtr13stl_allocatorIS3_L18MemLabelIdentifier1ELi16EEEEEEvRT_17TransferMetaFlags
YQf:_InputField_IsSelectionVisible_m3622592134
CDg:_AssemblyLoadEventHandler_Invoke_m1462077361
wya:__ZN6Camera23VirtualRedirectTransferER19StreamedBinaryWriteILb0EE
Ztk:dynCall_fidi
lPj:__ZN15dense_hashtableINSt3__24pairIK10KeyWrapperINS1_IPK9FieldInfoP11Il2CppClassEEEjEES9_17ReflectionMapHashIS8_EN14dense_hash_mapIS9_jSD_NS9_14EqualsComparerINS0_8equal_toIS8_EEEENS0_9allocatorISB_EEE9SelectKeyESI_SK_E12resize_deltaEjj
m9j:__ZNK15dense_hashtableINSt3__24pairIK10KeyWrapperIPcES3_EES4_N6il2cpp5utils15PassThroughHashIS3_EEN14dense_hash_mapIS4_S3_SA_NS4_14EqualsComparerINS0_8equal_toIS3_EEEENS0_9allocatorIS6_EEE9SelectKeyESF_SH_E10test_emptyERK30dense_hashtable_const_iteratorIS6_S4_SA_SJ_SF_SH_E
$Oi:_List_1_TrimExcess_m3433550210_gshared
DFj:__ZNK15dense_hashtableINSt3__24pairIK10KeyWrapperIPK19Il2CppGenericMethodEPK26Il2CppGenericMethodIndicesEES6_N6il2cpp8metadata23Il2CppGenericMethodHashEN14dense_hash_mapIS6_SA_SE_NS6_14EqualsComparerINSD_26Il2CppGenericMethodCompareEEENS0_9allocatorISB_EEE9SelectKeyESI_SK_E8min_sizeEjj
E5d:__ZL58IContextProperty_t840037424_CustomAttributesCacheGeneratorP21CustomAttributesCache
_hj:_GUILayoutEntry__ctor_m2229197035
i$:__ZN11UnityEngine15CloudWebService14RestDownloaderD2Ev
zTe:_EnumBuilder_get_Assembly_m1175292766
Bbc:__Z29StdTemplateConversionFunctionIjhEbPvR14SafeBinaryRead
uBa:__ZN15dense_hashtableINSt3__24pairIKN9ShaderLab7Program23ShaderKeywordSetAndHashEPKNS2_10SubProgramEEES4_NS3_24ShaderKeywordHashFunctorEN14dense_hash_mapIS4_S8_SA_NS0_8equal_toIS4_EE13stl_allocatorIS9_L18MemLabelIdentifier67ELi16EEE9SelectKeyESD_SG_E15insert_noresizeERKS9_
TJi:_Array_swap_TisCustomAttributeNamedArgument_t287865710_TisCustomAttributeNamedArgument_t287865710_m881919420_gshared
Jpc:__ZNK13MonoBehaviour13GetScriptTypeEv
pJa:__ZN13RenderTexture12SetDimensionE16TextureDimension
lbg:_SslClientStream_set_ClientCertSelectionDelegate_m1261530976
Voa:__ZN9Scripting11UnityEngine16GradientColorKey9InitProxyEv
ie:_SDL_FreeRW
eAe:__ZL109ExecuteEvents_t3484638744_CustomAttributesCacheGenerator_ExecuteEvents_U3Cs_HandlerListPoolU3Em__0_m391641698P21CustomAttributesCache
_Bi:__Z79RuntimeInvoker_Void_t1185182177_Int32_t2950945753_ParameterModifier_t1461694466PFvvEPK10MethodInfoPvPS4_
efd:__Z34CanvasRenderer_Get_Custom_PropCullP12Il2CppObject
PR:__ZN20SoundChannelInstance8getDelayE14FMOD_DELAYTYPEPjS1_
Sjk:__ZNSt3__26__treeINS_12__value_typeIPvxEENS_19__map_value_compareIS2_S3_NS_4lessIS2_EELb1EEENS_9allocatorIS3_EEE12__find_equalIS2_EERPNS_16__tree_node_baseIS2_EESF_RKT_
LBa:__ZNSt3__26vectorIN20GpuProgramParameters15StructParameterENS_9allocatorIS2_EEEC2ERKS5_
QXe:_ArrayReadOnlyList_1_Contains_m232667507_gshared
Emi:__Z77RuntimeInvoker_Boolean_t97287965_IntPtr_t_Int32_t2950945753_SByte_t1669577662PFvvEPK10MethodInfoPvPS4_
AFf:_PlayableHandle_GetPlayableType_m432385838_AdjustorThunk
nYc:__ZNSt3__26vectorIN20TextRenderingPrivate8FontImpl13CharacterInfoE13stl_allocatorIS3_L18MemLabelIdentifier1ELi16EEE8__appendEj
v:tempBigInt
vGi:_Array_InternalArray__Insert_TisKeyframe_t4206410242_m1558638568_gshared
ibe:__ZL77Convert_t2465617642_CustomAttributesCacheGenerator_Convert_ToByte_m3567528984P21CustomAttributesCache
qe:_emscripten_glVertexAttrib1fv
mfc:__ZNSt3__26vectorIN9ShaderLab20SerializedSubProgram12UAVParameterENS_9allocatorIS3_EEE7reserveEj
drk:__ZSt11__terminatePFvvE
oO:__ZN12AudioManager14systemCallbackEP11FMOD_SYSTEM24FMOD_SYSTEM_CALLBACKTYPEPvS3_
J6h:_Nullable_1_Equals_m4046255732_gshared
q1h:_ReadOnlyCollection_1_System_Collections_Generic_ICollectionU3CTU3E_Clear_m3451551308_gshared
mzd:_BaseMeshEffect_OnEnable_m3291426649
Nvf:_ClassLibraryInitializer_Init_m988673678
JDg:_AssemblyLoadEventHandler_BeginInvoke_m1281107466
uHa:__ZN16ReflectionProbes16UpdateSampleDataEv
ckf:_TrackingServices_NotifyUnmarshaledObject_m2784831802
VIg:_ReadOnlyArrayListWrapper_Sort_m2577012511
Nka:__ZL46__ManagedRegistrationHelperFunction_UnityEventPv
AOg:_CultureInfo_GetCultureInfo_m56098747
yOa:__ZN14Texture2DArray5ResetEv
o5b:__Z20AddActiveLocalLightsR11CullResultsR27LocalLightCullingParametersPPK15SharedLightDataPK8Vector4fRK9IndexListPfRSA_R12ActiveLightsSG_P5RectTIfEP13TargetEyeMask
Cs:__ZL53__ManagedRegistrationHelperFunction_AnimatorStateInfoPv
C2g:_Convert_ToDecimal_m1284148187
cVh:_Collection_1__ctor_m3489157029_gshared
Lje:__ZL117TouchScreenKeyboard_t731888065_CustomAttributesCacheGenerator_TouchScreenKeyboard_Open_m3609399077____autocorrection2P21CustomAttributesCache
fka:__ZL52__ManagedRegistrationHelperFunction_AndroidJNIHelperPv
T$c:_cf2_getNormalizedVector
oua:__ZN5RectTIfE8TransferI18StreamedBinaryReadILb0EEEEvRT_
Ne:_JS_Sound_Play
Ncf:_KeyCollection_GetEnumerator_m1862005650_gshared
c5d:__ZL56_MethodBuilder_t600455149_CustomAttributesCacheGeneratorP21CustomAttributesCache
p2h:_ReadOnlyCollection_1_System_Collections_IList_set_Item_m1538987737_gshared
dec:__ZN9ShaderLab16SerializedShader8TransferI14SafeBinaryReadEEvRT_
M5a:__ZN5Mutex7TryLockEv
DGd:_GridLayoutGroup_set_constraint_m3308895167
Fve:__ZL103AudioSource_t3935305588_CustomAttributesCacheGenerator_AudioSource_ReadExtensionPropertyValue_m72717540P21CustomAttributesCache
vVd:_ConstructionCallDictionary_SetMethodProperty_m3145285304
Drb:__ZN15SerializeTraitsI13dynamic_arrayIsLj0EEE19ResizeSTLStyleArrayERS1_i
l1a:__ZN11TimeManagerD2Ev
JYe:_InternalEnumerator_1_System_Collections_IEnumerator_get_Current_m1503522504_gshared
nE:__ZN7mecanim8skeleton13SkeletonAlignEPKNS0_8SkeletonERKN4math7_float4ES7_i
gxc:__ZN19ShaderPropertySheet16SetVectorIndexedEN9ShaderLab16FastPropertyNameEifRK8Vector4fNS_8SetFlagsE
SPh:_Type_get_IsAbstract_m1120089130
lNf:_Vector3_get_normalized_m2454957984_AdjustorThunk
Kq:__ZN14SafeBinaryRead21TransferSTLStyleArrayIN4core12basic_stringIcNS1_20StringStorageDefaultIcEEEEEEvRT_17TransferMetaFlags
Pgj:_UriFormatException__ctor_m1115096473
c0e:_InternalEnumerator_1_Dispose_m2818366163_AdjustorThunk
tgh:_Array_InternalArray__IEnumerable_GetEnumerator_TisSlot_t384495010_m460993382_gshared
HZj:__ZN15dense_hashtableINSt3__24pairIK10KeyWrapperINS1_IP11Il2CppClassjEEES4_EES6_N6il2cpp8metadata14ArrayClassHashEN14dense_hash_mapIS6_S4_SB_NS6_14EqualsComparerINSA_17ArrayClassCompareEEENS0_9allocatorIS8_EEE9SelectKeyESF_SH_E9copy_fromERKSK_j
dcc:__Z29StdTemplateConversionFunctionIayEbPvR14SafeBinaryRead
qMh:_WaitHandle__ctor_m1707080176
GFi:__Z55RuntimeInvoker_Boolean_t97287965_Nullable_1_t2603721331PFvvEPK10MethodInfoPvPS4_
Ijj:_GUIUtility_IsExitGUIException_m3644066650
J$:__ZN11UnityEngine15CloudWebService14DataDispatcher4StopEv
fSg:_Int16_System_IConvertible_ToUInt64_m134975563
ofc:__ZNSt3__26vectorIN9ShaderLab20SerializedSubProgram12UAVParameterENS_9allocatorIS3_EEE8__appendEj
QYe:_InternalEnumerator_1__ctor_m4191108945_gshared
SSj:__ZNK15dense_hashtableINSt3__24pairIK10KeyWrapperINS1_IPK9EventInfoP11Il2CppClassEEEjEES9_17ReflectionMapHashIS8_EN14dense_hash_mapIS9_jSD_NS9_14EqualsComparerINS0_8equal_toIS8_EEEENS0_9allocatorISB_EEE9SelectKeyESI_SK_E12test_deletedERK24dense_hashtable_iteratorISB_S9_SD_SM_SI_SK_E
UJc:__ZN5IMGUI9GUIWindow5OnGUIER8GUIState
npj:_AudioConfigurationChangeHandler_EndInvoke_m4175380841
Fhg:_Single_System_IConvertible_ToDecimal_m325860800_AdjustorThunk
rlh:_Array_InternalArray__ICollection_CopyTo_TisSingle_t1397266774_m455540885_gshared
Nja:__ZN17ScriptingGCHandle7AcquireE18ScriptingObjectPtr25ScriptingGCHandleWeakness
btj:__ZL25UnresolvedVirtualCall_168P12Il2CppObject39CustomAttributeNamedArgument_t287865710S1_PK10MethodInfo
Toi:__Z74RuntimeInvoker_RuntimeObject_RuntimeObject_Int64_t3736567304_RuntimeObjectPFvvEPK10MethodInfoPvPS4_
Mgf:_Enumerator__ctor_m1734342590_gshared
Usk:dynCall_iifiii
Uzb:__ZN18StreamedBinaryReadILb1EE8TransferI13dynamic_arrayIjLj0EEEEvRT_PKc17TransferMetaFlags
$qi:__Z85RuntimeInvoker_Int32_t2950945753_RuntimeObject_Int32U26_t1369213839_Int32_t2950945753PFvvEPK10MethodInfoPvPS4_
WOa:__Z21HasAlphaTextureFormat13TextureFormat
lW:__ZN12AudioManager6UpdateEv
QOa:__ZN14ImageReference9BlitImageERKS_NS_8BlitModeE
cv:__ZN8Animator12AddToManagerEv
jLe:_MissingFieldException__ctor_m3742452630
lug:_X509Chain__ctor_m2674663382
w0:__GLOBAL__sub_I_Runtime_Core_Callbacks_0_cpp
r1h:_ReadOnlyCollection_1_System_Collections_Generic_IListU3CTU3E_Insert_m1121807192_gshared
NFb:__ZN23CachedSerializationDataD2Ev
A7b:__ZNK25CameraStackRenderingState31CalculateStereoCameraTargetTypeEv
UGa:__ZN14RenderSettings23VirtualRedirectTransferER14SafeBinaryRead
k5e:_InternalEnumerator_1_get_Current_m114240259_gshared
$ak:__ZN6il2cpp2os10ThreadImpl15CurrentThreadIdEv
Jzh:_EqualityComparer_1__ctor_m1138336971_gshared
UFa:__ZN17GlobalGameManager8TransferI17RemapPPtrTransferEEvRT_
AIe:__ZL73FieldWithTarget_t3058750293_CustomAttributesCacheGenerator_m_StaticStringP21CustomAttributesCache
Vdg:_SymmetricAlgorithm_get_Key_m3241860519
PRf:_U3CMouseDragOutsideRectU3Ec__Iterator1_Reset_m2233410497
q0:__GLOBAL__sub_I_Runtime_Camera_5_cpp
w7f:_ClientSessionInfo_get_HostName_m2118440995
QEa:__ZN16LevelGameManager8TransferI18StreamedBinaryReadILb0EEEEvRT_
e8c:_UNITY_tt_face_load_fpgm
Twa:__Z17IsObjectAvailablei
C1a:__ZN12InputManagerD0Ev
fKa:__Z32TransferEnumWithNameForceIntSizeI14SafeBinaryRead17TextureFilterModeEvRT_RT0_PKc17TransferMetaFlags
O7d:__ZL64DSASignatureFormatter_t2007981259_CustomAttributesCacheGeneratorP21CustomAttributesCache
AMh:_ExecutionContext_Capture_m681135907
pvh:_Dictionary_2_System_Collections_IDictionary_Add_m4011968134_gshared
LBb:__Z18Transfer_BlittableI18StreamedBinaryReadILb0EELb1EtEvRK29SerializationCommandArgumentsR31RuntimeSerializationCommandInfo
RZe:_InternalEnumerator_1_System_Collections_IEnumerator_get_Current_m2889979481_AdjustorThunk
Zpk:_posix_memalign
cHf:_Rect_get_position_m2115952571
x$h:_ReadOnlyCollection_1_get_Item_m4005849861_gshared
m_f:_Slider_get_direction_m3871593184
nqh:_ASN1_GetBytes_m3305539297
oWi:_List_1_Remove_m2092116835_gshared
_pe:__ZL86Logger_t274032455_CustomAttributesCacheGenerator_Logger_LogFormat_m3030796110____args2P21CustomAttributesCache
Nbe:__ZL77Convert_t2465617642_CustomAttributesCacheGenerator_Convert_ToSByte_m717245755P21CustomAttributesCache
C7e:_DefaultComparer__ctor_m2039558311_gshared
K7:__ZNK15MonoScriptCache7ReleaseEv
GCj:__ZN6il2cpp2vm5Class13HasReferencesEP11Il2CppClass
nHg:_CLSCompliantAttribute__ctor_m581760440
ag:_glBindTexture
nok:_snprintf
lVg:_InvalidCastException__ctor_m2551002860
Tvi:__Z50RuntimeInvoker_RuntimeObject_Resources_t1597885468PFvvEPK10MethodInfoPvPS4_
iyk:_emscripten_glVertexAttrib1fv__wrapper
ryf:_InvokableCallList_RemoveListener_m1769379719
Hwc:__ZN16LevelGameManagerC2E10MemLabelId18ObjectCreationMode
Xoj:_AudioExtensionManager_RemoveExtensionFromManager_m442924172
_Cf:_MonoBehaviour_Internal_IsInvokingAll_m2820042090
Hwk:_emscripten_glGetProgramInfoLog__wrapper
Vt:__ZN25AnimatedPropertyEvaluator29BindCurveToScriptingObjectPtrERKN13AnimationClip10FloatCurveEj18ScriptingObjectPtrb
dZa:__ZN13ScreenManager20SetScreenOrientationE17ScreenOrientation
jZi:_Collection_1_SetItem_m1090516645_gshared
CBe:__ZL52InputMode_t3382566315_CustomAttributesCacheGeneratorP21CustomAttributesCache
Ffg:_String_Equals_m1744302937
vxf:_Display__ctor_m501911701
MZh:_ReadOnlyCollection_1_System_Collections_Generic_IListU3CTU3E_Insert_m1020890112_gshared
fLg:_Hashtable__cctor_m4112166779
lDd:_Dropdown_get_onValueChanged_m2462066659
zCd:_DefaultControls_SetDefaultTextValues_m1943359795
W$b:__Z19SetupMotionMatricesR6CameraR18RPDataMotionVector
Nzj:__ZL7log2_64y
OF:__ZN26AnimatorControllerPlayable18PrepareForPlaybackERN7mecanim6memory9AllocatorE
aG:__ZN8Animator11AnimatorJob11AddPlayableEP17AnimationPlayablef
yGd:_GridLayoutGroup_get_cellSize_m2967185053
b6g:_CurrentSystemTimeZone_GetUtcOffset_m340358963
N7i:_PKCS12_Decrypt_m1280162536
_Ze:_InternalEnumerator_1_get_Current_m3081223448_gshared
lhj:_Event_get_isMouse_m1058251071
eEa:__ZN10VertexDataC2ERKS_17ShaderChannelMask10MemLabelId
cKg:_CaseInsensitiveHashCodeProvider_AreEqual_m1790260777
KZi:_Collection_1_IndexOf_m3762683187_gshared
U2c:_otv_JSTF_validate
OBa:__ZN22CreateGpuProgramOutputC2Ev
l1f:_BigInteger_op_LessThanOrEqual_m3925173639
Gyf:_PersistentCallGroup_Initialize_m4253175514
tEg:_Boolean_System_IConvertible_ToChar_m4279513009_AdjustorThunk
_Kg:_Hashtable__ctor_m1763145853
h_d:__ZL66RuntimeArray_CustomAttributesCacheGenerator_Array_Sort_m3145621264P21CustomAttributesCache
DRf:_InputField_get_layoutPriority_m2945430764
SNe:_NumberFormatter_ScaleOrder_m3813786990
Yvi:__Z43RuntimeInvoker_VerticalWrapMode_t2936607737PFvvEPK10MethodInfoPvPS4_
ZWe:__ZN25GenericVirtActionInvoker2IP12Il2CppObjectS1_E6InvokeEPK10MethodInfoS1_S1_S1_
tsh:_PrivateKeyInfo_DecodeDSA_m771724585
jxg:_Interval_get_Size_m4163671410_AdjustorThunk
Fze:__ZL53EventHandle_t600343995_CustomAttributesCacheGeneratorP21CustomAttributesCache
Utc:__ZN8GUILayer12CleanupClassEv
iJg:_SynchronizedArrayListWrapper_get_SyncRoot_m3862302789
oOi:_List_1_System_Collections_IEnumerable_GetEnumerator_m839737540_gshared
BSh:_UInt32_System_IConvertible_ToSByte_m1061556466
Llf:_WellKnownClientTypeEntry__ctor_m2471908952
FCj:__ZN6il2cpp2vm5Class4InitEP11Il2CppClass
ga:invoke_vidi
gPe:_NumberFormatter_FormatRoundtrip_m19342689
plf:_RemotingServices_CreateClientProxyForContextBound_m783705199
Zwi:__Z30RuntimeInvoker_Axis_t809944411PFvvEPK10MethodInfoPvPS4_
nBc:__ZNK15GUIEventManager15GetEventAtIndexEi
G4i:_InternalAsyncResult_get_ProceedAfterHandshake_m2508379800
bhd:__ZN2UI14CanvasRenderer17SyncDirtyElementsER8JobFence
HBb:__Z18Transfer_BlittableI18StreamedBinaryReadILb0EELb0ExEvRK29SerializationCommandArgumentsR31RuntimeSerializationCommandInfo
V4g:_Convert_ToUInt16_m2952781888
aaf:_Enumerator_System_Collections_IEnumerator_get_Current_m3816090481_gshared
Wck:__ZN6il2cpp5utils11StringUtils15StringDuplicateEPKc
_xh:_DefaultComparer_Equals_m2480133610_gshared
eBa:__ZNK9ShaderLab21ShaderRasterStateDesc16ToGfxRasterStateEPK19ShaderPropertySheetS3_R14GfxRasterState
IJi:_Array_Sort_TisVector3_t3722313464_m1915176437_gshared
umk:__ZN6il2cpp2os9EventImplC2Ebb
OYf:_ScrollRect_OnInitializePotentialDrag_m3139711961
LIh:_List_1_System_Collections_IList_get_IsFixedSize_m3566150119_gshared
cI:__ZN4PPtrI13MonoBehaviourE8TransferI19StreamedBinaryWriteILb0EEEEvRT_
TRi:_List_1_get_Item_m2113769949_gshared
FUf:_MaskableGraphic_OnTransformParentChanged_m329502413
qog:_NameValueCollection__ctor_m4090053322
HJf:_ScriptableObject_t2528358522_marshal_pinvoke
Z3:__Z20IsMatrixBuiltinParamPKcPi
pTj:__ZN6il2cpp2gc19AppendOnlyGCHashMapINSt3__24pairIPK10MethodInfoP11Il2CppClassEEP11Il2CppArray17ReflectionMapHashIS9_ENS2_8equal_toIS9_EEEC2Ev
nfg:_String_memcpy4_m979367827
ahg:_SecurityFrame_t1422462475_marshal_pinvoke
LQj:__ZN15dense_hashtableINSt3__24pairIK10KeyWrapperINS1_IPK10MethodInfoP11Il2CppClassEEEjEES9_17ReflectionMapHashIS8_EN14dense_hash_mapIS9_jSD_NS9_14EqualsComparerINS0_8equal_toIS8_EEEENS0_9allocatorISB_EEE9SelectKeyESI_SK_E16reset_thresholdsEv
yKh:_UnicodeEncoding_GetBytesInternal_m1902824297
Kwc:__ZN8Renderer19PostInitializeClassEv
Uhh:_Array_FindIndex_TisRuntimeObject_m2504082708_gshared
Zgd:__ZNSt3__26__treeINS_12__value_typeINS_4pairIKiS3_EEN2UI14DepthSortLayerEEENS_19__map_value_compareIS4_S7_NS_4lessIS4_EELb1EEE13stl_allocatorIS7_L18MemLabelIdentifier1ELi16EEE25__emplace_unique_key_argsIS4_JRKNS_21piecewise_construct_tENS_5tupleIJOS4_EEENSK_IJEEEEEENS2_INS_15__tree_iteratorIS7_PNS_11__tree_nodeIS7_PvEEiEEbEERKT_DpOT0_
E9i:_X509Chain_FindCertificateRoot_m1937726457
QZg:_StreamAsyncResult_get_AsyncWaitHandle_m3390046559
Okd:__ZN11UnityEngine15PlatformWrapper21GetVRPlayAreaGeometryER13dynamic_arrayI8Vector3fLj0EE
Iik:__ZN6il2cpp6icalls8mscorlib6System8Delegate23CreateDelegate_internalEP20Il2CppReflectionTypeP12Il2CppObjectP22Il2CppReflectionMethodb
bbf:_Enumerator_System_Collections_IEnumerator_get_Current_m921113401_AdjustorThunk
SKg:_DictionaryEntry_get_Value_m618120527_AdjustorThunk
eFb:__ZN18DelayedCallManager18CancelCallDelayed2E4PPtrI6ObjectEPF15CallObjectStatePS1_PvES7_
Wua:__ZN25ThreadsafeLinearAllocator10ReallocateEPvji
Dob:__Z18Transfer_BlittableI14SafeBinaryReadLb1E11QuaternionfEvRK29SerializationCommandArgumentsR31RuntimeSerializationCommandInfo
$ga:__ZN18SpriteAtlasManagerD0Ev
vx:__ZN7mecanim9animation10SampleClipERKNS0_12ConstantClipEjPf
rnj:_ToggleGroup_set_allowSwitchOff_m4192200290
izi:__Z57RuntimeInvoker_Boolean_t97287965_KeyValuePair_2_t71524366PFvvEPK10MethodInfoPvPS4_
mXa:__ZN10Matrix4x4f8TransferI14SafeBinaryReadEEvRT_
RRj:__ZNK10KeyWrapperINSt3__24pairIPK12PropertyInfoP11Il2CppClassEEE14EqualsComparerINS0_8equal_toIS7_EEEclERKS8_SE_
qqf:_CryptographicUnexpectedOperationException__ctor_m2381988196
UTj:__ZN14dense_hash_mapI10KeyWrapperIPK22Il2CppGenericParameterEPK24MonoGenericParameterInfoN6il2cpp5utils11PointerHashIS2_EENS4_14EqualsComparerINSt3__28equal_toIS3_EEEENSD_9allocatorINSD_4pairIKS4_S7_EEEEE15set_deleted_keyERSJ_
LF:__ZN14AvatarPlayback8StopTimeEv
D0e:_InternalEnumerator_1_System_Collections_IEnumerator_get_Current_m4213507601_gshared
oba:__Z6AppendRKN4core12basic_stringIcNS_20StringStorageDefaultIcEEEEPKc
xEi:__Z74RuntimeInvoker_DictionaryEntry_t3123975638_RuntimeObject_SByte_t1669577662PFvvEPK10MethodInfoPvPS4_
C8a:__ZL14OnWorldStoppedv
Cgh:_Array_InternalArray__IEnumerable_GetEnumerator_TisCustomAttributeNamedArgument_t287865710_m523021714_gshared
u6j:__ZN6il2cpp2vm6Object12NullableInitEPhP12Il2CppObjectP11Il2CppClass
CXh:__ZN21InterfaceFuncInvoker1I19Vector4_t3319028937iE6InvokeEjP11Il2CppClassP12Il2CppObjecti
_ma:__ZN9Scripting11UnityEngine16TrackedReference12CleanupProxyEv
$_c:__ZN20TextRenderingPrivate19NativeTextGeneratorC2ERK11UTF16StringPNS_8FontImplE11ColorRGBA32ifRK8Vector2fbifiibffbbP13dynamic_arrayIN2UI8UIVertexELj0EE
RLg:_HashKeys_get_SyncRoot_m3757723936
Ajj:_GUIUtility_RemoveCapture_m1294193818
eOb:__ZN7ApiGLES18ClearBufferSubDataEjN2gl12BufferTargetEll
Goc:__Z37Camera_Get_Custom_PropAllCamerasCountv
ZPa:__ZN14Texture2DArray8TransferI18StreamedBinaryReadILb0EEEEvRT_
iVi:_List_1_CopyTo_m2746988508_gshared
HKc:__Z38Register_UnityEngine_GUIStyle_get_namev
I9c:_Split_Cubic
$a:invoke_fiiii
mRf:_InputField_OnSubmit_m3583210804
Pwe:__ZL72GUISkin_t1244372282_CustomAttributesCacheGenerator_m_horizontalScrollbarP21CustomAttributesCache
$fj:_Uri_CheckHostName_m2213216182
fyk:_emscripten_glBindRenderbuffer__wrapper
oLi:_Mesh_SetUvsImpl_TisVector2_t2156229523_m3009194955_gshared
y2f:_HMAC_set_Key_m3535779141
KJi:_Array_Sort_TisVector4_t3319028937_TisVector4_t3319028937_m4254533673_gshared
_4e:_InternalEnumerator_1_System_Collections_IEnumerator_Reset_m729791527_AdjustorThunk
nIg:_ArrayListWrapper_Contains_m2641184447
t9c:_ft_black_render
$li:__Z177RuntimeInvoker_Int32_t2950945753_RuntimeObject_Int32_t2950945753_Int32_t2950945753_RuntimeObject_Int32_t2950945753_EncoderFallbackBufferU26_t2343550713_CharU5BU5DU26_t3299466565PFvvEPK10MethodInfoPvPS4_
euk:dynCall_viiifi
TQb:__ZN18GfxFramebufferGLES20ActiveContextChangedEPP17RenderSurfaceBaseS2_
$pe:__ZL86Logger_t274032455_CustomAttributesCacheGenerator_Logger_LogFormat_m3300686007____args3P21CustomAttributesCache
mlb:__Z19PluginsRenderMarkeri
$6e:_InternalEnumerator_1__ctor_m2307827786_AdjustorThunk
OI:__ZN10HumanTrait18InitializeBoneNameEv
vfc:__ZNSt3__26vectorIN9ShaderLab20SerializedSubProgram15StructParameterENS_9allocatorIS3_EEE6assignINS_11__wrap_iterIPS3_EEEENS_9enable_ifIXaasr21__is_forward_iteratorIT_EE5valuesr16is_constructibleIS3_NS_15iterator_traitsISC_E9referenceEEE5valueEvE4typeESC_SC_
xOa:__ZN14Texture2DArray21AwakeFromLoadThreadedEv
HCb:__Z29Transfer_Blittable_ArrayFieldI18StreamedBinaryReadILb0EEyEvRT_R9ArrayInfoRK23StaticTransferFieldInfo
bLf:_Touch_get_position_m3109777936_AdjustorThunk
V4j:__ZNSt3__214__split_bufferIN6il2cpp2vm5Image20EmbeddedResourceDataERNS_9allocatorIS4_EEEC2EjjS7_
Aue:__ZL66SkeletonBone_t4134054672_CustomAttributesCacheGenerator_parentNameP21CustomAttributesCache
Qzd:_CanvasScaler_set_screenMatchMode_m2975492035
Vid:__Z69Register_UnityEngine_Analytics_UnityAnalyticsHandler_Internal_Destroyv
vtg:_X509Certificate2Collection_Add_m3151757943
A_d:__ZL83RuntimeArray_CustomAttributesCacheGenerator_RuntimeArray____LongLength_PropertyInfoP21CustomAttributesCache
c9e:_Comparer_1__cctor_m951016718_gshared
GXc:__ZN9Scripting11UnityEngine13CharacterInfo9InitProxyEv
gKg:_CaseInsensitiveHashCodeProvider_get_DefaultInvariant_m4264275163
lde:__ZL67IndexOutOfRangeException_t1578797820_CustomAttributesCacheGeneratorP21CustomAttributesCache
rmi:__Z195RuntimeInvoker_Int32_t2950945753_RuntimeObject_Int32_t2950945753_Int32_t2950945753_Int32_t2950945753_RuntimeObject_DecoderFallbackBufferU26_t3866396827_ByteU5BU5DU26_t4057885439_SByte_t1669577662PFvvEPK10MethodInfoPvPS4_
Isj:__ZL25UnresolvedVirtualCall_147P12Il2CppObject16Rect_t2360479859aPK10MethodInfo
mX:__ZN5physx14PxLightCpuTask12addReferenceEv
zDa:__ZNK15InstancingProps35FillInstanceBufferDispatchConstantsIN10Instancing14RenderLoopArgsEEEvPPvjjRK19ShaderPropertySheetRKT_
Uzi:__Z86RuntimeInvoker_Int32_t2950945753_Color32_t2600501292_Color32_t2600501292_RuntimeObjectPFvvEPK10MethodInfoPvPS4_
AWa:__ZN21EnlightenSceneMapping8TransferI19StreamedBinaryWriteILb0EEEEvRT_
n7j:__ZN6il2cpp2gc16GarbageCollector19InitializeFinalizerEv
YA:__ZN7mecanim8skeleton18CreateSkeletonMaskEjPKNS0_19SkeletonMaskElementERNS_6memory9AllocatorE
g3h:_ReadOnlyCollection_1_System_Collections_Generic_ICollectionU3CTU3E_get_IsReadOnly_m2508509261_gshared
rLc:__ZN10GUIManager10DoGUIEventER10InputEventb
wub:__Z35Transfer_Blittable_FixedBufferFieldI24GenerateTypeTreeTransferxEvRK29SerializationCommandArgumentsR31RuntimeSerializationCommandInfo
I3c:_otv_LangSys_validate
gIf:_RectOffset_get_right_m2294081512
Psj:__ZL25UnresolvedVirtualCall_154P12Il2CppObjectfPK10MethodInfo
eKd:__ZN25GenericVirtActionInvoker1IP20Delegate_t1188392813E6InvokeEPK10MethodInfoP12Il2CppObjectS1_
TGi:_Array_InternalArray__set_Item_TisLink_t544317964_m1234244240_gshared
k8c:_UNITY_TT_Init_Glyph_Loading
h7d:__ZL61SerializationBinder_t274213469_CustomAttributesCacheGeneratorP21CustomAttributesCache
sDd:_OptionData_get_text_m2997376818
Sbf:_Enumerator__ctor_m324536319_gshared
kof:_SerializationInfo_GetBoolean_m1756153320
dQ:__Z32AudioMixerDuckingProcessCallbackP21UnityAudioEffectStatePfS1_jii
FXf:_U3CClickRepeatU3Ec__Iterator0_System_Collections_IEnumerator_get_Current_m543328413
BCf:_Mesh_get_uv2_m3615020997
DZh:_ReadOnlyCollection_1_Contains_m2979956790_gshared
Ivc:__ZN26CustomRenderTextureManagerD2Ev
nrc:__Z32Input_Get_Custom_PropInputStringv
Vyh:_EqualityComparer_1_System_Collections_IEqualityComparer_Equals_m4172006498_gshared
eM:__ZN12AudioManager8TransferI24GenerateTypeTreeTransferEEvRT_
YHi:_Array_qsort_TisOrderBlock_t1585977831_m3322202512_gshared
IBf:_Mathf_Round_m4098141538
sIa:__Z25GetBytesFromTextureFormat13TextureFormat
BZa:__ZN9Texture3D19UnloadFromGfxDeviceEb
U$j:__ZN6il2cpp6icalls8mscorlib6System9Threading6Thread20Thread_free_internalEP12Il2CppThreadi
RIb:__ZNK11PreloadData18GetInstanceIDArrayER13dynamic_arrayIiLj0EE
Fsb:__Z18Transfer_BlittableI17RemapPPtrTransferLb0EsEvRK29SerializationCommandArgumentsR31RuntimeSerializationCommandInfo
dze:__ZL64UnityAnalyticsHandler_t3011359618_CustomAttributesCacheGeneratorP21CustomAttributesCache
iog:__KeysEnumerator_get_Current_m2996478063
GLe:_AmbiguousMatchException__ctor_m2012725345
H8:__Z32scripting_class_get_assemblyname17ScriptingClassPtr
Kkd:__ZN11UnityEngine15PlatformWrapper15GetVRDeviceNameEv
iHe:__ZL109LayoutUtility_t2745813735_CustomAttributesCacheGenerator_LayoutUtility_U3CGetFlexibleWidthU3Em__3_m1091238571P21CustomAttributesCache
Fvi:__Z99RuntimeInvoker_Boolean_t97287965_Int32_t2950945753_PointerEventDataU26_t867828220_SByte_t1669577662PFvvEPK10MethodInfoPvPS4_
j$e:_InternalEnumerator_1_get_Current_m2128158355_AdjustorThunk
Iib:__ZN9GfxDevice21RegisterNativeTextureE9TextureIDi16TextureDimension
iFd:_GraphicRegistry__ctor_m1851575309
yBi:__Z52RuntimeInvoker_Void_t1185182177_Keyframe_t4206410242PFvvEPK10MethodInfoPvPS4_
jee:__ZL53TypeFilter_t2356120900_CustomAttributesCacheGeneratorP21CustomAttributesCache
Kjk:__ZN6il2cpp6icalls8mscorlib6System10Reflection4Emit11TypeBuilder20create_generic_classEP27Il2CppReflectionTypeBuilder
cRb:__ZNK16UniformCacheGLES6SubmitEjRK13dynamic_arrayIN20GpuProgramParameters14ValueParameterELj0EERKS0_IiLj0EE
Gfh:_PlayableHandle_IsPlayableOfType_TisAnimationLayerMixerPlayable_t3631223897_m201603007_gshared
jae:__ZL50Monitor_t2197244473_CustomAttributesCacheGeneratorP21CustomAttributesCache
UMj:__ZNSt3__26vectorIPK10MethodInfoNS_9allocatorIS3_EEE26__swap_out_circular_bufferERNS_14__split_bufferIS3_RS5_EE
E1f:_PrimalityTest_EndInvoke_m1035389364
IU:__Z60Register_UnityEngine_AudioListener_GetNumExtensionPropertiesv
Vi:_emscripten_glUniformMatrix4fv
WZj:__ZN15dense_hashtableINSt3__24pairIK10KeyWrapperINS1_IP11Il2CppClassjEEES4_EES6_N6il2cpp8metadata14ArrayClassHashEN14dense_hash_mapIS6_S4_SB_NS6_14EqualsComparerINSA_17ArrayClassCompareEEENS0_9allocatorIS8_EEE9SelectKeyESF_SH_E13set_empty_keyERKS8_
p0e:_InternalEnumerator_1_get_Current_m3839250771_AdjustorThunk
Sgf:_Enumerator_Dispose_m3040896940_AdjustorThunk
qCk:b100
ECf:_Mesh_get_colors32_m1253190811
Wfk:_GC_stopped_mark
lsd:__ZL59__ManagedRegistrationHelperFunction_SubsystemDescriptorBasePv
vtf:_AnimationCurve_Finalize_m2397002729
L$f:_Text_OnEnable_m616205807
XFi:__Z50RuntimeInvoker_RuntimeObject_ColorTween_t809614380PFvvEPK10MethodInfoPvPS4_
aRf:_InputField_OnFillVBO_m3649106646
Rnf:_SerializationCallbacks__cctor_m1674315180
wgc:__Z32TransferEnumWithNameForceIntSizeI14SafeBinaryRead7FogModeEvRT_RT0_PKc17TransferMetaFlags
jIj:__ZNK15dense_hashtableI10KeyWrapperIPK19Il2CppGenericMethodES4_N6il2cpp8metadata23Il2CppGenericMethodHashEN14dense_hash_setIS4_S7_NS4_14EqualsComparerINS6_26Il2CppGenericMethodCompareEEENSt3__29allocatorIS4_EEE8IdentityESB_SE_E23find_position_with_hashERKS4_j
GAa:__ZNSt3__26vectorIN12FlareManager10FlareEntryENS_9allocatorIS2_EEE21__push_back_slow_pathIS2_EEvOT_
jic:__ZN9ShaderLab20SerializedSubProgram16TextureParameter8TransferI19StreamedBinaryWriteILb0EEEEvRT_
Yta:__ZNK7Hash12812PackToUInt32Ev
oJg:_SynchronizedArrayListWrapper_IndexOf_m3642674350
W8d:__ZL58WindowsIdentity_t2948242406_CustomAttributesCacheGeneratorP21CustomAttributesCache
R$:__ZN11UnityEngine15CloudWebService16SessionContainer8AddEventEPNS0_14CloudEventInfoE
Nmb:__Z4TrimRKN4core12basic_stringIcNS_20StringStorageDefaultIcEEEES5_
E0h:_ReadOnlyCollection_1_CopyTo_m209634623_gshared
EKi:_Dictionary_2_Do_ICollectionCopyTo_TisKeyValuePair_2_t3842366416_m1399105608_gshared
Rze:__ZL77ExecuteEvents_t3484638744_CustomAttributesCacheGenerator_U3CU3Ef__mgU24cache2P21CustomAttributesCache
Hsg:_X509Certificate2_Import_m4026562329
ecf:_Enumerator_System_Collections_IEnumerator_get_Current_m2763095718_AdjustorThunk
ozk:_glGetStringi__wrapper
iXa:__ZN10VertexData8TransferI14SafeBinaryReadEEvRT_
wga:__ZN13RuntimeStaticI12AdsIdHandlerLb0EE16StaticInitializeEPv
Khk:_GC_malloc_atomic
aRd:_ActivatedClientTypeEntry_ToString_m2494181680
UCh:_HashSet_1_GetEnumerator_m3346268098_gshared
xkk:__ZN6il2cpp5utils6Memory13AlignedMallocEjj
gGf:_PropertyName_GetHashCode_m3570549176_AdjustorThunk
ane:__ZL55PropertyName_t3749835189_CustomAttributesCacheGeneratorP21CustomAttributesCache
sRf:_Selectable_get_animator_m2899312855
K6:__ZL20SortItemByInstanceIDRKN18AwakeFromLoadQueue4ItemES2_
UMf:_Vector2_op_Multiply_m2347887432
yEd:_FontData_get_maxSize_m195374730
Aog:_TypeConverterAttribute__ctor_m1774069684
hB:__ZNK34AnimationStateMachineMixerPlayable26GetInterruptedPosePlayableEv
xnd:__ZN20UnityConnectSettings8TransferI24GenerateTypeTreeTransferEEvRT_
QD:__ZN34BlobWriteTransferSTLStyleArrayImplI22OffsetPtrArrayTransferIbEEclERS1_17TransferMetaFlagsR9BlobWrite
cvc:__ZZN12MeshRenderer15InitializeClassEvEN29FunctorImpl_205kDidDeleteMesh4CallEPviR11MessageData
tzg:_Byte_ToString_m4063101981
vMe:_MonoType_GetConstructors_m2574682189
dck:__ZNK15dense_hashtableINSt3__24pairIK10KeyWrapperIPK19Il2CppGenericMethodEP10MethodInfoEES6_N6il2cpp8metadata23Il2CppGenericMethodHashEN14dense_hash_mapIS6_S9_SD_NS6_14EqualsComparerINSC_26Il2CppGenericMethodCompareEEENS0_9allocatorISA_EEE9SelectKeyESH_SJ_E10test_emptyERK30dense_hashtable_const_iteratorISA_S6_SD_SL_SH_SJ_E
A5d:__ZL59SinkProviderData_t4151372974_CustomAttributesCacheGeneratorP21CustomAttributesCache
qpg:_ServicePointManager_FindServicePoint_m4119451290
K7e:__ZN21InterfaceFuncInvoker1Ii22OrderBlock_t1585977831E6InvokeEjP11Il2CppClassP12Il2CppObjectS0_
UOj:__ZN15dense_hashtableINSt3__24pairIK10KeyWrapperINS1_IPK14Il2CppAssemblyP11Il2CppClassEEEjEES9_17ReflectionMapHashIS8_EN14dense_hash_mapIS9_jSD_NS9_14EqualsComparerINS0_8equal_toIS8_EEEENS0_9allocatorISB_EEE9SelectKeyESI_SK_E12expand_arrayEjN21dense_hash_map_traits17integral_constantIbLb0EEE
Hda:__ZL31InitializeRendererUpdateManagerPv
QNd:_ParameterInfo__ctor_m2779026345
lPf:_InputField_set_onValueChange_m1251390545
Gma:__ZN9Scripting11UnityEngine18WaitForFixedUpdate12CleanupProxyEv
U5h:_Func_1_EndInvoke_m3591709415_gshared
IEd:_FontData_get_verticalOverflow_m4132840071
Zla:__ZL46__ManagedRegistrationHelperFunction_RectOffsetPv
nOe:_NumberFormatter_get_IsZeroInteger_m2263284741
hV:__ZN13AudioListener12CleanupClassEv
fda:__Z13GetIEnlightenv
YOg:_DateTimeFormatInfo_get_LongTimePattern_m1595254249
b6i:_X509Certificate_PEM_m2020851166
Lph:_BigInteger_op_GreaterThanOrEqual_m700865613
bmh:_Array_InternalArray__Insert_TisDateTime_t3738529785_m2308632330_gshared
A1a:__ZN11TimeManager8TransferI19StreamedBinaryWriteILb0EEEEvRT_
n9f:_TlsServerCertificateRequest_ProcessAsTls1_m3214041063
c4c:_compare_uni_maps
_si:__Z72RuntimeInvoker_Boolean_t97287965_Vector2_t2156229523_Vector2_t2156229523PFvvEPK10MethodInfoPvPS4_
zld:__ZN11UnityEngine15PlatformWrapper27GetGraphicsCapsSupportFlagsEv
idd:__ZNSt3__218__insertion_sort_3IRPFbPN2UI6CanvasES3_EPS3_EEvT0_S8_T_
FKi:_Dictionary_2_Do_ICollectionCopyTo_TisRuntimeObject_m3695543300_gshared
cyb:__ZN12NativeBufferI16Converter_StringE15SetupForWritingER9ArrayInfo
Rph:_SequentialSearchPrimeGeneratorBase_GenerateSearchBase_m3595783982
$J:__ZN13RuntimeStaticI18AssetBundleManagerLb1EE16StaticInitializeEPv
Ivk:___cxa_end_catch__wrapper
ari:__Z121RuntimeInvoker_Int32_t2950945753_RuntimeObject_Int32U26_t1369213839_Int32_t2950945753_Int32_t2950945753_Int32_t2950945753PFvvEPK10MethodInfoPvPS4_
dHg:_Char_ToString_m278452217
k5f:_CipherSuite_get_DecryptionCipher_m2839827488
_Yh:_ReadOnlyCollection_1_System_Collections_IList_set_Item_m4047645019_gshared
P0b:__ZNK4PPtrI5LightEcvPS0_Ev
osd:__ZL50__ManagedRegistrationHelperFunction_ReferencePointPv
g1f:_BigInteger_op_RightShift_m460065452
Zwe:__ZL61GUISkin_t1244372282_CustomAttributesCacheGenerator_m_SettingsP21CustomAttributesCache
sHc:__ZN18CrashReportHandler12CloseServiceEv
D0j:__ZN6il2cpp6icalls8mscorlib6System5Array13ClearInternalEP11Il2CppArrayii
HVf:_RectMask2D_get_rootCanvasRect_m2913509457
had:__Z38TextGenerator_Get_Custom_PropLineCountP12Il2CppObject
m5i:_InternalAsyncResult_SetComplete_m963842420
Bkg:_Encoding_GetEncoding_m2801244948
RLc:__ZN11IMGUIModule25GetGUIStyleScriptingClassEv
C6c:_tt_get_interface
q5i:_SslStreamBase_EndRead_m495357226
F$j:__ZN6il2cpp5utils9PathUtils7CombineIcEENSt3__212basic_stringIT_NS3_11char_traitsIS5_EENS3_9allocatorIS5_EEEERKSA_SC_
n2i:_Collection_1_System_Collections_IList_get_IsFixedSize_m214626114_gshared
Loi:__Z64RuntimeInvoker_RuntimeObject_SByte_t1669577662_SByte_t1669577662PFvvEPK10MethodInfoPvPS4_
Rzc:__ZN13PlayableGraph21InvalidateMultithreadEv
ajj:_GUIScrollGroup_CalcHeight_m3173593443
Q9d:__ZL86UTF7Encoding_t2644108479_CustomAttributesCacheGenerator_UTF7Encoding_Equals_m227704363P21CustomAttributesCache
L8d:__ZL59ApplicationTrust_t3270368423_CustomAttributesCacheGeneratorP21CustomAttributesCache
LTe:_EnumBuilder_GetConstructorImpl_m3068576149
K5:__Z18ConvertUTF16toUTF8PPKtS0_PPhS2_15ConversionFlags
Ebk:__ZN6il2cpp2os20PathErrnoToErrorCodeERKNSt3__212basic_stringIcNS1_11char_traitsIcEENS1_9allocatorIcEEEEi
DDe:__ZL68InputField_t3762917431_CustomAttributesCacheGenerator_m_KeyboardTypeP21CustomAttributesCache
Mdg:_SymmetricAlgorithm_System_IDisposable_Dispose_m3402297829
cCc:__Z24GetActualTargetFrameRatev
Azj:__ZL16my_g_bit_nth_msfj
Fdg:_SHA512Managed_Sigma1_m922902398
Rge:__ZL129GenerateManagedProxyAttribute_t2394178854_CustomAttributesCacheGenerator_GenerateManagedProxyAttribute_set_NativeType_m3203265247P21CustomAttributesCache
j_j:__ZN15dense_hashtableINSt3__24pairIK10KeyWrapperIP11Il2CppClassES4_EES5_N6il2cpp8metadata16SZArrayClassHashEN14dense_hash_mapIS5_S4_SA_NS5_14EqualsComparerINS9_19SZArrayClassCompareEEENS0_9allocatorIS7_EEE9SelectKeyESE_SG_E12expand_arrayEjN21dense_hash_map_traits17integral_constantIbLb0EEE
Cvf:__ZN30GenericInterfaceActionInvoker1IP18Camera_t4157153871E6InvokeEPK10MethodInfoP12Il2CppObjectS1_
dxh:_DefaultComparer_GetHashCode_m3369508712_gshared
FXi:_Enumerator_MoveNext_m3662315381_AdjustorThunk
X8f:_TlsClientFinished_ProcessAsTls1_m2429863130
ZQd:_ActivatedClientTypeEntry_get_ApplicationUrl_m2894992111
ZYb:__Z23SetupStereoFlareElementP11FlareVertexRK8Vector2fS3_S3_RK11ColorRGBA32RK10Matrix4x4fRK8Vector3fb
uqj:__ZL24UnresolvedVirtualCall_25P12Il2CppObjectS0_S0_PK10MethodInfo
TCj:__ZN6il2cpp2vm5Class15GetInstanceSizeEPK11Il2CppClass
wUh:_ValueType__ctor_m2036258423
sa:invoke_iiiifiiii
HDb:__ZNSt3__224__buffered_inplace_mergeIRN10vector_mapI17ScriptingClassPtrPKN5Unity4TypeENS_4lessIS2_EENS_9allocatorINS_4pairIS2_S6_EEEEE13value_compareENS_11__wrap_iterIPSB_EEEEvT0_SJ_SJ_T_NS_15iterator_traitsISJ_E15difference_typeESN_PNSM_10value_typeE
A2i:__ZN23InterfaceActionInvoker2Ii20UICharInfo_t75501106E6InvokeEjP11Il2CppClassP12Il2CppObjectiS0_
fse:__ZL82Input_t1431474628_CustomAttributesCacheGenerator_Input_get_inputString_m1307069105P21CustomAttributesCache
QMf:_Vector2_Equals_m832062989_AdjustorThunk
Ldf:_ShimEnumerator_MoveNext_m2406150314_gshared
wRb:__ZL19BlitFramebufferImplRN4gles23BlitFramebufferDrawQuadER9GfxDevice9TextureIDRK8Vector4f
hsb:__Z18Transfer_BlittableI17RemapPPtrTransferLb0EhEvRK29SerializationCommandArgumentsR31RuntimeSerializationCommandInfo
OPj:__ZN15dense_hashtableINSt3__24pairIK10KeyWrapperIPK10Il2CppTypeEjEES6_N6il2cpp8metadata14Il2CppTypeHashEN14dense_hash_mapIS6_jSB_NS6_14EqualsComparerINSA_26Il2CppTypeEqualityComparerEEENS0_9allocatorIS8_EEE9SelectKeyESF_SH_E4findERS7_
Ssk:dynCall_viiiiiiiiiiiiii
d_c:_UNITY_FT_List_Add
gwc:__ZN14Texture2DArray11InitTextureEiii13TextureFormatb
Z6i:_X509Extension__ctor_m1474351312
D9d:__ZL104Encoding_t1523322056_CustomAttributesCacheGenerator_Encoding_t1523322056____DecoderFallback_PropertyInfoP21CustomAttributesCache
i9h:_InvokableCall_1_Invoke_m1524307439_gshared
rQa:__ZN12CubemapArray21AwakeFromLoadThreadedEv
VVg:_Directory_CreateDirectoriesInternal_m3735342319
lIh:_List_1_RemoveAll_m517055598_gshared
fFc:__Z41Camera_CUSTOM_WorldToScreenPoint_InjectedP12Il2CppObjectRK8Vector3fRS1_
CTf:_LayoutUtility_GetLayoutProperty_m3731360667
JUj:__ZN15dense_hashtableINSt3__24pairIK10KeyWrapperINS1_IPK11Il2CppImageP11Il2CppClassEEEjEES9_17ReflectionMapHashIS8_EN14dense_hash_mapIS9_jSD_NS9_14EqualsComparerINS0_8equal_toIS8_EEEENS0_9allocatorISB_EEE9SelectKeyESI_SK_E14squash_deletedEv
Kdg:_SHAConstants__cctor_m1699027474
WLd:_MonoEventInfo_t346866618_marshal_pinvoke_back
s1b:__ZNK6Camera26GetStereoSingleCullEnabledEv
rIh:_List_1_TrimExcess_m4121641494_gshared
Cbe:__ZL78Convert_t2465617642_CustomAttributesCacheGenerator_Convert_ToInt16_m1733792763P21CustomAttributesCache
r4a:__Z14resize_trimmedINSt3__26vectorIN4core12basic_stringIcNS2_20StringStorageDefaultIcEEEE13stl_allocatorIS6_L18MemLabelIdentifier13ELi16EEEEEvRT_j
k0:__GLOBAL__sub_I_Runtime_2D_SpriteAtlas_0_cpp
lpb:__Z18Transfer_BlittableI14SafeBinaryReadLb0EaEvRK29SerializationCommandArgumentsR31RuntimeSerializationCommandInfo
hHg:_CharEnumerator_System_Collections_IEnumerator_get_Current_m1328529384
m8g:_DBNull__ctor_m3431698857
ZUa:__ZN4core8hash_setINS_4pairIKiiLb0EEENS_9hash_pairINS_4hashIiEES2_iEENS_10equal_pairINSt3__28equal_toIiEES2_iEEE6insertERKS3_
Fyj:_AnimationLayerMixerPlayable__ctor_m860721801
qei:__Z98RuntimeInvoker_Boolean_t97287965_RuntimeObject_Int32_t2950945753_RuntimeObject_Int64U26_t200113976PFvvEPK10MethodInfoPvPS4_
u8c:_UNITY_FT_List_Iterate
PFa:__ZN17GlobalGameManager8TransferI24GenerateTypeTreeTransferEEvRT_
CGg:_Char_System_IConvertible_ToUInt64_m3536560782
pyh:_EqualityComparer_1__cctor_m3452395357_gshared
Pug:_X509ChainStatus_get_Status_m2572005749_AdjustorThunk
xXb:__Z20SyncFenceCullResultsR11CullResults
cTb:__ZN15TextureTFMethod20IsBoneCountSupportedEi
Lbh:_Double_ToString_m3828879243_AdjustorThunk
Htb:__Z22TransferField_NonArrayI17RemapPPtrTransfer27Converter_SimpleNativeClassI8GUIStyleEEvRK23StaticTransferFieldInfoR31RuntimeSerializationCommandInfoRT0_
JJe:_TextReader_Synchronized_m3004980758
zqd:__ZNK20UnityWebRequestProtoI24UnityWebRequestTransport16AtomicRefCounter14RedirectHelper14ResponseHelper15DownloadHandler13UploadHandler18CertificateHandler12HeaderHelper14AsyncOperationE16GetUploadedBytesEv
Qqc:__ZNK17AnimationCurveTplIfE20EvaluateWithoutCacheEfRf
Nsi:__Z67RuntimeInvoker_Boolean_t97287965_Rect_t2360479859_SByte_t1669577662PFvvEPK10MethodInfoPvPS4_
XBa:__ZN19ShaderPropertySheet10SetTextureERK23FastTexturePropertyNameP7Texture
xRe:_CustomAttributeData__ctor_m2966233049
qAd:_CanvasUpdateRegistry_PerformUpdate_m1793997159
n8f:_Context_set_ClientWriteIV_m3405909624
PAc:__ZN4Mesh10SetNormalsEPK8Vector3fj
zkj:_AesManaged_CreateDecryptor_m692040246
Nck:__ZNSt3__212basic_stringIDsNS_11char_traitsIDsEENS_9allocatorIDsEEE9__grow_byEjjjjjj
kwj:_TextGenerationSettings_t1351628751_marshal_pinvoke_back
GH:__ZN17AnimationCurveTplIfE8TransferI14SafeBinaryReadEEvRT_
ZGi:_Array_InternalArray__set_Item_TisInt16_t2552820387_m2544074754_gshared
FBg:_ArithmeticException__ctor_m3551809662
h0d:__ZL51BitArray_t4087883509_CustomAttributesCacheGeneratorP21CustomAttributesCache
XWi:__ZN21InterfaceFuncInvoker0I19Vector4_t3319028937E6InvokeEjP11Il2CppClassP12Il2CppObject
$Ci:__Z72RuntimeInvoker_CustomAttributeNamedArgument_t287865710_Int32_t2950945753PFvvEPK10MethodInfoPvPS4_
lbc:__Z29StdTemplateConversionFunctionIybEbPvR14SafeBinaryRead
GTa:__ZNSt3__26vectorIN15QualitySettings14QualitySettingENS_9allocatorIS2_EEE6assignIPS2_EENS_9enable_ifIXaasr21__is_forward_iteratorIT_EE5valuesr16is_constructibleIS2_NS_15iterator_traitsIS9_E9referenceEEE5valueEvE4typeES9_S9_
Ita:__ZNK5Unity9Component10GetEnabledEv
YXf:_ScrollRect_get_scrollSensitivity_m2832710591
Tyh:_EqualityComparer_1__cctor_m3995042002_gshared
mUi:_List_1_CopyTo_m1758106197_gshared
jIh:_List_1_CheckCollection_m1671972112_gshared
yXj:_il2cpp_class_get_image
Jbf:_Enumerator_System_Collections_IEnumerator_get_Current_m1747693366_gshared
KKh:_UnicodeEncoding_GetPreamble_m3002287178
daa:__Z16AsyncReadRequestP16AsyncReadCommand
CWc:__GLOBAL__sub_I_artifacts_WebGL_codegenerator_0_cpp_5477
Doj:_AudioSource_get_spatialize_m3609701298
LFe:__ZL56Toggle_t2735377061_CustomAttributesCacheGenerator_m_IsOnP21CustomAttributesCache
tmb:__ZN20GpuProgramParameters14AddVectorParamEPKcii15ShaderParamTypeiiiP16PropertyNamesSet
ypd:__ZN9Scripting19UnityEngineInternal15WebRequestUtils12CleanupProxyEv
Vpd:__ZNK12HeaderHelper3GetERKN4core12basic_stringIcNS0_20StringStorageDefaultIcEEEE
T1a:__ZN9InputAxis8TransferI14SafeBinaryReadEEvRT_
Z6:__ZNK21ExecutionOrderManager30GetCustomAwakeFromLoadQueueForEPKN5Unity4TypeE
Tod:__Z27RegisterModule_UnityConnectv
tqd:__ZN18CertificateHandler7ReleaseEv
Zsc:__ZZL31RegisterRectTransformPropertiesR22GenericPropertyBindingEN32Wrapper_RectTransformSizeDeltax013GetFloatValueEPv
TYg:_MemoryStream_Expand_m3554752073
eTj:__ZN6il2cpp2vm10Reflection27GetCustomAttributesCacheForEP25Il2CppReflectionParameter
KJf:_ScriptableObject_CreateInstance_m2611081756
Vlf:_ObjectRecord_get_IsInstanceReady_m2304516395
j5e:_InternalEnumerator_1_System_Collections_IEnumerator_get_Current_m1635397542_gshared
yZg:_Path__cctor_m3273994011
$kj:_AnalyticsEventTracker__ctor_m3064238498
jrk:__ZNSt11logic_errorD2Ev
H6g:_DateTimeUtils_CountRepeat_m3396693018
aVh:_WeakReference_get_Target_m168713953
uxk:_glBindRenderbuffer__wrapper
eP:__ZN10ObjectPoolIN4FMOD12ChannelGroupENS0_13ChannelGroupIEE7SetSizeEi
kkj:_SymmetricTransform_FinalDecrypt_m764004682
fbk:__ZN6il2cpp2os10ThreadImpl33UnregisterCurrentThreadForCleanupEv
ITc:__ZN9Scripting11UnityEngine26ParticleSystemVertexStream9InitProxyEv
VVi:_List_1_System_Collections_IList_get_Item_m1315368445_gshared
MAe:__ZL114PointerEventData_t3807901092_CustomAttributesCacheGenerator_PointerEventData_get_pointerCurrentRaycast_m2627585223P21CustomAttributesCache
Wcj:_Parser_ParseGroupingConstruct_m263270497
Gtd:_UIBehaviour_OnDisable_m1784507360
cqe:__ZL112PlayerConnection_t3081694049_CustomAttributesCacheGenerator_PlayerConnection_MessageCallbackInternal_m1914517467P21CustomAttributesCache
L1:__Z22ValidateTlsfAllocationPvjiS_
B$e:_InternalEnumerator_1_MoveNext_m3525157932_gshared
Rod:__ZN11UnityEngine9Analytics22EventLimitReachedEventC2EjyyRKN4core12basic_stringIcNS2_20StringStorageDefaultIcEEEEb
Pvf:_Color__ctor_m2943235014_AdjustorThunk
PUj:__ZN14dense_hash_mapI10KeyWrapperINSt3__24pairIPK9EventInfoP11Il2CppClassEEEj17ReflectionMapHashIS8_ENS9_14EqualsComparerINS1_8equal_toIS8_EEEENS1_9allocatorINS2_IKS9_jEEEEE15set_deleted_keyERSH_
Zqb:__Z14resize_trimmedINSt3__26vectorI17AnimationCurveTplIfE13stl_allocatorIS3_L18MemLabelIdentifier1ELi16EEEEEvRT_j
ipc:__Z12GUIDToStringRK9UnityGUID
LNf:_Vector4_op_Division_m264790546
IR:__ZN11SoundHandleC2ERKS_
qv:__ZN17AnimationPlayableC2E18DirectorPlayerType
nOf:_InputField_set_shouldHideMobileInput_m1650743574
nIj:__ZNK6il2cpp5utils11collections13ArrayValueMapIPK10Il2CppType17Il2CppInteropData26InteropDataToTypeConverterNS_8metadata14Il2CppTypeLessENS8_26Il2CppTypeEqualityComparerEE10find_firstERKS5_
nXi:_List_1_Reverse_m1445355384_gshared
oXg:_FileStream_get_CanSeek_m331583577
Fbc:__Z29StdTemplateConversionFunctionItxEbPvR14SafeBinaryRead
Ukf:_WellKnownServiceTypeEntry_get_ObjectType_m3211195371
joj:_PCMReaderCallback_EndInvoke_m3916876196
wr:__ZNSt3__26__sortIR23DependencySortPredicatePN4core4pairIiP9BehaviourLb0EEEEEvT0_S9_T_
Bde:__ZL65MissingMethodException_t1274661534_CustomAttributesCacheGeneratorP21CustomAttributesCache
trf:_DSAParameters_t1885824122_marshal_pinvoke_back
RB:__ZN8Animator22OnGraphTopologyChangedEP8Playablei
Gph:_Kernel_MultiplyByDword_m1266935086
Zx:__ZN17AnimationPlayable18DeallocateBindingsEv
iii:__Z158RuntimeInvoker_Boolean_t97287965_RuntimeObject_Int32U26_t1369213839_Int32_t2950945753_Int32_t2950945753_RuntimeObject_SByte_t1669577662_ContextU26_t3937453398PFvvEPK10MethodInfoPvPS4_
jjg:_String_Trim_m3384720403
YGa:__ZN14RenderSettings18TransferDeprecatedI14SafeBinaryReadEEvRT_
ymi:__Z93RuntimeInvoker_Single_t1397266774_SingleU26_t1922108698_Single_t1397266774_Single_t1397266774PFvvEPK10MethodInfoPvPS4_
Y0j:__ZN6il2cpp2vm9Exception27RaiseNullReferenceExceptionERKNS_5utils10StringViewIDsEEP19Il2CppSequencePoint
ahj:_Event__ctor_m526447123
Pde:__ZL56RankException_t3812021567_CustomAttributesCacheGeneratorP21CustomAttributesCache
ozi:__Z72RuntimeInvoker_Boolean_t97287965_CustomAttributeNamedArgument_t287865710PFvvEPK10MethodInfoPvPS4_
Ipi:__Z88RuntimeInvoker_RuntimeObject_RuntimeObject_RuntimeObject_RuntimeObject_Int32_t2950945753PFvvEPK10MethodInfoPvPS4_
RQh:_Type_ToString_m3975981286
t2:__ZN12TLSAllocatorI14StackAllocatorE8AllocateEji
Spj:_ConsumeSampleFramesNativeFunction_BeginInvoke_m342678987
Y7:__ZN16ScriptingManager18GetMonoScriptCacheEi
fVb:__ZN20ArchiveStorageHeader13GetDataOffsetERKNS_6HeaderE
idj:_ExpressionAssertion__ctor_m2554412824
Gej:_CapturingGroup_IsComplex_m4061114763
CDh:_Enumerator_System_Collections_IEnumerator_get_Current_m2237476582_gshared
spb:__Z18Transfer_BlittableI14SafeBinaryReadLb1EyEvRK29SerializationCommandArgumentsR31RuntimeSerializationCommandInfo
bVh:_WeakReference_Finalize_m2841826116
DNe:_NullReferenceException__ctor_m3076065613
XMc:__ZN8JSONRead8TransferIfEEvRT_PKc17TransferMetaFlagsb
auj:__ZL25UnresolvedVirtualCall_221P12Il2CppObject6Guid_tS1_PK10MethodInfo
OSf:_LayoutGroup_OnDisable_m3483954898
xH:__ZN25RuntimeAnimatorController8TransferI17RemapPPtrTransferEEvRT_
MMh:_SynchronizationLockException__ctor_m3407855920
T4h:_Comparison_1_EndInvoke_m3981968715_gshared
Wic:__ZN9ShaderLab7Program22ComputeSupportsShadowsEv
trg:_X509SubjectKeyIdentifierExtension_Decode_m1505409124
cjc:__ZL23AddGpuProgramParametersR20GpuProgramParametersRKNSt3__26vectorIN9ShaderLab20SerializedSubProgram15MatrixParameterENS1_9allocatorIS5_EEEERKNS2_INS4_15VectorParameterENS6_ISB_EEEEiiP16PropertyNamesSet
Oha:__ZN6prcoreL17RemapGenericFloatI18TexFormatARGBFloat17TexFormatRGBAHalfEEvPKNS_9InnerInfoE
Ykj:_AnalyticsEventParamListContainer__ctor_m1995104893
Oig:_String_System_IConvertible_ToUInt16_m2888090399
IQ:__ZN11AudioSource21ApplyCachedParametersE12SoundChannel
tQe:_Assembly_InternalGetType_m3065345470
Lbf:_Enumerator_System_Collections_IEnumerator_Reset_m1943008355_gshared
o_e:_InternalEnumerator_1__ctor_m3390957028_gshared
uPd:_ResourceSet__ctor_m3356376607
dCd:_FloatTween_set_startValue_m53556027_AdjustorThunk
Uvd:_PhysicsRaycaster_get_maxRayIntersections_m3887348715
h5d:__ZL56_ParameterInfo_t489405856_CustomAttributesCacheGeneratorP21CustomAttributesCache
aWa:__ZN15SerializeTraitsI33EnlightenTerrainChunksInformationE8TransferI14SafeBinaryReadEEvRS0_RT_
dxc:__ZNK32RendererMaterialAnimationBinding9BindValueER6ObjectRKN11UnityEngine9Animation14GenericBindingERNS3_10BoundCurveE
nEe:__ZL109MaskableGraphic_t3839221559_CustomAttributesCacheGenerator_MaskableGraphic_ParentMaskStateChanged_m1092090553P21CustomAttributesCache
$ff:_Transform_1_Invoke_m1731820209_gshared
kDj:__ZN6il2cpp2vm5Class11IsInterfaceEPK11Il2CppClass
s9d:__ZL50Decoder_t2204182725_CustomAttributesCacheGeneratorP21CustomAttributesCache
qPa:__ZL18stbir__support_onef
fig:_Single_CompareTo_m189772128
KOc:__Z26Transfer_UnityEngineObjectI9JSONWriteLb0EEvRK29SerializationCommandArgumentsR31RuntimeSerializationCommandInfo
y7e:_DefaultComparer_Compare_m4042058291_gshared
fHd:_Image_set_overrideSprite_m3213596394
YMa:__ZNSt3__26vectorIN4core12basic_stringIcNS1_20StringStorageDefaultIcEEEE13stl_allocatorIS5_L18MemLabelIdentifier1ELi16EEE6assignINS_11__wrap_iterIPS5_EEEENS_9enable_ifIXaasr21__is_forward_iteratorIT_EE5valuesr16is_constructibleIS5_NS_15iterator_traitsISF_E9referenceEEE5valueEvE4typeESF_SF_
Wgd:__ZNSt3__27__sort5IRNS_6__lessIN2UI14DepthSortEntryES3_EEPS3_EEjT0_S7_S7_S7_S7_T_
_Wg:_FileLoadException_ToString_m2989457882
Y6i:_AuthorityKeyIdentifierExtension__ctor_m2197389230
Voj:_AudioListener_ClearExtensionProperties_m3849891634
KZc:_UNITY_FT_DivFix
QLi:_Array_InternalArray__get_Item_TisDecimal_t2948259380_m3511003792_gshared
WK:__ZL45__ManagedRegistrationHelperFunction_AudioClipPv
zfg:_SecurityElement_IsValidAttributeValue_m948345692
swc:__ZN14Texture2DArrayC2E10MemLabelId18ObjectCreationMode
TWe:_Action_3__ctor_m967275408_gshared
Ba:invoke_vdd
vn:FUNCTION_TABLE_fiii
D3d:__ZL102MethodInfo_t_CustomAttributesCacheGenerator_MethodInfo_MakeGenericMethod_m1996785325____typeArguments0P21CustomAttributesCache
UJe:_TextWriter_Write_m2252948084
qzc:__Z19RegisterModule_Corev
XUd:_AsyncResult_get_CallMessage_m1679778649
$gh:_Array_InternalArray__IEnumerable_GetEnumerator_TisPlayableBinding_t354260709_m1924544205_gshared
Qad:__ZZ29InitializeTextRenderingModulevEN27cleanupAfterLoadRegistrator7ForwardEv
wz:__ZN27AnimationLayerMixerPlayable24ProcessAnimationLayerMixEP33AnimationPlayableEvaluationOutputP35AnimationPlayableEvaluationConstantP32AnimationPlayableEvaluationInputS1_if
GMg:_CCFixed_FromDateTime_m3894190577
n7b:__Z29PluginsIssueRenderingExtEvent26UnityRenderingExtEventTypePv
yhi:__Z116RuntimeInvoker_RuntimeObject_RuntimeObject_Int32_t2950945753_RuntimeObject_RuntimeObject_RuntimeObject_RuntimeObjectPFvvEPK10MethodInfoPvPS4_
Jof:_RuntimeMethodHandle__ctor_m2229201676_AdjustorThunk
Amf:_MessageFormatter_ReadMethodCall_m2327590823
Wvc:__Z14RandomRotationP9Texture2DPhiiii
pkh:_Array_InternalArray__ICollection_Add_TisUInt16_t2177724958_m3981262878_gshared
q9g:_Decimal_GetBits_m453754410
RCh:_HashSet_1_Contains_m3173358704_gshared
Smj:_ToggleEvent__ctor_m834619998
C6e:_InternalEnumerator_1_Dispose_m436383441_AdjustorThunk
s3f:_PKCS1_Encode_v15_m2077073129
Bnb:__ZN10Instancing11DrawAPIArgsC2ERK19ShaderPropertySheetPK8Vector4fS6_S6_i
dvh:_Dictionary_2_get_Values_m2682483593_gshared
uWh:_Collection_1_set_Item_m4084225937_gshared
cFi:__Z51RuntimeInvoker_OrderBlock_t1585977831_RuntimeObjectPFvvEPK10MethodInfoPvPS4_
fIf:_RectOffset_get_left_m1232181034
G_j:__ZNSt3__214__split_bufferIN6il2cpp8metadata18GenericArrayMethodERNS_9allocatorIS3_EEED2Ev
ij:_JS_WebRequest_SetResponseHandler
Wui:__Z59RuntimeInvoker_Boolean_t97287965_Int32_t2950945753_IntPtr_tPFvvEPK10MethodInfoPvPS4_
ZAk:_glDeleteProgram__wrapper
CPa:__ZN6prcoreL18BlitFloatToIntegerERK14ImageReferenceRS0_
B8g:_DBNull_System_IConvertible_ToUInt32_m3784627971
q7f:_ClientSessionCache_Add_m964342678
cZb:__Z13GetIPhysics2Dv
m$:__ZN11UnityEngine15CloudWebService14RestDownloader17OnCompleteContentEv
FOj:__ZN15dense_hashtableINSt3__24pairIK10KeyWrapperINS1_IPK14Il2CppAssemblyP11Il2CppClassEEEjEES9_17ReflectionMapHashIS8_EN14dense_hash_mapIS9_jSD_NS9_14EqualsComparerINS0_8equal_toIS8_EEEENS0_9allocatorISB_EEE9SelectKeyESI_SK_E15insert_noresizeERKSB_
znb:__ZN10Instancing11DrawAPIArgsC2Ev
OLf:_Transform_get_localScale_m129152068
G9g:_DivideByZeroException__ctor_m3496959969
$Qb:__ZN26SinglePassStereoSupportExt19AfterDrawCallStereoEv
nZf:_ScrollRect_get_layoutPriority_m1584702890
Na:invoke_viffi
zB:__ZN17AnimationPlayable28UpdateInternalStateRecursiveILi1ELb0EEEvPK35AnimationPlayableEvaluationConstant
B7j:__ZN6il2cpp2gcL10CleanupCCWEPvS1_
Qa:invoke_vifff
Lzk:_glGetVertexAttribiv__wrapper
vKd:__ZN23GenericVirtFuncInvoker2IbP12MemberInfo_tP12Il2CppObjectE6InvokeEPK10MethodInfoS3_S1_S3_
n7h:_Predicate_1_Invoke_m851618236_gshared
t1d:__ZL67IsolatedStorageException_t3468072396_CustomAttributesCacheGeneratorP21CustomAttributesCache
FGb:__ZN20LocalFileSystemWebGL6DeleteER13FileEntryDatab
Oe:_emscripten_glDisableVertexAttribArray
afh:_Array_InternalArray__ICollection_Remove_TisSingle_t1397266774_m3361324455_gshared
Vm:FUNCTION_TABLE_iiiifiiii
tse:__ZL90AnimationCurve_t3046754366_CustomAttributesCacheGenerator_AnimationCurve_Cleanup_m35123172P21CustomAttributesCache
iZi:_Collection_1_set_Item_m839097518_gshared
S_e:_InternalEnumerator_1__ctor_m3456047704_gshared
gc:invoke_fifffi
gVh:_Collection_1_System_Collections_IList_Add_m2969482770_gshared
sqh:_BitConverterLE_GetBytes_m4130646282
MPb:__ZN4gles23ClearCurrentFramebufferEP7ApiGLESbbbRK10ColorRGBAffi
Sz:__ZN7mecanim12statemachine20CreateStateWorkspaceEjjjRNS_6memory9AllocatorE
ebi:_UnityEvent_1_Invoke_m3604335408_gshared
Fce:__ZL79Convert_t2465617642_CustomAttributesCacheGenerator_Convert_ToUInt64_m2652538228P21CustomAttributesCache
Ze:_emscripten_glDeleteObjectARB
vud:_EventSystem_RaycastComparer_m3685368675
uSa:__Z14DecompressDXT3iiiPKjPj
rli:__Z131RuntimeInvoker_Void_t1185182177_RuntimeObject_RuntimeObject_Int64_t3736567304_ObjectU26_t2146539884_SerializationInfoU26_t419328957PFvvEPK10MethodInfoPvPS4_
mia:__ZN6prcoreL27StretchGenericFloatBilinearI18TexFormatARGBFloatEEvPKNS_9InnerInfoE
grh:_DSAManaged_CreateSignature_m2233977444
ECe:__ZL87U3CDelayedDestroyDropdownListU3Ec__Iterator0_t3853912249_CustomAttributesCacheGeneratorP21CustomAttributesCache
Pyg:_PKCS12_RemoveCertificate_m1421555398
R_f:_Slider_FindSelectableOnLeft_m1667068522
fia:__ZN6prcoreL17RemapGenericFloatI17TexFormatRGBAHalf18TexFormatARGBFloatEEvPKNS_9InnerInfoE
UKc:__Z14GetBuiltinSkini
iWd:_MethodDictionary_get_Item_m1201458851
KW:___cxx_global_var_init_13
ZW:___cxx_global_var_init_10
_W:___cxx_global_var_init_11
Iei:__Z60RuntimeInvoker_SByte_t1669577662_RuntimeObject_RuntimeObjectPFvvEPK10MethodInfoPvPS4_
Lqh:_CryptoConvert_ToInt32LE_m3340980429
il:_JS_SystemInfo_GetBrowserVersionString
V9a:__ZN2UI13RectTransform23VirtualRedirectTransferER14SafeBinaryRead
x4a:__ZN24GenerateTypeTreeTransfer8TransferINSt3__26vectorIN4core12basic_stringIcNS3_20StringStorageDefaultIcEEEE13stl_allocatorIS7_L18MemLabelIdentifier13ELi16EEEEEEvRT_PKc17TransferMetaFlags
Tgf:_Enumerator_MoveNext_m3045873697_gshared
Bri:__Z31RuntimeInvoker_Rect_t2360479859PFvvEPK10MethodInfoPvPS4_
Igc:__ZNSt3__26vectorIN9ShaderLab20SerializedSubProgramENS_9allocatorIS2_EEE6assignIPS2_EENS_9enable_ifIXaasr21__is_forward_iteratorIT_EE5valuesr16is_constructibleIS2_NS_15iterator_traitsIS9_E9referenceEEE5valueEvE4typeES9_S9_
XQc:__Z18Transfer_BlittableI8JSONReadLb0E8BitFieldEvRK29SerializationCommandArgumentsR31RuntimeSerializationCommandInfo
$eg:_SecurityPermission_set_Flags_m1503445204
LCh:_HashSet_1_CopyTo_m2849056227_gshared
wzb:__ZL17Transfer_GUIStyleI18StreamedBinaryReadILb1EELb0EEvRK29SerializationCommandArgumentsR31RuntimeSerializationCommandInfo
wIc:__ZN9Scripting11UnityEngine15ScrollViewState9InitProxyEv
oph:_ModulusRing_Multiply_m343333088
pue:__ZL76AnimatorTransitionInfo_t2534804151_CustomAttributesCacheGenerator_m_AnyStateP21CustomAttributesCache
Cec:__ZN9ShaderLab14SerializedPass8TransferI14SafeBinaryReadEEvRT_
pKc:__Z71Register_UnityEngine_GUILayoutUtility_INTERNAL_CALL_Internal_MoveWindowv
bU:__ZN12AudioManager16SetListenerPauseEb
o4a:__ZNSt3__26vectorIN30RuntimeInitializeOnLoadManager9ClassInfoE13stl_allocatorIS2_L18MemLabelIdentifier13ELi16EEE6assignINS_11__wrap_iterIPS2_EEEENS_9enable_ifIXaasr21__is_forward_iteratorIT_EE5valuesr16is_constructibleIS2_NS_15iterator_traitsISC_E9referenceEEE5valueEvE4typeESC_SC_
$Uc:__ZL50__ManagedRegistrationHelperFunction_ContactPoint2DPv
kve:__ZL77AudioClip_t3680889665_CustomAttributesCacheGenerator_m_PCMSetPositionCallbackP21CustomAttributesCache
SJh:_StringBuilder_get_Length_m3238060835
f7d:__ZL64OnSerializedAttribute_t2595932830_CustomAttributesCacheGeneratorP21CustomAttributesCache
Uwf:_StateChanged_EndInvoke_m3313423087
da:invoke_viiiiiiiiiii
ank:___syscall_ret
Q7i:_DeriveBytes_set_Salt_m1400945044
Ewd:_PointerEventData_set_worldNormal_m1888481930
Kzd:_CanvasScaler_set_referencePixelsPerUnit_m1768965301
Sdj:_AnchorInfo__ctor_m46784903
Y5f:_CipherSuiteCollection_get_Item_m4188309062
u4i:_SslHandshakeHash_HashFinal_m2573455475
lUd:_SynchronizationAttribute_ReleaseLock_m1030353464
HVj:__ZNSt3__212basic_stringIcNS_11char_traitsIcEENS_9allocatorIcEEE6assignINS_11__wrap_iterIPKcEEEENS_9enable_ifIXaasr21__is_forward_iteratorIT_EE5valuesr38__libcpp_string_gets_noexcept_iteratorISC_EE5valueERS5_E4typeESC_SC_
njd:__Z56Register_UnityEngine_Analytics_CustomEventData_AddDoublev
cYa:__ZN11ChannelInfo8TransferI19StreamedBinaryWriteILb0EEEEvRT_
Qck:__ZN4utf88internal13validate_nextIPKcEENS0_9utf_errorERT_S5_Rj
MFe:__ZL53ToggleGroup_t123837990_CustomAttributesCacheGeneratorP21CustomAttributesCache
Mcg:_SHA1Internal_AddLength_m2737455899
i5d:__ZL59_PropertyBuilder_t1366136710_CustomAttributesCacheGeneratorP21CustomAttributesCache
dRf:_InputField_CreateCursorVerts_m3585916868
Duh:_KeyValuePair_2_get_Value_m755756747_gshared
nmc:__Z34Register_UnityEngine_Gradient_Initv
PSf:_LayoutGroup_OnDidApplyAnimationProperties_m1333813659
KUe:_GenericTypeParameterBuilder_IsArrayImpl_m67259334
yTd:_Context_ToString_m1073616138
RMe:_DefaultMemberAttribute_get_MemberName_m3384235354
eZa:__ZN13ScreenManager23SetIsOrientationEnabledE18EnabledOrientationb
hOf:_InputField_EnforceTextHOverflow_m3400115777
gQi:_List_1_System_Collections_IEnumerable_GetEnumerator_m1225415523_gshared
dXc:__ZN9Scripting11UnityEngine12TreeInstance9InitProxyEv
Rsi:__Z41RuntimeInvoker_TextureWrapMode_t584250749PFvvEPK10MethodInfoPvPS4_
X1a:__ZN9InputAxis8TransferI19StreamedBinaryWriteILb0EEEEvRT_
DSg:__Z33il2cpp_codegen_check_sub_overflowxx
nhe:__ZL98NativeMethodAttribute_t4187428193_CustomAttributesCacheGenerator_U3CIsThreadSafeU3Ek__BackingFieldP21CustomAttributesCache
aPf:_InputField_get_caretColor_m2973283772
bdi:_ListPool_1_Release_m591299672_gshared
F_d:__ZL160U3CGetEnumeratorU3Ec__Iterator0_t1202911786_CustomAttributesCacheGenerator_U3CGetEnumeratorU3Ec__Iterator0_System_Collections_IEnumerator_get_Current_m596993724P21CustomAttributesCache
BVf:_RectMask2D_get_Canvas_m9990042
e5e:_InternalEnumerator_1_MoveNext_m1096095130_AdjustorThunk
EVh:_Collection_1_RemoveAt_m226266097_gshared
ubi:_UnityEvent_1_AddListener_m1590149461_gshared
Xwe:__ZL63GUISkin_t1244372282_CustomAttributesCacheGenerator_m_ScrollViewP21CustomAttributesCache
ume:__ZL62SortingGroupsUpdate_t3400410071_CustomAttributesCacheGeneratorP21CustomAttributesCache
hNi:_Resources_ConvertObjects_TisRuntimeObject_m1486780300_gshared
kbh:_Double_System_IConvertible_ToInt16_m3591921965_AdjustorThunk
V4h:_Comparison_1_Invoke_m2925518770_gshared
zwa:__ZN10GameObject23VirtualRedirectTransferER18StreamedBinaryReadILb0EE
Vjj:_SymmetricTransform__ctor_m2693628991
jJe:_ObjectDisposedException__ctor_m1034312941
pg:_glFrontFace
yYg:_FileSystemInfo_InternalRefresh_m1700260373
JDd:_Dropdown_OnSubmit_m1624226516
Sde:__ZL101RuntimeMethodHandle_t1133924984_CustomAttributesCacheGenerator_RuntimeMethodHandle_Equals_m3301340296P21CustomAttributesCache
ZHj:__ZNK15dense_hashtableINSt3__24pairIK10KeyWrapperIPK19Il2CppGenericMethodEPK26Il2CppGenericMethodIndicesEES6_N6il2cpp8metadata23Il2CppGenericMethodHashEN14dense_hash_mapIS6_SA_SE_NS6_14EqualsComparerINSD_26Il2CppGenericMethodCompareEEENS0_9allocatorISB_EEE9SelectKeyESI_SK_E12test_deletedEj
DUf:_MaskUtilities_IsDescendantOrSelf_m2247511982
yni:__Z51RuntimeInvoker_UInt16_t2177724958_SByte_t1669577662PFvvEPK10MethodInfoPvPS4_
Idi:__Z46RuntimeInvoker_Double_t594665363_RuntimeObjectPFvvEPK10MethodInfoPvPS4_
Isi:__Z34RuntimeInvoker_Vector2_t2156229523PFvvEPK10MethodInfoPvPS4_
Kxa:__ZN12BaseRenderer21SetGlobalLayeringDataE18GlobalLayeringDataj
vad:__Z51Register_UnityEngine_TextGenerator_GetLinesInternalv
Agf:_Enumerator_get_Current_m2250080680_AdjustorThunk
Jgg:_SecurityElement__cctor_m3326869319
Gkj:_AesManaged_set_Key_m767972181
GRg:_Int16_System_IConvertible_ToBoolean_m1656400658_AdjustorThunk
wFg:_Byte_System_IConvertible_ToInt64_m285584218
twe:__ZL120GUILayoutUtility_t66395690_CustomAttributesCacheGenerator_GUILayoutUtility_INTERNAL_CALL_Internal_MoveWindow_m2976690564P21CustomAttributesCache
wha:__ZN6prcoreL17RemapGenericFloatI17TexFormatRGBFloat18TexFormatRGBAFloatEEvPKNS_9InnerInfoE
MKg:_DictionaryEntry_t3123975638_marshal_pinvoke_cleanup
Kjh:_Array_InternalArray__ICollection_Add_TisDictionaryEntry_t3123975638_m665385049_gshared
Hie:__ZL57BootConfigData_t3818279794_CustomAttributesCacheGeneratorP21CustomAttributesCache
oLe:_MissingMemberException__ctor_m2707802176
Fwc:__ZN28ReflectionProbeAnchorManager10InitializeEv
axj:_Canvas_get_renderMode_m841659411
okg:_String_Join_m2050845953
gof:_SerializationInfo_GetValue_m42271953
HS:__ZN9AudioClip11CreateSoundEv
XPa:__ZN29SerializeTraitsForStringTypesIN4core12basic_stringIcNS0_20StringStorageDefaultIcEEEEE8TransferI24GenerateTypeTreeTransferEEvRS4_RT_
bVj:__ZN14dense_hash_mapI10KeyWrapperINSt3__24pairIPK9FieldInfoP11Il2CppClassEEEj17ReflectionMapHashIS8_ENS9_14EqualsComparerINS1_8equal_toIS8_EEEENS1_9allocatorINS2_IKS9_jEEEEEC2EjRKSB_RKSF_
HK:__ZN4core8hash_setINS_4pairIKiiLb0EEENS_9hash_pairINS_4hashIiEES2_iEENS_10equal_pairINSt3__28equal_toIiEES2_iEEE4growEi
GK:__ZN4core8hash_setINS_4pairIKiiLb0EEENS_9hash_pairINS_4hashIiEES2_iEENS_10equal_pairINSt3__28equal_toIiEES2_iEEE4growEv
NDf:_PlayerConnection_GetConnectionNativeApi_m3116196780
AQj:__ZNK15dense_hashtableINSt3__24pairIK10KeyWrapperINS1_IPK10MethodInfoP11Il2CppClassEEEjEES9_17ReflectionMapHashIS8_EN14dense_hash_mapIS9_jSD_NS9_14EqualsComparerINS0_8equal_toIS8_EEEENS0_9allocatorISB_EEE9SelectKeyESI_SK_E13find_positionERSA_
dod:__ZN11UnityEngine7Connect16PersistentValues13RestoreValuesER8JSONRead
mbd:__ZN9Scripting11UnityEngine8Tilemaps8TileData9InitProxyEv
j_d:__ZL65RuntimeArray_CustomAttributesCacheGenerator_Array_Sort_m182264525P21CustomAttributesCache
tRg:_Guid_BaseToString_m3600006650
Eeb:__ZN20ArchiveStorageReader31TryToReadDirectoryFromBlockDataEyPKvj
Ptd:_PointerEventData_set_pointerEnter_m3256217464
v3j:__ZN6il2cpp2vmL11GetIdentityEP14Il2CppIUnknown
zgk:_GC_push_gc_structures
f9f:_TlsServerCertificate_ProcessAsTls1_m819212276
yNi:_List_1_System_Collections_Generic_ICollectionU3CTU3E_get_IsReadOnly_m507350231_gshared
UKi:_Dictionary_2_Do_ICollectionCopyTo_TisRuntimeObject_m3942192587_gshared
pNj:__ZN6il2cpp6icalls8mscorlib6SystemL8IsPublicEPK9EventInfo
M4e:_InternalEnumerator_1_MoveNext_m359138619_AdjustorThunk
GIe:__ZL63EventTrigger_t2527451695_CustomAttributesCacheGenerator_m_RulesP21CustomAttributesCache
G1f:_PrimalityTests_RabinMillerTest_m2544317101
Qmb:__Z22GetShaderCachePathGLESv
L0f:_Kernel_DwordDivMod_m1540317819
z8h:_CachedInvokableCall_1_Invoke_m931536002_gshared
AXi:_Enumerator_System_Collections_IEnumerator_get_Current_m1399273671_gshared
wJd:_TypeBuilder_GetPropertyImpl_m3104345782
wYa:__ZNSt3__213__stable_sortIRNS_4lessI4PPtrI11SpriteAtlasEEENS_11__wrap_iterIPS4_EEEEvT0_SA_T_NS_15iterator_traitsISA_E15difference_typeEPNSD_10value_typeEi
JUg:_Int64_ToString_m2085073918_AdjustorThunk
Wef:_Transform_1_Invoke_m4084479750_gshared
nKd:_FieldInfo_GetFieldOffset_m1356898082
dFi:__Z36RuntimeInvoker_Enumerator_t652329154PFvvEPK10MethodInfoPvPS4_
vvf:_Camera_RaycastTry_m3913529496
Fdc:__ZN10BootConfig4Data14InitFromStringEPPKcjS2_
z3:__ZN8keywords6CreateEPKc
Ozj:__ZL7log2_32j
qGf:_Quaternion_Inverse_Injected_m4070500351
S:Math_imul
UYf:_ScrollRect_LateUpdate_m1215231183
Bqa:__ZN9Scripting11UnityEngine11ContextMenu9InitProxyEv
bWh:_Collection_1_System_Collections_IList_get_Item_m3314684800_gshared
yzi:__Z49RuntimeInvoker_Boolean_t97287965_Byte_t1134296376PFvvEPK10MethodInfoPvPS4_
A9f:_TlsServerKeyExchange_Update_m453798279
UTa:__ZN11PlayerPrefs6GetIntERKN4core12basic_stringIcNS0_20StringStorageDefaultIcEEEEi
d6f:_CipherSuiteCollection_System_Collections_IList_IndexOf_m1361500977
K$f:_Text_set_fontStyle_m648756124
dad:__Z45TextGenerator_CUSTOM_INTERNAL_get_rectExtentsP12Il2CppObjectP5RectTIfE
Xti:__Z50RuntimeInvoker_Touch_t1921856868_Int32_t2950945753PFvvEPK10MethodInfoPvPS4_
fK:__ZN9Scripting11UnityEngine18AssetBundleRequest12CleanupProxyEv
g6g:_DateTime__ctor_m2135476686_AdjustorThunk
KRc:__ZN13GUIStyleState8TransferI8JSONReadEEvRT_
gZa:__ZN13ScreenManager21SetLockCursorInternalE14CursorLockMode
jjf:_SoapFieldAttribute_IsInteropXmlElement_m2819415462
oU:__ZN11AudioSource12SetAudioClipEP9AudioClip
SIf:_RectTransform_GetLocalCorners_m823861473
wJg:_SynchronizedArrayListWrapper_GetEnumerator_m1579424644
JWf:_Scrollbar_get_value_m760470106
q5h:_Comparison_1_EndInvoke_m2734814639_gshared
z5:__ZN18ScriptingArguments9AddObjectE18ScriptingObjectPtr
ued:__Z39CanvasGroup_Get_Custom_PropInteractableP12Il2CppObject
TX:__ZN11UnityEngine15CloudWebService16SessionContainerD2Ev
Gmd:__ZL38InitializeUnityConnectScriptingClassesv
iuj:__ZL25UnresolvedVirtualCall_229P12Il2CppObjectPK10MethodInfo
X7b:__ZN13ProbeRenderer8ConvolveEbijjb
Ljj:_GUIUtility_set_systemCopyBuffer_m608712289
gQb:__ZN17GenericDynamicVBOC2ER9GfxDevice13GfxBufferModejj
mLc:__ZZN10GUIManager14InitGUIManagerEvEN41PreUpdateIMGUISendQueuedEventsRegistrator7ForwardEv
wqg:_ServicePointManager_get_SecurityProtocol_m966397919
RMg:_CCGregorianCalendar_day_from_fixed_m1674702403
lZ:__ZN11UnityEngine15CloudWebService17SessionEventQueue10PurgeItemsEj
A8b:__ZN6Camera16StandaloneRenderENS_10RenderFlagEP6ShaderRKN4core12basic_stringIcNS3_20StringStorageDefaultIcEEEE
Zsg:_X509Chain_PrepareForNextCertificate_m3691934993
nwa:__ZN16LevelGameManager23VirtualRedirectTransferER24GenerateTypeTreeTransfer
Qyb:__Z18Transfer_BlittableI18StreamedBinaryReadILb1EELb1EtEvRK29SerializationCommandArgumentsR31RuntimeSerializationCommandInfo
awe:__ZL58EventType_t3528516131_CustomAttributesCacheGenerator_keyUpP21CustomAttributesCache
p7d:__ZL57X509Certificate_t713131622_CustomAttributesCacheGeneratorP21CustomAttributesCache
bYa:__ZN12BoneWeights48TransferI19StreamedBinaryWriteILb0EEEEvRT_
vib:__ZN9GfxDevice20DeallocRenderSurfaceEP17RenderSurfaceBase
Qhf:_ValueCollection_System_Collections_Generic_ICollectionU3CTValueU3E_get_IsReadOnly_m1110422367_gshared
zmb:__ZN20GpuProgramParameters36UpdatePrepareValuesMaximumBufferSizeEv
vpj:_AudioSourceExtension_Stop_m387892536
GWi:_List_1_System_Collections_IEnumerable_GetEnumerator_m1355413981_gshared
fnh:_SimpleCollator_GetContraction_m2205549079
cNf:_Vector3__ctor_m1719387948_AdjustorThunk
J_h:_ReadOnlyCollection_1_System_Collections_IList_get_IsReadOnly_m3888539454_gshared
Sca:__ZN13RuntimeStaticI10WatermarksLb0EE13StaticDestroyEPv
o2f:_ARC4Managed_GenerateKey_m1607343060
Zkh:_Array_InternalArray__ICollection_CopyTo_TisDecimal_t2948259380_m2749946216_gshared
Bag:_ReceiveRecordAsyncResult_get_ResultingBuffer_m1839161335
X3a:__ZN30RuntimeInitializeOnLoadManager23VirtualRedirectTransferER14SafeBinaryRead
uUd:_EnvoyInfo__ctor_m276600651
vYc:__ZN20TextRenderingPrivate8FontImpl13CharacterInfo8TransferI18StreamedBinaryReadILb0EEEEvRT_
$vb:__Z29Transfer_Blittable_ArrayFieldI24GenerateTypeTreeTransferfEvRT_R9ArrayInfoRK23StaticTransferFieldInfo
i9d:__ZL113SecurityException_t975544473_CustomAttributesCacheGenerator_SecurityException_t975544473____Demanded_PropertyInfoP21CustomAttributesCache
Qyf:_UnityEvent_FindMethod_Impl_m2312362624
bac:__ZN19CustomRenderTexture9AddParentE4PPtrIS_E
Qqb:__ZN8Gradient8TransferI14SafeBinaryReadEEvRT_
zuf:_Vector3_GetHashCode_m2879461828
Ucj:_Parser_ParseSpecial_m1961501104
Zhg:_Single_System_IConvertible_ToUInt64_m3299129161_AdjustorThunk
XMa:__ZNSt3__26vectorIN4core12basic_stringIcNS1_20StringStorageDefaultIcEEEE13stl_allocatorIS5_L18MemLabelIdentifier1ELi16EEE7reserveEj
$ye:__ZL93CanvasRenderer_t2598313366_CustomAttributesCacheGenerator_CanvasRenderer_set_cull_m4222419074P21CustomAttributesCache
hOh:_TimerCallback_BeginInvoke_m2250763656
LZc:__ZN20TextRenderingPrivate15DynamicFontData36GetFaceForCharacterIfAvailableInFontERKNS_7FontRefERK13dynamic_arrayI4PPtrIN13TextRendering4FontEELj0EEj
xhf:_ValueCollection_System_Collections_Generic_ICollectionU3CTValueU3E_Contains_m3110959791_gshared
bqg:_IPv6Address_AsIPv4Int_m844941024
Soc:__Z43PlayerConnectionInternal_CUSTOM_IsConnectedv
YPe:_Random__ctor_m3209279193
$9f:_RecordProtocol__cctor_m1280873827
cCf:_Matrix4x4_MultiplyPoint_m1575665487_AdjustorThunk
EQd:_Marshal__cctor_m4007734770
tfk:_GC_new_free_list_inner
$sh:_SymmetricTransform_Random_m2004892672
Zpi:__Z79RuntimeInvoker_Void_t1185182177_RuntimeObject_Byte_t1134296376_Byte_t1134296376PFvvEPK10MethodInfoPvPS4_
B3f:_EncryptedPrivateKeyInfo_get_IterationCount_m2912222740
_ek:_GC_err_printf
Yrd:__ZN9Scripting11UnityEngine2XR13InputTracking12CleanupProxyEv
_3f:_RSAManaged_DecryptValue_m1804388365
rYe:_InternalEnumerator_1_System_Collections_IEnumerator_get_Current_m2980550840_AdjustorThunk
qH:__ZN25RuntimeAnimatorController8TransferI14SafeBinaryReadEEvRT_
LRc:__ZN8JSONRead8TransferI10RectOffsetEEvRT_PKc17TransferMetaFlagsb
v4j:__ZNK15dense_hashtableINSt3__24pairIK10KeyWrapperINS1_IPKcS4_EEEiEES6_24NamespaceAndNamePairHashN14dense_hash_mapIS6_iS9_NS6_14EqualsComparerI26NamespaceAndNamePairEqualsEENS0_9allocatorIS8_EEE9SelectKeyESD_SF_E12test_deletedERK24dense_hashtable_iteratorIS8_S6_S9_SH_SD_SF_E
WY:__ZN9JSONWrite8TransferIN11UnityEngine15CloudWebService14DataErrorEvent15FileErrorDetailEEEvRT_PKc17TransferMetaFlags
$0i:_Collection_1_ClearItems_m2728738230_gshared
zTg:_Int32_Parse_m2087562008
wxa:__Z21ClearFenceWithoutSyncR8JobFence
S2e:_InternalEnumerator_1_Dispose_m630370856_AdjustorThunk
lNd:_MonoProperty_GetAccessors_m412928203
Hci:_TweenRunner_1_Start_m3757154622_gshared
LN:__ZN12SoundManager20RegisterModifiedClipEP10SampleClip
kkf:_RemotingServices_GetClientChannelSinkChain_m1499550585
uQe:_Assembly_FillName_m1660001542
Y4d:__ZL56_EventBuilder_t2558055199_CustomAttributesCacheGeneratorP21CustomAttributesCache
WXf:_ScrollRect_get_decelerationRate_m74583805
kdg:_SHA384Managed_processBlock_m1272529332
yQ:__ZN11AudioSource4PlayEd
eHg:_Char_ToString_m278452217_AdjustorThunk
SFj:__ZN15dense_hashtableI10KeyWrapperIPK17Il2CppGenericInstES4_N6il2cpp8metadata21Il2CppGenericInstHashEN14dense_hash_setIS4_S7_NS4_14EqualsComparerINS6_24Il2CppGenericInstCompareEEENSt3__29allocatorIS4_EEE8IdentityESB_SE_E13set_empty_keyERKS4_
_ei:__Z63RuntimeInvoker_Char_t3634460470_Int16_t2552820387_RuntimeObjectPFvvEPK10MethodInfoPvPS4_
_2g:_Convert_ToDouble_m2924063577
zcb:__ZNK20LocalFileSystemPosix8IsHiddenERK13FileEntryData
rba:__Z17GetCoreModuleSpecv
QFh:_Enumerator_System_Collections_IEnumerator_get_Current_m3594024719_gshared
e6e:_InternalEnumerator_1_System_Collections_IEnumerator_Reset_m1601477281_AdjustorThunk
cWd:_MethodCall_Init_m86192062
Xye:__ZL113CanvasRenderer_t2598313366_CustomAttributesCacheGenerator_CanvasRenderer_SplitUIVertexStreamsInternal_m3280623346P21CustomAttributesCache
YQa:__ZN7Cubemap23VirtualRedirectTransferER18StreamedBinaryReadILb0EE
kcf:_Enumerator_MoveNext_m76191888_AdjustorThunk
K5e:_InternalEnumerator_1__ctor_m1739091604_gshared
Vqc:__ZNSt3__27__sort4IRNS_6__lessI11KeyframeTplIfES3_EEPS3_EEjT0_S7_S7_S7_T_
g7c:_Read_CVT
nQ:__ZN11AudioSource23VirtualRedirectTransferER19StreamedBinaryWriteILb0EE
Reb:__ZN12FileAccessor4SeekEx10FileOrigin
bt:__ZN9Scripting11UnityEngine25RuntimeAnimatorController12CleanupProxyEv
Oub:__ZL26Transfer_SimpleNativeClassI24GenerateTypeTreeTransfer17AnimationCurveTplIfELb0EEvRK29SerializationCommandArgumentsR31RuntimeSerializationCommandInfo
p2g:_Convert_ToDecimal_m1783778724
Hdf:_ShimEnumerator_get_Value_m153531060_gshared
kNg:_DateTimeFormatInfo__ctor_m3106345035
V6f:_TlsServerKeyExchange_verifySignature_m3412856769
gyh:_EqualityComparer_1_System_Collections_IEqualityComparer_GetHashCode_m4137147946_gshared
M0i:_Collection_1_System_Collections_ICollection_CopyTo_m5285659_gshared
Wca:__ZN16LightmapSettings20DidChangeActiveSceneEP10UnitySceneS1_
pwb:__Z18Transfer_BlittableI19StreamedBinaryWriteILb0EELb0EN4math12int3_storageEEvRK29SerializationCommandArgumentsR31RuntimeSerializationCommandInfo
SIe:__ZL59g_AssemblyU2DCSharp_Assembly_CustomAttributesCacheGeneratorP21CustomAttributesCache
DNj:__ZN6il2cpp5utils9PathUtils8BasenameIcEENSt3__212basic_stringIT_NS3_11char_traitsIS5_EENS3_9allocatorIS5_EEEERKSA_
LP:__ZN10AudioMixer11SetupGroupsEv
Gt:__ZN9Scripting11UnityEngine10Animations21AnimationClipPlayable9InitProxyEv
pJc:__Z35Register_UnityEngine_Event_get_typev
yna:__ZN9Scripting11UnityEngine9Rendering18GraphicsDeviceType12CleanupProxyEv
d1j:__ZN6il2cpp2vm9Exception23GetInvalidCastExceptionERKNS_5utils10StringViewIDsEE
AEe:__ZL64Scrollbar_t1494447233_CustomAttributesCacheGenerator_m_DirectionP21CustomAttributesCache
$uk:_emscripten_glDepthRange__wrapper
wB:__ZN8Animator28BuildControllerPlayableCacheEv
V5d:__ZL48Header_t549724581_CustomAttributesCacheGeneratorP21CustomAttributesCache
Nui:__Z36RuntimeInvoker_EventType_t3528516131PFvvEPK10MethodInfoPvPS4_
z6:__Z63ThreadAndSerializationSafeCheckGetMonoBehaviourBeingTransferredv
Doa:__ZN9Scripting11UnityEngine12LightmapData9InitProxyEv
ePi:_List_1_set_Item_m4224739467_gshared
chi:__Z74RuntimeInvoker_Int32_t2950945753_RuntimeObject_RuntimeObject_RuntimeObjectPFvvEPK10MethodInfoPvPS4_
ESe:_ConstructorBuilder_get_Name_m2426555260
zrc:__Z37Register_UnityEngine_Input_GetAxisRawv
Hee:__ZL80ModulusRing_t596511505_CustomAttributesCacheGenerator_ModulusRing_Pow_m729002192P21CustomAttributesCache
Vmd:__ZN11UnityEngine7Connect13ConfigHandler13ConfigChangedERKN4core12basic_stringIcNS2_20StringStorageDefaultIcEEEEbbi
Vcj:_Parser_ParseCharacterClass_m4285351396
s4g:_Convert_ToSByte_m2653418303
G_g:_SyncHashtable__ctor_m2449935938
KUc:__ZN17CallbackArrayBaseIPFvRKN4core12basic_stringIcNS0_20StringStorageDefaultIcEEEER8JSONReadbEPFvPKvS6_S8_bEE8RegisterESA_SE_SC_
lQ:__ZN11AudioSource5ResetEv
wcg:_RSAPKCS1SignatureFormatter_SetKey_m2935054088
lZb:__ZN12ImageFilters27SetSurfaceUseResolvedBufferEP13RenderTextureb
Qnb:__ZN14SafeBinaryRead21TransferSTLStyleArrayI10vector_setI4PPtrI10MonoScriptENSt3__24lessIS4_EE13stl_allocatorIS4_L18MemLabelIdentifier79ELi16EEEEEvRT_17TransferMetaFlags
COa:__ZN14Texture2DArray23VirtualRedirectTransferER18StreamedBinaryReadILb0EE
xLh:_UTF7Encoding_GetByteCount_m209415911
M9a:__ZN2UI13RectTransform13AwakeFromLoadE17AwakeFromLoadMode
Bfj:_RegularExpression_Compile_m2385682508
uJf:_ResourceRequest_t3109103591_marshal_pinvoke_back
H2b:__ZN14qsort_internal30FindAndMovePivotToLastPositionIP20ShadowCasterSortDatai26ShadowCasterSortDataSorterEEvT_S4_T0_T1_
y6d:__ZL60IRemotingTypeInfo_t2222593263_CustomAttributesCacheGeneratorP21CustomAttributesCache
job:__Z18Transfer_BlittableI14SafeBinaryReadLb1EiEvRK29SerializationCommandArgumentsR31RuntimeSerializationCommandInfo
dtg:_X509ExtensionEnumerator_get_Current_m256207749
dQf:_InputField_MoveTextStart_m1087475594
e8h:_Predicate_1__ctor_m3829092036_gshared
Gye:__ZL97CanvasGroup_t4083511760_CustomAttributesCacheGenerator_CanvasGroup_get_blocksRaycasts_m1805542303P21CustomAttributesCache
_Lg:_EventArgs__cctor_m1889823314
kDg:_Array_Sort_m182264525
vSf:_LayoutGroup_set_padding_m282562135
BZi:_Collection_1_System_Collections_IList_get_IsReadOnly_m773226719_gshared
mRe:_Default_IsArrayAssignable_m953489228
dG:__ZNK4PPtrI8RendererEcvPS0_Ev
IXj:_il2cpp_field_get_offset
cSh:_UInt16_ToString_m355311020_AdjustorThunk
Ysf:_RC2__ctor_m1146135664
o9h:_InvokableCall_1_remove_Delegate_m667188944_gshared
oUd:_SynchronizedClientContextSink__ctor_m4129963630
Fk:_glGetStringi
Hlg:_DecoderExceptionFallback_CreateFallbackBuffer_m1133375601
K5j:__ZNK15dense_hashtableI10KeyWrapperIP18Il2CppGenericClassES3_N6il2cpp8metadata22Il2CppGenericClassHashEN14dense_hash_setIS3_S6_NS3_14EqualsComparerINS5_25Il2CppGenericClassCompareEEENSt3__29allocatorIS3_EEE8IdentityESA_SD_E10test_emptyERK30dense_hashtable_const_iteratorIS3_S3_S6_SF_SA_SD_E
Kaf:_Enumerator_get_CurrentKey_m889650866_gshared
m9e:_Comparer_1_get_Default_m1513846993_gshared
Buj:__ZL25UnresolvedVirtualCall_248P12Il2CppObjecti25RaycastResult_t3360306849PK10MethodInfo
qth:_EncryptedData_get_EncryptionAlgorithm_m1297902161
$nf:_SerializationEntry__ctor_m1411687997_AdjustorThunk
sD:__ZN8Animator9WriteStepEy
rza:__ZN9Coroutine16SetCurrentMethodE18ScriptingMethodPtr
baf:_Enumerator_VerifyCurrent_m829026141_gshared
aAc:__ZN16PropertyAccessorC2Ev
mzb:__Z35Transfer_Blittable_FixedBufferFieldI18StreamedBinaryReadILb1EEaEvRK29SerializationCommandArgumentsR31RuntimeSerializationCommandInfo
zEe:__ZL65Scrollbar_t1494447233_CustomAttributesCacheGenerator_m_HandleRectP21CustomAttributesCache
RYa:__ZN13ScreenManager16SetScreenTimeoutEi
ptb:__Z18Transfer_BlittableI17RemapPPtrTransferLb0EdEvRK29SerializationCommandArgumentsR31RuntimeSerializationCommandInfo
yke:__ZL104MonoBehaviour_t3962482529_CustomAttributesCacheGenerator_MonoBehaviour_IsObjectMonoBehaviour_m2134950949P21CustomAttributesCache
D_i:_Collection_1_ConvertItem_m1743542180_gshared
kad:__Z38Register_UnityEngine_Font_HasCharacterv
KEi:__Z68RuntimeInvoker_Boolean_t97287965_Int16_t2552820387_Int16_t2552820387PFvvEPK10MethodInfoPvPS4_
W6b:__Z35IntersectSpherePlaneBoundsOptimizedRKN4math7_float4EPS1_i
Dbg:_RNGCryptoServiceProvider__cctor_m3587754670
S0e:_InternalEnumerator_1_MoveNext_m1728532725_AdjustorThunk
Vaa:__ZN17TransformInternal21DetachTransformThreadER18TransformHierarchyjj
Q9i:_X509Crl_get_IssuerName_m1792797338
gOi:_List_1_get_Count_m241572196_gshared
h8j:__ZN6il2cpp2os5posix15PosixWaitObject13InterruptWaitEv
Bca:__Z22CleanupLODGroupManagerPv
lJc:__Z21Event_CUSTOM_PopEventP12Il2CppObject
ol:_glUniform3fv
qlk:__ZNK6il2cpp8metadata24Il2CppGenericInstCompareclERK10KeyWrapperIPK17Il2CppGenericInstES8_
ytg:_X509ChainElement_Set_m655180762
iAj:_CustomEventData_AddInt32_m548429697
wGf:_Quaternion_GetHashCode_m2636680144
j1b:__ZNK16LightmapSettings31GetRealtimeLightmapDecodeValuesEv
uP:__ZN5audio5mixer12SetSuspendedERNS0_16AudioMixerMemoryEb
W8a:__ZN17PersistentManager21UnloadNonDirtyStreamsEv
JKh:_UnicodeDecoder__ctor_m3606046165
bmi:__Z96RuntimeInvoker_Int32_t2950945753_RuntimeObject_Int32_t2950945753_RuntimeObject_Int32_t2950945753PFvvEPK10MethodInfoPvPS4_
tlj:_AnalyticsEventTracker_OnEnable_m1121905268
agj:_Uri_get_Parser_m3737125102
jxj:_Canvas_get_overrideSorting_m2740418462
axf:_Debug_LogFormat_m309087137
tFg:_Byte_System_IConvertible_ToInt16_m4136764794_AdjustorThunk
SZa:__ZN12ImageFilters4BlitER17ShaderPassContextP7TextureP13RenderTextureiPK18SharedMaterialDataPKcP6ShaderiNS_9BlitFlagsE11CubemapFaceRK8Vector2fSH_
Mjg:_String_LastIndexOf_m3451222878
Saj:_Mark_get_Index_m3048692661
YFe:__ZL69CanvasScaler_t2767979955_CustomAttributesCacheGenerator_m_ScaleFactorP21CustomAttributesCache
Fne:__ZL134ISerializationCallbackReceiver_t2363941153_CustomAttributesCacheGenerator_ISerializationCallbackReceiver_OnAfterDeserialize_m735003409P21CustomAttributesCache
vZ:__ZN11UnityEngine15CloudWebService10RestClientINS0_23WebRequestRestHeaderMapEED2Ev
t6h:_U3CCreateWhereIteratorU3Ec__Iterator1D_1__ctor_m1723214851_gshared
Ll:_emscripten_glDepthMask
nlf:_RemotingServices_CreateClientProxy_m3886727610
iSa:__ZN4crnd25static_huffman_data_model22prepare_decoder_tablesEv
USa:__ZN9Texture2D23VirtualRedirectTransferER17RemapPPtrTransfer
eag:_RecordProtocol_GetMessage_m2086135164
yBb:__Z18Transfer_BlittableI18StreamedBinaryReadILb0EELb0E10ColorRGBAfEvRK29SerializationCommandArgumentsR31RuntimeSerializationCommandInfo
$ca:__Znaj
xBk:_emscripten_glEnableClientState__wrapper
Tpd:__ZN20UnityWebRequestProtoI24UnityWebRequestTransport16AtomicRefCounter14RedirectHelper14ResponseHelper15DownloadHandler13UploadHandler18CertificateHandler12HeaderHelper14AsyncOperationE26Job_ExecuteUnityWebRequestEPS9_
D2:__ZN17MessageIdentifierC2EPKcNS_7OptionsEPKN5Unity4TypeES1_
bfi:__Z45RuntimeInvoker_Void_t1185182177_RuntimeObjectPFvvEPK10MethodInfoPvPS4_
TCf:_Mesh_SetTriangles_m1523451247
Ohg:_Single_System_IConvertible_ToSByte_m1208276900
MHi:_Array_InternalArray__set_Item_TisVector4_t3319028937_m757305038_gshared
Vva:__ZN11GameManager15ThreadedCleanupEv
qtc:__ZNSt3__26__treeIPc15compare_tstringIPKcENS_9allocatorIS1_EEE25__emplace_unique_key_argsIS1_JS1_EEENS_4pairINS_15__tree_iteratorIS1_PNS_11__tree_nodeIS1_PvEEiEEbEERKT_DpOT0_
uki:__Z105RuntimeInvoker_Void_t1185182177_RuntimeObject_RuntimeObject_RuntimeObject_RuntimeObject_Int32_t2950945753PFvvEPK10MethodInfoPvPS4_
hhf:_ValueCollection_System_Collections_Generic_ICollectionU3CTValueU3E_Add_m3298059628_gshared
wfi:__Z64RuntimeInvoker_RuntimeObject_Int16_t2552820387_Int16_t2552820387PFvvEPK10MethodInfoPvPS4_
RU:__Z55Register_UnityEngine_AudioSource_get_spatializeInternalv
NIe:__ZL71TrackableTrigger_t621205209_CustomAttributesCacheGenerator_m_MethodPathP21CustomAttributesCache
iK:__ZN14SafeBinaryRead8TransferI14ConstantStringEEvRT_PKc17TransferMetaFlags
dpg:__ZN28GenericInterfaceFuncInvoker3IbP26X509Certificate_t713131622P20X509Chain_t194917408iE6InvokeEPK10MethodInfoP12Il2CppObjectS1_S3_i
oXb:__ZNK6Camera16GetStereoEnabledEv
GVa:__ZN16LightmapSettings16CheckConsistencyEv
dpi:__Z72RuntimeInvoker_Int32_t2950945753_TimeSpan_t881159249_TimeSpan_t881159249PFvvEPK10MethodInfoPvPS4_
Fag:_SendRecordAsyncResult_SetComplete_m153213906
JVa:__ZN16LightmapSettings23VirtualRedirectTransferER19StreamedBinaryWriteILb0EE
vwc:__ZN12LightManager15InitializeClassEv
lOh:_WaitHandle__cctor_m4242752477
ILa:__ZN9ShaderLab11shaderprops16GetComputeBufferEPK19ShaderPropertySheetS3_NS_16FastPropertyNameE
qdk:__ZN6il2cpp6icalls8mscorlib6System10Reflection10MethodBase31GetMethodFromHandleInternalTypeEii
u8:__ZN23ManagedAttributeManager35CallManagedGetDefaultExecutionOrderE17ScriptingClassPtr
N5:__ZN18ScriptingArgumentsC2Ev
Vuf:_Vector3_op_Equality_m4231250055
Jki:__Z46RuntimeInvoker_ParameterAttributes_t1826424051PFvvEPK10MethodInfoPvPS4_
Uwk:_emscripten_glBlendFuncSeparate__wrapper
czf:_PlayerLoopSystem_t105772105_marshal_pinvoke_back
dWa:__ZN15SerializeTraitsI13dynamic_arrayI7Hash128Lj0EEE19ResizeSTLStyleArrayERS2_i
zwe:__ZL68GUISettings_t1774757634_CustomAttributesCacheGenerator_m_CursorColorP21CustomAttributesCache
DWg:_FileSystemInfo__ctor_m3769019897
yMi:_Array_InternalArray__get_Item_TisContentType_t1787303396_m421427711_gshared
zHf:_Rect_get_xMin_m581135837_AdjustorThunk
NYb:__ZNK25CameraStackRenderingState27GetStereoImageEffectTextureEb
qsf:_HMACSHA384__ctor_m1677515580
q4i:_RIPEMD160Managed_J_m1336489154
WHc:__ZL52__ManagedRegistrationHelperFunction_PlayableDirectorPv
Hxe:__ZL102GUIUtility_t1868551600_CustomAttributesCacheGenerator_GUIUtility_Internal_GetPixelsPerPoint_m290411053P21CustomAttributesCache
uKj:__ZN6il2cpp6icalls6System6System3Net7Sockets6Socket7ReceiveEiP11Il2CppArrayiiNS4_11SocketFlagsEPi
to:FUNCTION_TABLE_ii
Nva:__ZN10TagManager8TransferI18StreamedBinaryReadILb0EEEEvRT_
F1i:_Collection_1_System_Collections_IList_get_IsReadOnly_m2202364665_gshared
kOc:__Z18Transfer_BlittableI9JSONWriteLb0E8BitFieldEvRK29SerializationCommandArgumentsR31RuntimeSerializationCommandInfo
JYg:_MemoryStream_set_Capacity_m1773624579
OZj:__ZNK15dense_hashtableINSt3__24pairIK10KeyWrapperINS1_IP11Il2CppClassjEEES4_EES6_N6il2cpp8metadata14ArrayClassHashEN14dense_hash_mapIS6_S4_SB_NS6_14EqualsComparerINSA_17ArrayClassCompareEEENS0_9allocatorIS8_EEE9SelectKeyESF_SH_E10test_emptyEj
c$f:_SpriteState_set_pressedSprite_m3368686500_AdjustorThunk
wfc:__ZNSt3__26vectorIN9ShaderLab20SerializedSubProgram15StructParameterENS_9allocatorIS3_EEE8__appendEj
rb:invoke_diiii
Dvk:b47
$lj:_EventTrigger_set_initTime_m3128947762
ks:__ZL57__ManagedRegistrationHelperFunction_AnimationClipPlayablePv
iri:__Z95RuntimeInvoker_Void_t1185182177_RuntimeObject_RuntimeObject_SByte_t1669577662_SByte_t1669577662PFvvEPK10MethodInfoPvPS4_
Ecc:__Z24CreateDirectoryRecursiveRKN4core12basic_stringIcNS_20StringStorageDefaultIcEEEE
rvk:b41
Khc:__ZN9ShaderLab20SerializedSubProgram8TransferI18StreamedBinaryReadILb0EEEEvRT_
ubg:_SslClientStream_get_HaveRemoteValidation2Callback_m2858953511
ovk:b40
Cga:__ZN19ThreadSpecificValueIP14StackAllocatorE15ReinitializeTLSEPv
pQ:__ZN11AudioSource23VirtualRedirectTransferER17RemapPPtrTransfer
jie:__ZL54ContextMenu_t1295656858_CustomAttributesCacheGeneratorP21CustomAttributesCache
f4:__ZN13RuntimeStaticI21ScalableBufferManagerLb0EE13StaticDestroyEPv
Qcd:__ZN2UI13CanvasManager9AddCanvasEPNS_6CanvasE
IZa:__ZN9Texture3D8TransferI19StreamedBinaryWriteILb0EEEEvRT_
VZb:__ZNK6Camera22CalculateRenderingPathEv
svk:b42
FPc:__ZN9JSONWrite8TransferI5RectTIfEEEvRT_PKc17TransferMetaFlags
bBg:_Hashtable_TestPrime_m3839319309
eF:__ZN11UnityEngine9Animation37SetGenericRootTransformPropertyValuesERKNS0_30AnimatorGenericBindingConstantERKN7mecanim10ValueArrayER9Transformbb
LRb:__Z13ConvertMipmap14GraphicsFormatPKvS_Pviiii
hWa:__ZN28EnlightenRendererInformation8TransferI14SafeBinaryReadEEvRT_
RJ:__ZN9Scripting11UnityEngine2XR5Tango24MeshReconstructionServer9InitProxyEv
Dyg:_PKCS12_get_IterationCount_m626423090
utb:__ZL12InvokeMethodI17RemapPPtrTransferEvRK29SerializationCommandArgumentsR31RuntimeSerializationCommandInfo
$og:_RemoteCertificateValidationCallback_Invoke_m3086073466
clg:_StringComparer_Compare_m991165676
U4c:_tt_sbit_decoder_load_image
UZe:_InternalEnumerator_1_MoveNext_m3299696349_AdjustorThunk
$Ja:__Z14IsHalfRTFormat19RenderTextureFormat
VUi:_List_1_System_Collections_ICollection_get_IsSynchronized_m1552759297_gshared
u_j:__ZN15dense_hashtableINSt3__24pairIK10KeyWrapperIP11Il2CppClassES4_EES5_N6il2cpp8metadata16SZArrayClassHashEN14dense_hash_mapIS5_S4_SA_NS5_14EqualsComparerINS9_19SZArrayClassCompareEEENS0_9allocatorIS7_EEE9SelectKeyESE_SG_EC2EjRKSA_RKSE_RKSI_
vRg:_Guid_ToString_m3279186591
tci:_U3CStartU3Ec__Iterator0_Dispose_m261027331_gshared
jVi:_List_1_Find_m3485944732_gshared
wLc:__ZNSt3__24listIN10GUIManager12SortedScriptE11memory_poolIS2_EE6__sortI13OldSortScriptEENS_15__list_iteratorIS2_PvEESA_SA_jRT_
sAh:_EqualityComparer_1_System_Collections_IEqualityComparer_GetHashCode_m2588073987_gshared
x1i:_Collection_1_System_Collections_IList_Add_m3364892189_gshared
APi:_List_1_AddEnumerable_m3500350831_gshared
_Ij:__ZN24dense_hashtable_iteratorINSt3__24pairIK10KeyWrapperIPK11Il2CppClassEPKcEES6_N6il2cpp5utils11PointerHashIS3_EEN14dense_hash_mapIS6_S9_SE_NS6_14EqualsComparerINS0_8equal_toIS5_EEEENS0_9allocatorISA_EEE9SelectKeyESJ_SL_E30advance_past_empty_and_deletedEv
TBe:__ZL108U3CStartU3Ec__Iterator0_t1249263001_CustomAttributesCacheGenerator_U3CStartU3Ec__Iterator0_Reset_m3373856720P21CustomAttributesCache
F3f:_PrivateKeyInfo_get_PrivateKey_m3647771102
Zsb:__Z18Transfer_BlittableI17RemapPPtrTransferLb1E8BitFieldEvRK29SerializationCommandArgumentsR31RuntimeSerializationCommandInfo
T$j:__ZN6il2cpp6icalls8mscorlib6System9ThreadingL11ThreadStartEPv
qfa:__ZN15DirectorManager12OnSampleTimeEv
ENd:__ZN28GenericInterfaceFuncInvoker1IP12Il2CppObjectS1_E6InvokeEPK10MethodInfoS1_S1_
bJd:_TypeBuilder_check_not_created_m3652863637
Yxd:_StandaloneInputModule_UpdateModule_m450861257
uqe:__ZL117SupportedRenderingFeatures_t353898663_CustomAttributesCacheGenerator_U3CreflectionProbeSupportFlagsU3Ek__BackingFieldP21CustomAttributesCache
n3h:_ReadOnlyCollection_1_System_Collections_IList_Insert_m2928873627_gshared
KP:__ZNK4PPtrI10AudioMixerEptEv
Kzh:_EqualityComparer_1__cctor_m314889309_gshared
bta:__ZN12CachedReader10Align4ReadEv
Zwh:_DefaultComparer_GetHashCode_m556015105_gshared
C8i:_X501__cctor_m2428304915
ixj:_Canvas_get_renderOrder_m1489855841
ile:__ZL66DispatchEventQueueEvents_t929081739_CustomAttributesCacheGeneratorP21CustomAttributesCache
Vfi:__Z50RuntimeInvoker_Void_t1185182177_Single_t1397266774PFvvEPK10MethodInfoPvPS4_
Qze:__ZL77ExecuteEvents_t3484638744_CustomAttributesCacheGenerator_U3CU3Ef__mgU24cache1P21CustomAttributesCache
cyg:_X501_ToString_m4186311521
qhj:_Event_ToString_m1688862299
eqi:__Z70RuntimeInvoker_Boolean_t97287965_RuntimeObject_IPAddressU26_t589322682PFvvEPK10MethodInfoPvPS4_
dvi:__Z105RuntimeInvoker_Void_t1185182177_Vector2U26_t2376273893_RuntimeObject_RuntimeObject_Vector2U26_t2376273893PFvvEPK10MethodInfoPvPS4_
Mta:__ZNK9Behaviour22GetTypeVirtualInternalEv
fxf:_Debug_LogErrorFormat_m575266265
QMg:_CCGregorianCalendar_month_from_fixed_m4268992710
Hhh:_Array_compare_TisUICharInfo_t75501106_m1310495481_gshared
Tuc:__ZNK28MonoBehaviourPropertyBinding12SetPPtrValueERKN11UnityEngine9Animation10BoundCurveEi
Q7b:__Z21GetScriptingArraySize17ScriptingArrayPtr
TXc:__ZN20TextRenderingPrivate8FontImpl8TransferI14SafeBinaryReadEEvRT_
ula:__ZL51__ManagedRegistrationHelperFunction_HideInInspectorPv
oue:__ZL82AnimatorTransitionInfo_t2534804151_CustomAttributesCacheGenerator_m_NormalizedTimeP21CustomAttributesCache
K0d:__ZL55ISymbolWriter_t780458634_CustomAttributesCacheGeneratorP21CustomAttributesCache
SLc:__ZN11IMGUIModule21ClearDeveloperConsoleEv
lqe:__ZL81MessageTypeSubscribers_t1684935770_CustomAttributesCacheGenerator_m_messageTypeIdP21CustomAttributesCache
A1h:_ReadOnlyCollection_1_System_Collections_IList_Clear_m4022532825_gshared
Dkg:_Encoding_get_ASCII_m3595602635
OGf:_Ray_get_direction_m761601601_AdjustorThunk
fjb:__ZN9GfxDevice17ImmediateTexCoordEifff
q9c:_ft_black_new
yTe:_DerivedType_GetCustomAttributes_m3536779709
nrj:__ZL24UnresolvedVirtualCall_72P12Il2CppObjectPK10MethodInfo
hae:__ZL93Interlocked_t2273387594_CustomAttributesCacheGenerator_Interlocked_CompareExchange_m388540288P21CustomAttributesCache
jJd:_MethodBase_get_IsAbstract_m428833029
BDg:_AssemblyLoadEventHandler__ctor_m896828968
Nr:__ZN13ConstraintJob23ConstraintComponentDataC2ERK18PositionConstraint
BDb:__ZNSt3__26vectorINS_4pairI17ScriptingClassPtrPKN5Unity4TypeEEENS_9allocatorIS7_EEE21__push_back_slow_pathIS7_EEvOT_
Ruk:_emscripten_glUniform4f__wrapper
XOi:_List_1_Reverse_m4144036584_gshared
fGh:_Enumerator_MoveNext_m2595190390_AdjustorThunk
djh:_Array_InternalArray__IndexOf_TisColor32_t2600501292_m3783551884_gshared
Y$b:__ZNK6Camera16GetProjectionFarEv
gr:__Z24InverseTransformRotationRK23TransformAccessReadOnlyRKN4math7_float4E
EUc:__ZN11UnityEngine9Analytics16StartupTimeEvent23SetSplashScreenTimeInfoEyyy
C9i:_X509Chain_Build_m2469702749
Rfg:_Evidence_get_IsSynchronized_m3446368195
sQ:__ZN11AudioSource6UpdateEv
ipd:__Z31GetPerformanceReportingSettingsv
eOa:__ZNK14PlayableOutput11DerivesFromE17ScriptingClassPtr
jQa:__ZN7Texture34CreateFileTextureUploadInstructionE18TextureUploadFlagsj
eUd:__ZN25GenericVirtActionInvoker06InvokeEPK10MethodInfoP12Il2CppObject
xXd:__ZL64SerializableAttribute_t1992588303_CustomAttributesCacheGeneratorP21CustomAttributesCache
yfb:__ZN25SingleBlockMemoryFileDataC2E10MemLabelIdPvjb
Gwe:__ZL59GUISkin_t1244372282_CustomAttributesCacheGenerator_m_toggleP21CustomAttributesCache
Eyc:__ZN19LowerResBlitTexture13ApplySettingsEv
gG:__ZN8Animator8TransferI14SafeBinaryReadEEvRT_
e_j:__ZN15dense_hashtableINSt3__24pairIK10KeyWrapperIP11Il2CppClassES4_EES5_N6il2cpp8metadata16SZArrayClassHashEN14dense_hash_mapIS5_S4_SA_NS5_14EqualsComparerINS9_19SZArrayClassCompareEEENS0_9allocatorIS7_EEE9SelectKeyESE_SG_E4swapERSJ_
bwa:__ZN17GlobalGameManager23VirtualRedirectTransferER18StreamedBinaryReadILb0EE
vZg:_NullStream_SetLength_m1485742029
saa:__Z23AsyncReadForceCloseFileRKN4core12basic_stringIcNS_20StringStorageDefaultIcEEEE
tqe:__ZL120RenderPipelineManager_t4036911426_CustomAttributesCacheGenerator_RenderPipelineManager_DoRenderLoop_Internal_m3799666479P21CustomAttributesCache
gW:__ZN16BaseVideoTexture19UpdateVideoTexturesEv
kMd:_MonoField_GetValue_m3124733531
Wgh:_Array_InternalArray__IEnumerable_GetEnumerator_TisOrderBlock_t1585977831_m2414028303_gshared
v7a:__ZNK16LightmapSettings23HasLightProbeTetrahedraEv
NWa:__ZN6Sprite23VirtualRedirectTransferER19StreamedBinaryWriteILb0EE
Nch:_Enum_GetHashCode_m2848082716
Rlc:__ZN2UI13RectTransform12SetAnchorMaxERK8Vector2f
_Zj:__ZN14dense_hash_mapI10KeyWrapperIP11Il2CppClassES2_N6il2cpp8metadata16SZArrayClassHashENS3_14EqualsComparerINS5_19SZArrayClassCompareEEENSt3__29allocatorINSA_4pairIKS3_S2_EEEEE13set_empty_keyERSD_
Lud:_EventTrigger_Execute_m2453060771
C4h:_Comparison_1_Invoke_m517083441_gshared
Agh:_Array_InternalArray__IEnumerable_GetEnumerator_TisIntPtr_t_m2620447453_gshared
CPj:__ZNK15dense_hashtableINSt3__24pairIK10KeyWrapperINS1_IPK9FieldInfoP11Il2CppClassEEEjEES9_17ReflectionMapHashIS8_EN14dense_hash_mapIS9_jSD_NS9_14EqualsComparerINS0_8equal_toIS8_EEEENS0_9allocatorISB_EEE9SelectKeyESI_SK_E5beginEv
Aak:__ZN6il2cpp2os6Thread15CurrentThreadIdEv
m$h:_ReadOnlyCollection_1_System_Collections_IList_get_IsFixedSize_m3402868227_gshared
fE:__ZN15SerializeTraitsIN4math4trsXEE8TransferI8BlobSizeEEvRS1_RT_
sPb:__ZN14DataBufferGLES11CopySubDataEPKS_jjj
ee:_emscripten_glVertexPointer
QNj:__ZN6il2cpp2vm7Runtime47RaiseExecutionEngineExceptionIfMethodIsNotFoundEPK10MethodInfo
ybj:_PatternCompiler_GetMachineFactory_m3758869886
m3b:__Z17GetFrustumPortionPK8Vector3fffPS_
mte:__ZL105RectTransform_t3704657025_CustomAttributesCacheGenerator_RectTransform_INTERNAL_get_anchorMin_m1735215721P21CustomAttributesCache
S2j:__ZN15dense_hashtableINSt3__24pairIK10KeyWrapperIP14Il2CppIUnknownEjEES5_N6il2cpp5utils11PointerHashIS3_EEN14dense_hash_mapIS5_jSB_NS5_14EqualsComparerINS0_8equal_toIS4_EEEENS0_9allocatorIS7_EEE9SelectKeyESG_SI_E14squash_deletedEv
avd:_EventTrigger_OnCancel_m585099428
$8d:__ZL107CodeAccessPermission_t2681295399_CustomAttributesCacheGenerator_CodeAccessPermission_GetHashCode_m880096813P21CustomAttributesCache
Gij:_GUILayoutEntry_ApplyOptions_m1741659338
pVd:_MethodDictionary_set_MethodKeys_m1451825752
Wof:_RuntimeTypeHandle_Equals_m2857439487_AdjustorThunk
gde:__ZL69GC_t959872083_CustomAttributesCacheGenerator_GC_KeepAlive_m1400443516P21CustomAttributesCache
Chb:__ZNK9GfxDevice27GetPlatformAdjustedViewportEv
bYf:_ScrollRect_get_rectTransform_m2442061719
u_h:_ReadOnlyCollection_1_System_Collections_Generic_IListU3CTU3E_set_Item_m88350439_gshared
lLg:_Hashtable_get_IsSynchronized_m1426775249
c9:__ZNSt3__26vectorINS_4pairIiiEE13stl_allocatorIS2_L18MemLabelIdentifier38ELi16EEE6insertENS_11__wrap_iterIPKS2_EEOS2_
bfa:__ZNSt3__26__treeINS_12__value_typeIPvsEENS_19__map_value_compareIS2_S3_NS_4lessIS2_EELb1EEE13stl_allocatorIS3_L18MemLabelIdentifier86ELi16EEE25__emplace_unique_key_argsIS2_JNS_4pairIS2_sEEEEENSD_INS_15__tree_iteratorIS3_PNS_11__tree_nodeIS3_S2_EEiEEbEERKT_DpOT0_
qmj:_StandardEventPayload_IsRequiredDataValid_m361738930
i2i:_Collection_1_System_Collections_IList_IndexOf_m3360434989_gshared
gej:_Reference_Compile_m4195878675
Fvj:_InputBuffer_remove_onCommandSent_m3139499669
T0h:_ReadOnlyCollection_1_System_Collections_ICollection_CopyTo_m2672196987_gshared
dAc:__ZN16StreamedResource8TransferI24GenerateTypeTreeTransferEEvRT_
rIf:_RectTransform_get_anchorMin_m2928307238
pHg:_ArrayList__ctor_m3828927650
iDa:__ZN10Matrix3x3f15InvertTransposeEv
Sij:_GUILayoutGroup_SetHorizontal_m996475327
Tgg:_SecurityException_get_Demanded_m2500043391
Jij:_GUILayoutEntry__cctor_m663865902
Dvg:_CaptureCollection_GetEnumerator_m732412500
NOf:__ZN23GenericVirtFuncInvoker2IDsiDsE6InvokeEPK10MethodInfoP12Il2CppObjectiDs
JWb:__Z11IsBatchmodev
KEh:_Enumerator_System_Collections_IEnumerator_get_Current_m713684915_gshared
Wrb:__Z29Transfer_Blittable_ArrayFieldI14SafeBinaryRead8Vector3fEvRT_R9ArrayInfoRK23StaticTransferFieldInfo
VJd:_MemberInfo__ctor_m3258770133
_6d:__ZL62IFormatterConverter_t2171992254_CustomAttributesCacheGeneratorP21CustomAttributesCache
Vbe:__ZL78Convert_t2465617642_CustomAttributesCacheGenerator_Convert_ToSByte_m4075629912P21CustomAttributesCache
Djf:_SoapTypeAttribute_get_XmlTypeNamespace_m4211398148
IYc:__ZN20TextRenderingPrivate8FontImpl18ResetCachedTextureEv
sMj:__ZN6il2cpp6icalls8mscorlib6SystemL16GetFieldFromTypeINS_5utils10functional6FilterINSt3__212basic_stringIcNS7_11char_traitsIcEENS7_9allocatorIcEEEENS4_13VmStringUtils21CaseSensitiveComparerEEEEEP21Il2CppReflectionFieldP11Il2CppClassSK_iRKT_
wrg:_X509KeyUsageExtension_Decode_m3150759625
bgk:_GC_print_finalization_stats
Ycf:_KeyCollection_System_Collections_ICollection_get_IsSynchronized_m2596089789_gshared
ayb:__Z35Transfer_Blittable_SingleValueFieldI19StreamedBinaryWriteILb0EE8Vector3fEvRT_R17GeneralMonoObjectRK23StaticTransferFieldInfo
vua:__ZN11NamedObject15ThreadedCleanupEv
xjj:_GUITargetAttribute_GetGUITargetAttrValue_m2954410352
umc:__Z53Register_UnityEngine_Behaviour_get_isActiveAndEnabledv
sDg:_SimpleEnumerator_get_Current_m72361444
Iq:__ZNSt3__26vectorIN4core12basic_stringIcNS1_20StringStorageDefaultIcEEEENS_9allocatorIS5_EEE8__appendEj
Fef:__ZN21InterfaceFuncInvoker2I27DictionaryEntry_t3123975638P12Il2CppObjectbE6InvokeEjP11Il2CppClassS2_S2_b
rW:__ZN13ProduceHelperI10SampleClipLb0EE7ProduceE10MemLabelId18ObjectCreationMode
H2a:__ZN26PlayerSettingsSplashScreen8TransferI17RemapPPtrTransferEEvRT_
kqh:_ASN1_set_Value_m2803403806
zMj:__ZN6il2cpp6icalls8mscorlib6SystemL17CollectTypeFieldsINS_5utils10functional10TrueFilterEEEvP11Il2CppClassPKS7_iRNSt3__26vectorIP9FieldInfoNSB_9allocatorISE_EEEERKT_
sgi:__Z52RuntimeInvoker_Int16_t2552820387_Decimal_t2948259380PFvvEPK10MethodInfoPvPS4_
pnc:__Z13GetTagManagerv
WAg:_Hashtable__ctor_m1815022027
c7h:__ZN28GenericInterfaceFuncInvoker1Ib39CustomAttributeNamedArgument_t287865710E6InvokeEPK10MethodInfoP12Il2CppObjectS0_
WLh:_UTF8Encoding_GetChars_m1433288684
dF:__ZN11UnityEngine9Animation37HasGenericRootTransformPropertyValuesERKNS0_30AnimatorGenericBindingConstantEb
RX:__ZN11UnityEngine15CloudWebService17CloudJobSchedulerD0Ev
Cei:__Z50RuntimeInvoker_Boolean_t97287965_SByte_t1669577662PFvvEPK10MethodInfoPvPS4_
AXe:_ArrayReadOnlyList_1_Contains_m381552673_gshared
fAi:__Z105RuntimeInvoker_Int32_t2950945753_RuntimeObject_OrderBlock_t1585977831_Int32_t2950945753_Int32_t2950945753PFvvEPK10MethodInfoPvPS4_
_Tc:__ZN11UnityEngine9Analytics26PerformanceReportingConfig13ConfigChangedERKN4core12basic_stringIcNS2_20StringStorageDefaultIcEEEER8JSONRead
yve:__ZL93AudioSource_t3935305588_CustomAttributesCacheGenerator_AudioSource_Play_m3389845180____delay0P21CustomAttributesCache
Rfi:__Z96RuntimeInvoker_Boolean_t97287965_RuntimeObject_RuntimeObject_Int32_t2950945753_Int32_t2950945753PFvvEPK10MethodInfoPvPS4_
iih:_Array_IndexOf_TisUICharInfo_t75501106_m3198896198_gshared
Tbd:__ZNK2UI11CanvasGroup22GetTypeVirtualInternalEv
v8f:_Context_get_Current_m2853615040
vOg:_CultureInfo_construct_internal_locale_from_lcid_m2668301444
Mph:_PrimeGeneratorBase__ctor_m2973488305
VKa:__ZNK15PlayableMethods20CanInvokePrepareDataEv
HLc:__Z21CleanupGlobalGUIStatev
MQh:_Type_IsContextfulImpl_m3693603908
zZd:__ZL81RuntimeArray_CustomAttributesCacheGenerator_Array_GetValue_m120423883____indices0P21CustomAttributesCache
CFh:_Enumerator_VerifyState_m2873941769_gshared
rBb:__Z18Transfer_BlittableI18StreamedBinaryReadILb0EELb1EN4math12int3_storageEEvRK29SerializationCommandArgumentsR31RuntimeSerializationCommandInfo
Bdi:__Z56RuntimeInvoker_RuntimeObject_RuntimeObject_RuntimeObjectPFvvEPK10MethodInfoPvPS4_
$Tb:__ZN22VertexDeclarationCache5ClearEv
Bqf:_CspParameters__ctor_m3852972821
jBg:_AppDomainInitializer_EndInvoke_m2095010821
Uac:__ZN17PersistentManager12SetPathRemapERKN4core12basic_stringIcNS0_20StringStorageDefaultIcEEEES6_
Ny:__Z27ProcessRootMotionEmptyMixerP35AnimationPlayableEvaluationConstantP32AnimationPlayableEvaluationInputP33AnimationPlayableEvaluationOutput
T4b:__ZN6Camera24PrepareCullingParametersERK23CameraCullingParameters13RenderingPathR11CullResults
c5b:__Z20CullReflectionProbesR8JobFenceRK22SceneCullingParametersRK23ReflectionProbesContextPKjjPjS9_
zBc:__Z12SetIUISystemP9IUISystem
j6a:__ZN19RuntimeSceneManager22EndIntegrateMainThreadEP10UnitySceneNS_11LoadingModeE
wJi:_Array_Sort_TisUICharInfo_t75501106_m3474449559_gshared
Qxg:_Buffer_BlockCopy_m2884209081
HJb:__ZNSt3__218__insertion_sort_3IRN10vector_mapIiN17InstancingBatcher12PropertyTypeENS_4lessIiEE13stl_allocatorINS_4pairIiS3_EEL18MemLabelIdentifier1ELi16EEE13value_compareEPS8_EEvT0_SF_T_
Pab:__ZN17WeakPtrSharedDataD0Ev
vcj:_QuickSearch_GetShiftDistance_m2542665852
u$a:__Z32TransferEnumWithNameForceIntSizeI14SafeBinaryRead11IndexFormatEvRT_RT0_PKc17TransferMetaFlags
YLi:_Array_InternalArray__get_Item_TisCustomAttributeTypedArgument_t2723150157_m2639399822_gshared
yoh:_BigInteger_GenerateRandom_m3141592944
Svb:__Z29Transfer_Blittable_ArrayFieldI24GenerateTypeTreeTransfer4AABBEvRT_R9ArrayInfoRK23StaticTransferFieldInfo
tIc:__ZN9Scripting11UnityEngine12StylePainter12CleanupProxyEv
oxg:_Interval_Contains_m1454846757
jFd:_Graphic_CacheCanvas_m1120385152
oI:__ZN26AnimatorOverrideController15InitializeClassEv
X6e:_InternalEnumerator_1_MoveNext_m1262906009_gshared
eEd:_U3CDelayedDestroyDropdownListU3Ec__Iterator0_Dispose_m100123149
xIc:__ZN9Scripting11UnityEngine15ScrollViewState12CleanupProxyEv
qPf:_InputField_set_contentType_m1277230266
Ymk:_emscripten_GetProcAddress
EHh:_List_1_System_Collections_Generic_IEnumerableU3CTU3E_GetEnumerator_m944444416_gshared
Ca:invoke_fiiifii
rok:_modff
gIa:__ZN20SphericalHarmonicsL219AddDirectionalLightERKN4math7_float3ERKNS0_7_float4E
Hug:_X509ChainElementCollection_get_IsSynchronized_m3980338507
hfa:__Z26ScheduleJobForEachInternalR8JobFencePFvPvjES1_iPFvS1_E11JobPriority
pze:__ZL67RemoteSettings_t1718627291_CustomAttributesCacheGenerator_CompletedP21CustomAttributesCache
fWb:__ZZ23InitPlayerLoopCallbacksvEN41PostLateUpdateProfilerEndFrameRegistrator7ForwardEv
Vjc:__ZN9Scripting18RaiseMonoExceptionEPKcz
$yc:__ZN10GameObject17WillHandleMessageERK17MessageIdentifier
Hfg:_StrongNamePublicKeyBlob_Equals_m3655422942
Egg:_SecurityContext__ctor_m1730177197
nyj:_RectTransformUtility_GetTransposed_m3952754222
exc:__ZN9ShaderLab16FastPropertyName15InitBy28BitHashEj
_Cj:__ZN6il2cpp2vm5Class7GetNameEP11Il2CppClass
AOi:_List_1_System_Collections_IList_set_Item_m4182383657_gshared
czh:_EqualityComparer_1_System_Collections_IEqualityComparer_GetHashCode_m3723747923_gshared
yIi:_Array_Resize_TisOrderBlock_t1585977831_m3449774576_gshared
ZAb:__ZN15SerializeTraitsI13dynamic_arrayIfLj0EEE19ResizeSTLStyleArrayERS1_i
Zii:__Z96RuntimeInvoker_Void_t1185182177_Int32_t2950945753_Single_t1397266774_RuntimeObject_RuntimeObjectPFvvEPK10MethodInfoPvPS4_
aZh:_ReadOnlyCollection_1_CopyTo_m3722791265_gshared
L9e:_Enumerator_System_Collections_IDictionaryEnumerator_get_Key_m195047678_AdjustorThunk
OOg:_DateTimeFormatInfo_get_RawAbbreviatedMonthNames_m2395953416
hxj:_Canvas_get_pixelPerfect_m333060872
G$a:__ZN17PackedFloatVector12UnpackFloatsEPfiiii
IJd:_TypeBuilder_ToString_m3497908325
WB:__ZN17AnimationPlayable28UpdateInternalStateRecursiveILi3ELb0EEEvPK35AnimationPlayableEvaluationConstant
$Mb:__ZN13GfxDeviceGLES21DestroyComputeProgramER12ObjectHandleI18ComputeProgram_TagPvE
Afh:_Enumerable_Any_TisRuntimeObject_m3853239423_gshared
Ubj:_PatternCompiler_EmitIfDefined_m2075050865
f9g:_Decimal_System_IConvertible_ToInt64_m1446427516_AdjustorThunk
Fca:__ZN17UniqueIDGenerator16DestroyPureIndexEj
yNe:_NotImplementedException__ctor_m3095902440
guj:__ZL25UnresolvedVirtualCall_227P12Il2CppObjectPK10MethodInfo
I8:__ZL21AppendNestedClassName17ScriptingClassPtrRN4core17string_with_labelILi1EEE
dfc:__ZN14SafeBinaryRead21TransferSTLStyleArrayINSt3__26vectorIN9ShaderLab20SerializedSubProgram12UAVParameterENS1_9allocatorIS5_EEEEEEvRT_17TransferMetaFlags
w_j:__ZN6il2cpp8metadata13ArrayMetadata20SetupArrayInterfacesEP11Il2CppClassRKNS_2os12FastAutoLockE
wPf:_InputField_set_inputType_m424695295
xNb:__ZN13GfxDeviceGLES32InitStereoGlobalsBuffersPlatformEiijPKv
w1:__ZNK13BaseAllocator10IsAssignedEv
OY:__ZN24TextDOMTransferWriteBaseI9JSONWriteE12PushMetaFlagEi
Kuj:__ZL25UnresolvedVirtualCall_257P12Il2CppObjecti19Vector2_t2156229523PK10MethodInfo
zQc:__Z18Transfer_BlittableI8JSONReadLb1E10ColorRGBAfEvRK29SerializationCommandArgumentsR31RuntimeSerializationCommandInfo
qia:__ZN6prcoreL26RemapGenericIntegerToFloatI17TexFormatARGB888815TexFormatRFloatEEvPKNS_9InnerInfoE
m1:__ZN5Mutex6UnlockEv
TLj:__ZN6il2cpp2vm10ThreadPool10InitializeEv
WRi:_List_1__ctor_m808270210_gshared
RVj:__ZN6il2cpp2vm17TypeNameParseInfoD2Ev
yCh:_PrimeHelper_ToPrime_m3704362632_gshared
fN:__ZN4FMOD7Channel7setModeEj
P8g:_Decimal_System_IConvertible_ToType_m2919262279
_Mf:_Vector2_get_right_m1027081661
GUa:__ZNK8Renderer8GetLayerEv
GZg:_Stream_Close_m771352034
H7e:__ZN21InterfaceFuncInvoker1Ii19TimeSpan_t881159249E6InvokeEjP11Il2CppClassP12Il2CppObjectS0_
DHa:__ZN12FlareManager11DeleteFlareEi
TA:__ZN7mecanim9animation22DestroyBlendTreeOutputEPNS0_15BlendTreeOutputERNS_6memory9AllocatorE
f$b:__ZNK6Camera20GetReplacementShaderEv
TUi:_List_1_System_Collections_IList_Remove_m4226673807_gshared
ukk:__ZNSt3__26__treeINS_12__value_typeINS_12basic_stringIcNS_11char_traitsIcEENS_9allocatorIcEEEEPFvvEEENS_19__map_value_compareIS7_SA_NS_4lessIS7_EELb1EEENS5_ISA_EEE4findIS7_EENS_15__tree_iteratorISA_PNS_11__tree_nodeISA_PvEEiEERKT_
gPa:__ZL23stbir__calculate_memoryP11stbir__info
YQj:__ZNK15dense_hashtableINSt3__24pairIK10KeyWrapperINS1_IPK10MethodInfoP11Il2CppClassEEEjEES9_17ReflectionMapHashIS8_EN14dense_hash_mapIS9_jSD_NS9_14EqualsComparerINS0_8equal_toIS8_EEEENS0_9allocatorISB_EEE9SelectKeyESI_SK_E12test_deletedERK24dense_hashtable_iteratorISB_S9_SD_SM_SI_SK_E
wwg:_Interpreter_Close_m126356671
N$i:_Collection_1_InsertItem_m168969280_gshared
jdd:__ZNSt3__227__insertion_sort_incompleteIRPFbPN2UI6CanvasES3_EPS3_EEbT0_S8_T_
iWc:__ZN9Scripting11UnityEngine14SphereCollider12CleanupProxyEv
Mvj:__ZN25GenericVirtActionInvoker1IP8String_tE6InvokeEPK10MethodInfoP12Il2CppObjectS1_
a_a:__ZNK6Camera18GetRenderRectangleEv
HHj:__ZN6il2cpp5utils13dynamic_arrayIPK10Il2CppTypeLj4EE7reserveEj
$5j:__ZN6il2cpp8metadata15GenericMetadata7InflateEPK19Il2CppGenericMethodPK20Il2CppGenericContext
MTc:__ZN9Scripting11UnityEngine22ParticleCollisionEvent9InitProxyEv
sYa:__ZN13sorted_vectorIN4core12basic_stringIcNS0_20StringStorageDefaultIcEEEENSt3__24lessIS4_EE13stl_allocatorIS4_L18MemLabelIdentifier81ELi16EEE4findIS4_EENS5_11__wrap_iterIPS4_EERKT_
Yxc:__Z13RegisterClassI30RuntimeInitializeOnLoadManagerEvPKc
Mcj:_Parser_HandleExplicitNumericGroups_m1412234891
wMi:_Array_InternalArray__get_Item_TisRaycastHit2D_t2279581989_m2440275162_gshared
MRe:_CustomAttributeNamedArgument_Equals_m1414002036
eRc:__ZL26Transfer_SimpleNativeClassI8JSONRead10RectOffsetLb1EEvRK29SerializationCommandArgumentsR31RuntimeSerializationCommandInfo
Ced:__Z44CanvasRenderer_CUSTOM_INTERNAL_CALL_SetColorP12Il2CppObjectRK10ColorRGBAf
FGh:_List_1__ctor_m3376109328_gshared
qUe:_FieldBuilder_GetFieldOffset_m725157755
qDa:__Z26TransformVerticesInnerLoopILb1ELb1ELb1EEvPhRK10Matrix4x4fRK10Matrix3x3fjPKhiS8_ii25GfxTransformVerticesFlagsj
Ugf:_Enumerator_MoveNext_m3045873697_AdjustorThunk
ZDh:_Enumerator_System_Collections_IEnumerator_Reset_m959124362_AdjustorThunk
m_b:__ZNK20DynamicPropertySheet18FindQueuedPropertyEN9ShaderLab16FastPropertyNameEN19ShaderPropertySheet12PropertyTypeE
zch:_Enum_ToObject_m121831801
ere:__ZL57AsyncOperation_t1445031843_CustomAttributesCacheGeneratorP21CustomAttributesCache
zHd:_Image_get_hasBorder_m3423344180
bee:__ZL60TypeLoadException_t3707937253_CustomAttributesCacheGeneratorP21CustomAttributesCache
Sid:__Z48UnityAnalyticsHandler_CUSTOM_SendCustomEventNameP12Il2CppObjectP12Il2CppString
xta:__ZN6ObjectD2Ev
Ypc:__ZN9Transform16SetLocalRotationERK11Quaternionf
ama:__ZL49__ManagedRegistrationHelperFunction_CommandBufferPv
fXb:__ZN13RenderManager37RenderCamerasWithScriptableRenderLoopEi
Iof:_RuntimeMethodHandle__ctor_m2229201676
xOh:_TimeSpan__ctor_m3689759052
RXd:__ZL49UInt16_t2177724958_CustomAttributesCacheGeneratorP21CustomAttributesCache
CMb:__ZN13GfxDeviceGLES22ReleaseThreadOwnershipEv
mFi:__Z37RuntimeInvoker_Enumerator_t3123848928PFvvEPK10MethodInfoPvPS4_
G6j:__ZN6il2cpp2os19ReleaseSocketHandleEj
KNh:_ThreadStart__ctor_m3250019360
wV:__ZN11AudioModule16GetDSPSampleRateEv
Xbk:__ZN15dense_hashtableINSt3__24pairIK10KeyWrapperIPK19Il2CppGenericMethodEP10MethodInfoEES6_N6il2cpp8metadata23Il2CppGenericMethodHashEN14dense_hash_mapIS6_S9_SD_NS6_14EqualsComparerINSC_26Il2CppGenericMethodCompareEEENS0_9allocatorISA_EEE9SelectKeyESH_SJ_E5clearEv
bAc:__ZN16PropertyAccessor5ClearEv
Z8e:_Comparer_1__ctor_m3649041856_gshared
DHd:_Image_OnBeforeSerialize_m3415525254
QOf:_InputField_get_characterValidation_m4196664041
PPh:_Type_get_Attributes_m58528356
Qzf:_SpriteBone_t303320096_marshal_pinvoke
X7h:__ZN23GenericVirtFuncInvoker1Ib19Vector2_t2156229523E6InvokeEPK10MethodInfoP12Il2CppObjectS0_
z$b:__ZN6Camera28DefaultPerformRenderFunctionD0Ev
hyg:_Array_GetUpperBound_m4018715963
jaj:_X509Store__ctor_m2736551756
msc:__Z13RegisterClassI9TextAssetEvPKc
a8j:__ZN6il2cpp2os5posix15PosixWaitObjectC2ENS2_4TypeE
kZb:__ZN6Camera21PostMultiCustomRenderENS_10RenderFlagEb
cGi:_Array_InternalArray__Insert_TisMonoResource_t4103430009_m1997865927_gshared
Cdg:_SHA512Managed_HashFinal_m2173184560
BSb:__ZN12_GLOBAL__N_112UploadImagesEP7ApiGLESjji14GraphicsFormatPKhjS2_iiii16TextureUsageModePh
pJb:__ZN23ShaderVariantCollection13WarmupShadersEv
CEa:__ZNK4PPtrI8MaterialEptEv
stc:__ZN13ProduceHelperI9TransformLb0EE7ProduceE10MemLabelId18ObjectCreationMode
J5i:_SslStreamBase_Finalize_m3260913635
p8:__Z25GetCommonScriptingClassesv
T6a:__Z27scripting_gc_collect_unsafei
f3f:_MD5SHA1_HashFinal_m4115488658
BV:__ZN11AudioModule20SuspendVideoTexturesEv
Mjh:_Array_InternalArray__ICollection_Add_TisKeyValuePair_2_t71524366_m3468275433_gshared
Dbd:__ZN9Scripting11UnityEngine9CSSLayout6Native9InitProxyEv
GU:__Z59Register_UnityEngine_AudioExtensionManager_GetAudioListenerv
V0d:__ZL78Calendar_t1661121569_CustomAttributesCacheGenerator_Calendar_Clone_m1356182658P21CustomAttributesCache
ivb:__Z26Transfer_UnityEngineObjectI24GenerateTypeTreeTransferLb0EEvRK29SerializationCommandArgumentsR31RuntimeSerializationCommandInfo
Y2g:_Convert_ToDouble_m278900635
O1c:_UNITY_FT_GlyphLoader_CheckPoints
txf:_DebugLogHandler_LogException_m302830419
MQf:_InputField_LineDownCharacterPosition_m2798128425
wCh:_PrimeHelper_TestPrime_m2318568626_gshared
_$d:__ZL63KeyNotFoundException_t2292407383_CustomAttributesCacheGeneratorP21CustomAttributesCache
Oaf:_Enumerator_System_Collections_IDictionaryEnumerator_get_Value_m684446183_AdjustorThunk
LHa:__ZN15SharedLightData7PrecalcEv
Wxa:__ZN10Matrix4x4fmLERKS_
fq:__ZN4PPtrI9TransformE8TransferI18StreamedBinaryReadILb0EEEEvRT_
dHf:_Vector2__ctor_m3970636864
rxa:__ZN17TransformInternal12InitLocalTRSE15TransformAccessRKN4math7_float3ERKNS1_7_float4ES4_
Lyb:__Z35Transfer_Blittable_FixedBufferFieldI18StreamedBinaryReadILb1EEsEvRK29SerializationCommandArgumentsR31RuntimeSerializationCommandInfo
wX:__ZNK4PPtrI4MeshEdeEv
Xch:_Environment_InternalGetFolderPath_m468390978
JEe:__ZL156U3CClickRepeatU3Ec__Iterator0_t3442648935_CustomAttributesCacheGenerator_U3CClickRepeatU3Ec__Iterator0_System_Collections_IEnumerator_get_Current_m543328413P21CustomAttributesCache
Tde:__ZL65StackOverflowException_t3629451388_CustomAttributesCacheGeneratorP21CustomAttributesCache
idf:_KeyCollection_System_Collections_IEnumerable_GetEnumerator_m2779004382_gshared
iRi:_List_1_System_Collections_Generic_ICollectionU3CTU3E_get_IsReadOnly_m2562366358_gshared
i3f:_RSASslSignatureFormatter__ctor_m1299283008
Fld:__ZN11UnityEngine15PlatformWrapper18GetOperatingSystemEv
nhg:_SecurityFrame_ToString_m339310712
mee:__ZL54ThreadStart_t1006689297_CustomAttributesCacheGeneratorP21CustomAttributesCache
c$d:__ZL62ParamArrayAttribute_t3664765590_CustomAttributesCacheGeneratorP21CustomAttributesCache
IRc:__ZN8GUIStyle8TransferI8JSONReadEEvRT_
qjj:_GUIStyleState_t1397964415_marshal_pinvoke
Zei:__Z49RuntimeInvoker_Char_t3634460470_Int16_t2552820387PFvvEPK10MethodInfoPvPS4_
OIi:_Array_Resize_TisVector4_t3319028937_m1507893064_gshared
Rcg:_SHA1Managed_HashFinal_m2365675383
zyd:_TouchInputModule_ProcessTouchPress_m3504077560
Dmj:_FieldWithTarget_get_typeString_m238478345
QZf:_Selectable_IsInteractable_m2611421038
s1c:_FT_MSB
xyh:_EqualityComparer_1_get_Default_m2572737998_gshared
$yk:_emscripten_glReadPixels__wrapper
PCh:_HashSet_1_Add_m1971460364_gshared
Ikk:__ZN6il2cpp6icalls8mscorlib4Mono8Security12Cryptography18KeyPairPersistence10_CanSecureEP12Il2CppString
N2f:_MD4__ctor_m919379109
qtj:__ZL25UnresolvedVirtualCall_183P12Il2CppObject20UIVertex_t4057497605PK10MethodInfo
Rdh:_Array_InternalArray__ICollection_Contains_TisParameterModifier_t1461694466_m1000453323_gshared
t3d:__ZL57FieldAttributes_t400321159_CustomAttributesCacheGeneratorP21CustomAttributesCache
Huh:_Dictionary_2_System_Collections_ICollection_CopyTo_m4047192178_gshared
lOj:__ZN6il2cpp2os4File11GetFileStatERKNSt3__212basic_stringIcNS2_11char_traitsIcEENS2_9allocatorIcEEEEPNS0_8FileStatEPi
SCi:__Z60RuntimeInvoker_DictionaryEntry_t3123975638_Int32_t2950945753PFvvEPK10MethodInfoPvPS4_
X5d:__ZL54IMessageCtrl_t317049502_CustomAttributesCacheGeneratorP21CustomAttributesCache
sid:__ZN14UnityAnalytics22HandleCustomEventLimitERN11UnityEngine9Analytics15UserCustomEventE
rtc:__ZN9TransformC2E10MemLabelId18ObjectCreationMode
fLb:__ZN13GfxDeviceGLES14SetRasterStateEPK17DeviceRasterState
zQe:_Assembly_ToString_m2053237013
Bpb:__Z30TransferField_LinearCollectionI14SafeBinaryReadEvRK29SerializationCommandArgumentsR31RuntimeSerializationCommandInfo
_Bf:_Vector4_Equals_m1779210055
jMg:_Exception_set_HResult_m3489164646
D3c:_otv_Coverage_get_count
gOd:_ParameterModifier_t1461694466_marshal_pinvoke_back
rsa:__ZN14SafeBinaryRead11EndTransferEv
VAh:_EqualityComparer_1__cctor_m2741186979_gshared
UQ:__ZN20SoundChannelInstance19set3DMinMaxDistanceEff
pge:__ZL70Uri_t100236324_CustomAttributesCacheGenerator_Uri_Unescape_m3373094076P21CustomAttributesCache
Gsj:__ZL25UnresolvedVirtualCall_145P12Il2CppObject19Vector2_t2156229523PK10MethodInfo
aZf:_ScrollRect_set_verticalNormalizedPosition_m1452826170
pch:_Enum_System_IConvertible_ToUInt16_m4216751959
qti:__Z61RuntimeInvoker_Boolean_t97287965_PlayableHandleU26_t645981773PFvvEPK10MethodInfoPvPS4_
hTb:__ZN21UniformBufferTFMethod13MapBoneBufferEj
zvj:_StringExtension_Anagram_m968226828
fmh:_Array_InternalArray__Insert_TisInt32_t2950945753_m4073217122_gshared
Gbg:_RNGCryptoServiceProvider_RngClose_m3915778345
u$g:_SortedList_Remove_m2784369438
URa:__ZN4crnd12crn_unpacker10unpack_dxnEPPhjjj
c7g:_DateTime_get_Kind_m2154871796_AdjustorThunk
vEb:__ZN9TextAsset15ThreadedCleanupEv
lbj:_MatchCollection_get_SyncRoot_m1957585059
a9:__ZN14SerializedFileD2Ev
Saa:__Z21CompleteFenceInternalR8JobFence
eJc:__Z30Event_Get_Custom_PropModifiersP12Il2CppObject
JFi:__Z79RuntimeInvoker_RuntimeObject_OrderBlock_t1585977831_RuntimeObject_RuntimeObjectPFvvEPK10MethodInfoPvPS4_
uw:__ZN7mecanim9animation16CreateClipOutputEPKNS0_4ClipERNS_6memory9AllocatorE
gjf:_SoapAttribute_SetReflectionObject_m4109300849
rVf:_RawImage_get_mainTexture_m2396337033
xOj:__ZN6il2cpp2vm10Reflection17GetAssemblyObjectEPK14Il2CppAssembly
Slg:_DecoderFallbackBuffer_Reset_m3069554060
FDb:__ZNSt3__218__stable_sort_moveIRN10vector_mapI17ScriptingClassPtrPKN5Unity4TypeENS_4lessIS2_EENS_9allocatorINS_4pairIS2_S6_EEEEE13value_compareENS_11__wrap_iterIPSB_EEEEvT0_SJ_T_NS_15iterator_traitsISJ_E15difference_typeEPNSM_10value_typeE
Udc:__ZN6Shader21AwakeFromLoadThreadedEv
Aha:__ZN6prcoreL17RemapGenericFloatI17TexFormatRGBFloat17TexFormatRGBAHalfEEvPKNS_9InnerInfoE
toh:_BigInteger__ctor_m3991350270
cpc:__Z58Register_UnityEngine_PlayerConnectionInternal_PollInternalv
OMf:_Vector2_GetHashCode_m3916089713_AdjustorThunk
xrd:__ZN13RuntimeStaticINSt3__26vectorIjNS0_9allocatorIjEEEELb0EE16StaticInitializeEPv
m_:__ZN13UploadHandler10OnSentDataEj
Xlk:__ZN6il2cpp2os9SemaphoreC2Eii
Wpb:__ZNSt3__26vectorI8MonoPPtr13stl_allocatorIS1_L18MemLabelIdentifier1ELi16EEE8__appendEj
NZb:__ZN14qsort_internal30FindAndMovePivotToLastPositionIP17RODataReplacementi19ROSorterReplacementEEvT_S4_T0_T1_
sTb:__ZN15UniformTFMethod20IsBoneCountSupportedEi
ZHe:__ZL76StandardEventPayload_t1629891255_CustomAttributesCacheGenerator_m_ParametersP21CustomAttributesCache
e_h:_ReadOnlyCollection_1_System_Collections_IList_get_Item_m3076053687_gshared
dUh:_UnauthorizedAccessException__ctor_m246605039
cwc:__Z12BuildTextureIA4_tPFvP9Texture2DPS0_iiiiEES2_PKcii13TextureFormatRKT0_17TextureColorSpaceb
mtk:dynCall_viidi
Uv:__ZN8Playable18OnApplicationPauseEb
ncf:_KeyCollection__ctor_m1356492051_gshared
Y5:__ZN24ScriptingMethodFiltering17FilterOnSignatureENS_18MethodSearchFilterE
mid:__ZNSt3__26__treeINS_12__value_typeIN4core12basic_stringIcNS2_20StringStorageDefaultIcEEEEN11UnityEngine9Analytics15UserCustomEvent11CustomValueEEENS_19__map_value_compareIS6_SB_NS_4lessIS6_EELb1EEE13stl_allocatorISB_L18MemLabelIdentifier6ELi16EEE7destroyEPNS_11__tree_nodeISB_PvEE
Q0c:_cf2_arrstack_finalize
_8i:_X509Certificate_VerifySignature_m3538124832
KZg:_StreamAsyncResult_SetComplete_m1102187093
sHh:_List_1_Sort_m1293013666_gshared
Nuc:__ZN13MonoBehaviour19HandleNotificationsEPviR11MessageData
aIf:_RectOffset_Init_m2028508611
wmk:__ZN6il2cpp2os9EventImpl5ResetEv
ETi:_List_1_Sort_m933660666_gshared
w4f:_Alert__ctor_m3135936936
ZTg:_Int64_System_IConvertible_ToInt32_m772105781
U5i:_TlsClientSettings__ctor_m3220697265
ySj:__ZNK15dense_hashtableINSt3__24pairIK10KeyWrapperINS1_IPK9EventInfoP11Il2CppClassEEEjEES9_17ReflectionMapHashIS8_EN14dense_hash_mapIS9_jSD_NS9_14EqualsComparerINS0_8equal_toIS8_EEEENS0_9allocatorISB_EEE9SelectKeyESI_SK_E23find_position_with_hashERSA_j
uej:_CaptureAssertion_set_CapturingGroup_m2003123956
ksd:__ZL45__ManagedRegistrationHelperFunction_SubsystemPv
Zui:__Z103RuntimeInvoker_Boolean_t97287965_RuntimeObject_Vector2_t2156229523_RuntimeObject_Vector2U26_t2376273893PFvvEPK10MethodInfoPvPS4_
Xth:_Dictionary_2_make_pair_m2250450206_gshared
uJh:_ForwardingDecoder_GetChars_m4228908854
Rwg:_InterpreterFactory_get_GroupCount_m2226373271
Vvk:b53
Svk:b50
Tvk:b51
Yvk:b56
Zvk:b57
Wvk:b54
Xvk:b55
Gs:__ZL45__ManagedRegistrationHelperFunction_HumanBonePv
MIh:_List_1_System_Collections_IList_get_IsReadOnly_m3531293387_gshared
vL:__ZN4PPtrI15AudioMixerGroupE8TransferI18StreamedBinaryReadILb0EEEEvRT_
nnh:_SimpleCollator_IsSafe_m310268646
hhh:_Array_InternalArray__IEnumerable_GetEnumerator_TisWorkRequest_t1354518612_m2622205355_gshared
jFg:_Byte_System_IConvertible_ToByte_m162267264_AdjustorThunk
bzg:_X509Certificate_get_RawData_m2387471414
Bxk:_glDetachShader__wrapper
zDg:_ArrayTypeMismatchException__ctor_m3375008173
Wdf:_Transform_1_BeginInvoke_m1757796657_gshared
mWj:__ZNSt3__214__split_bufferINS_12basic_stringIcNS_11char_traitsIcEENS_9allocatorIcEEEERNS4_IS6_EEEC2EjjS8_
rDh:_KeyValuePair_2__ctor_m1794021352_AdjustorThunk
Uoa:__ZN9Scripting11UnityEngine7Hash12812CleanupProxyEv
cuc:__ZN10GameObject12CleanupClassEv
Ehb:__ZN9GfxDevice25SetShaderPropertiesSharedERK19ShaderPropertySheet
Dod:__ZN11UnityEngine7Connect20RemoteConfigSettingsC2ERKN4core12basic_stringIcNS2_20StringStorageDefaultIcEEEEPFvPS1_E18ScriptingObjectPtr
lzd:_BaseMeshEffect_get_graphic_m1852367505
hKg:_CaseInsensitiveHashCodeProvider_GetHashCode_m2168170016
fEb:__ZN10MonoScript17MainThreadCleanupEv
Ykb:__ZN18AsyncUploadManager19AsyncResourceUploadER9GfxDeviceii9TextureID
_pa:__ZN9Scripting11UnityEngine12Experimental18GlobalIllumination11LightDataGI12CleanupProxyEv
Q5e:_InternalEnumerator_1_Dispose_m28687982_AdjustorThunk
Iuc:__ZL25InitializeDefaultMaterialv
fUe:_FieldBuilder_get_Attributes_m1473479383
nId:_PropertyBuilder_GetCustomAttributes_m3798356764
fXg:_Stream__ctor_m3881936881
kOd:_PropertyInfo_get_MemberType_m2794839864
Yab:__ZN19FileAccessorHandlerD2Ev
fmj:_EventTrigger_RemoveRule_m1596811726
oGh:_Enumerator_Dispose_m2367589020_AdjustorThunk
H8e:_Comparer_1_System_Collections_IComparer_Compare_m4179495191_gshared
c8a:__ZN17PersistentManager12UnloadStreamERKN4core12basic_stringIcNS0_20StringStorageDefaultIcEEEEb
pfb:__ZN10MemoryFile4ReadEyyPvPy
BGi:_Array_InternalArray__Insert_TisUICharInfo_t75501106_m2924156520_gshared
Wzh:_EqualityComparer_1_System_Collections_IEqualityComparer_Equals_m3139704160_gshared
Cjh:_MonoProperty_GetterAdapterFrame_TisRuntimeObject_TisRuntimeObject_m458718082_gshared
TIi:_Array_Sort_TisInt32_t2950945753_TisInt32_t2950945753_m3955828611_gshared
WXj:_il2cpp_unity_liveness_calculation_from_statics
Pyi:__Z70RuntimeInvoker_Boolean_t97287965_CharU26_t1697032762_Int16_t2552820387PFvvEPK10MethodInfoPvPS4_
eA:__ZNK26AnimatorControllerPlayable11DerivesFromE17ScriptingClassPtr
djf:_SoapAttribute__ctor_m1857608874
X5e:_InternalEnumerator_1_System_Collections_IEnumerator_get_Current_m2649471526_gshared
_yh:_EqualityComparer_1_System_Collections_IEqualityComparer_Equals_m3218482536_gshared
sVa:__ZN8Renderer8TransferI17RemapPPtrTransferEEvRT_
L5i:_InternalAsyncResult_get_AsyncState_m1436290550
b8b:__ZN13RenderTexture16SetSRGBReadWriteEb
DPa:__ZN6prcore16BlitFuncInfoSIMD19BlitFuncExecuteSIMDEPKNS_9InnerInfoEPKv
_pd:__ZN20UnityWebRequestProtoI24UnityWebRequestTransport16AtomicRefCounter14RedirectHelper14ResponseHelper15DownloadHandler13UploadHandler18CertificateHandler12HeaderHelper14AsyncOperationE9DoRequestEv
H9e:_Enumerator_System_Collections_IDictionaryEnumerator_get_Entry_m522483686_gshared
qsh:_PrivateKeyInfo_RemoveLeadingZero_m3921889925
eNh:_Thread_get_CurrentContext_m1695017876
zS:__ZN9AudioClip20OnBeforeDomainUnloadEv
$Mi:_Mesh_GetAllocArrayFromChannel_TisColor32_t2600501292_m3180365313_gshared
n8b:__Z24LookRotationToQuaternionRK8Vector3fS1_P11Quaternionf
l8b:__ZN16ReflectionProbes9GetCameraEv
Z2b:__Z23CalculateLightOcclusionRK17LightProbeContextRK29LightProbeSamplingCoordinatesi
Zic:__ZL18IsGpuProgramUsable20ShaderGpuProgramTypePK6Shader
rdd:__ZN2UI6Canvas17SetSortingLayerIDEi
tzd:_Button_get_onClick_m2332132945
Z7j:__ZN6il2cpp2vm11MethodStack23CleanupForCurrentThreadEv
rDe:__ZL61Image_t2670269651_CustomAttributesCacheGenerator_m_FillMethodP21CustomAttributesCache
$le:__ZL62EndGraphicsJobsLate_t3823419272_CustomAttributesCacheGeneratorP21CustomAttributesCache
H5g:_Convert_ToUInt64_m388601487
RFa:__ZN20TierGraphicsSettings8TransferI24GenerateTypeTreeTransferEEvRT_
tHj:__ZN15dense_hashtableINSt3__24pairIK10KeyWrapperIN6il2cpp5utils13dynamic_arrayIPK10Il2CppTypeLj4EEEEPFvvEEESA_NS3_8metadata19Il2CppSignatureHashEN14dense_hash_mapISA_SD_SG_NSA_14EqualsComparerINSF_22Il2CppSignatureCompareEEENS0_9allocatorISE_EEE9SelectKeyESK_SM_E16reset_thresholdsEv
hLf:_TouchScreenKeyboard_get_text_m1797464608
tNa:__ZN18UnityPropertySheet8TransferI19StreamedBinaryWriteILb0EEEEvRT_
ct:__ZN9Scripting11UnityEngine27AnimatorControllerParameter9InitProxyEv
fga:__ZNSt3__26__treeINS_12__value_typeIiN11TypeManager18TypeCallbackStructEEENS_19__map_value_compareIiS4_NS_4lessIiEELb1EEENS_9allocatorIS4_EEE7destroyEPNS_11__tree_nodeIS4_PvEE
uFe:__ZL60Slider_t3903728902_CustomAttributesCacheGenerator_m_FillRectP21CustomAttributesCache
rBa:__ZN9ShaderLab32FindBestMatchingShaderKeywordSetERK16ShaderKeywordSetRK13dynamic_arrayIS0_Lj0EEPS5_
Ayi:__Z71RuntimeInvoker_Void_t1185182177_CornerU26_t2243868623_Int32_t2950945753PFvvEPK10MethodInfoPvPS4_
vzf:_TextureMixerPlayable_Equals_m1074187513_AdjustorThunk
Gzc:__ZNK14PlayableOutput23GetSourcePlayableUnsafeEv
Akd:__ZN11UnityEngine7Connect17XRDeviceInfoEventD0Ev
n6d:__ZL60SoapTypeAttribute_t1750930817_CustomAttributesCacheGeneratorP21CustomAttributesCache
MWe:_Action_3__ctor_m3820700807_gshared
eRe:_Binder_ConvertArgs_m2124461494
sdc:__ZN21UnityDefaultAllocatorI17LowLevelAllocatorE10DeallocateEPv
Dzk:b86
yle:__ZL63Physics2DFixedUpdate_t3234482501_CustomAttributesCacheGeneratorP21CustomAttributesCache
MH:__ZN15PackedIntVector8TransferI14SafeBinaryReadEEvRT_
aNf:_Vector3__ctor_m3353183577_AdjustorThunk
B_e:_InternalEnumerator_1_System_Collections_IEnumerator_get_Current_m1514266661_gshared
M9f:_PrivateKeySelectionCallback__ctor_m265141085
e3f:_MD5SHA1_Initialize_m675470944
xkh:_Array_InternalArray__ICollection_Add_TisKeyframe_t4206410242_m442111799_gshared
wSi:_List_1_CheckMatch_m3263549496_gshared
bGf:_PropertyNameUtils_PropertyNameFromString_Injected_m1259736140
e1h:_ReadOnlyCollection_1_System_Collections_IList_get_IsReadOnly_m2041535988_gshared
L8i:_X509Certificate_set_KeyAlgorithmParameters_m2010117999
mT:__ZN13AudioListener8DoUpdateEv
eMc:__ZN5Unity9rapidjson13GenericReaderINS0_4UTF8IcEES3_13JSONAllocatorE9ParseTrueILj1ENS0_25GenericInsituStringStreamIS3_EENS0_15GenericDocumentIS3_S4_S4_EEEEvRT0_RT1_
XKe:__Z13bankers_roundd
w2a:__ZN14SafeBinaryRead8TransferI5RectTIfEEEvRT_PKc17TransferMetaFlags
qi:_emscripten_glGenFramebuffers
aga:__ZN17BaseObjectManager16StaticInitializeEPv
Dbf:_Enumerator_MoveNext_m1127886695_gshared
sec:__ZNSt3__26vectorIN9ShaderLab26SerializedShaderDependencyENS_9allocatorIS2_EEE26__swap_out_circular_bufferERNS_14__split_bufferIS2_RS4_EE
VHh:_List_1_AddCollection_m4102468168_gshared
Una:__ZN9Scripting11UnityEngine9Profiling8Profiler12CleanupProxyEv
Pta:__ZN9Behaviour23VirtualRedirectTransferER17RemapPPtrTransfer
Yhd:__ZN21UnityAnalyticsManager23VirtualRedirectTransferER19StreamedBinaryWriteILb0EE
AOc:__Z18Transfer_BlittableI9JSONWriteLb0EyEvRK29SerializationCommandArgumentsR31RuntimeSerializationCommandInfo
FKa:__ZN13RenderTexture15ThreadedCleanupEv
isg:_X509BasicConstraintsExtension__ctor_m3721156175
zQa:__ZN12CubemapArray23VirtualRedirectTransferER14SafeBinaryRead
jtj:__ZL25UnresolvedVirtualCall_176P12Il2CppObject25RaycastResult_t3360306849S1_PK10MethodInfo
Jze:__ZL70EventSystem_t1003666588_CustomAttributesCacheGenerator_m_DragThresholdP21CustomAttributesCache
xw:__ZN21AnimationClipPlayable16ProcessHumanPassEPK35AnimationPlayableEvaluationConstantPK32AnimationPlayableEvaluationInputP33AnimationPlayableEvaluationOutput
dWg:_Path_GetFileName_m1354558116
UDc:__Z51Register_UnityEngine_QualitySettings_set_vSyncCountv
ywk:_emscripten_glUniform3i__wrapper
Knh:_SimpleCollator_IsPrefix_m3581642267
KHf:_Rect_Contains_m1232228501_AdjustorThunk
Vlc:__Z43RectTransform_CUSTOM_INTERNAL_set_sizeDeltaP12Il2CppObjectRK13Vector2fIcall
gUg:_Int64_System_IConvertible_ToType_m3223988955_AdjustorThunk
P3j:__ZN15dense_hashtableINSt3__24pairIK10KeyWrapperINS1_IPKcS4_EEEiEES6_24NamespaceAndNamePairHashN14dense_hash_mapIS6_iS9_NS6_14EqualsComparerI26NamespaceAndNamePairEqualsEENS0_9allocatorIS8_EEE9SelectKeyESD_SF_E6insertERKS8_
fua:__ZN24GenerateTypeTreeTransfer18BeginArrayTransferEPKcS1_Ri17TransferMetaFlags
uMi:_Array_InternalArray__get_Item_TisPlayableBinding_t354260709_m3837494573_gshared
pm:___syscall51
vkg:_String_CreateString_m4016935005
hbj:_MatchCollection_get_FullList_m1829231879
tm:___syscall54
pCg:_Array_GetValue_m2528415604
Y5d:__ZL55IMessageSink_t2514424906_CustomAttributesCacheGeneratorP21CustomAttributesCache
Odg:_SymmetricAlgorithm_Clear_m3302238152
ZLf:_Transform_INTERNAL_CALL_TransformPoint_m4261269221
rRg:_Guid_AppendShort_m791023083
QAe:__ZL109PointerEventData_t3807901092_CustomAttributesCacheGenerator_PointerEventData_get_eligibleForClick_m3788762543P21CustomAttributesCache
SSi:_List_1__ctor_m4212503576_gshared
s8c:_ft_var_get_item_delta
UJg:_BitArrayEnumerator_MoveNext_m3806676766
nDd:_Dropdown_get_value_m1555353112
P1c:_cff_builder_add_point1
Y4j:__ZN6il2cpp2vm5Image21GetCachedResourceDataEPK11Il2CppImageRKNSt3__212basic_stringIcNS5_11char_traitsIcEENS5_9allocatorIcEEEE
Eob:__Z18Transfer_BlittableI14SafeBinaryReadLb0E10ColorRGBAfEvRK29SerializationCommandArgumentsR31RuntimeSerializationCommandInfo
za:invoke_iiiiiiiiii
Pxf:_DrivenRectTransformTracker_Clear_m371772582
vU:__ZN11AudioSource25GetNumExtensionPropertiesEv
Jlh:_Array_InternalArray__ICollection_CopyTo_TisUILineInfo_t4195266810_m104406798_gshared
NT:__ZNK7Texture10GetVRUsageEv
Vsc:__ZZL31RegisterRectTransformPropertiesR22GenericPropertyBindingEN32Wrapper_RectTransformAnchorMaxx013GetFloatValueEPv
uwh:_DefaultComparer__ctor_m41012692_gshared
gxf:_Debug_LogErrorFormat_m3558239521
fFd:_Graphic_get_canvas_m3320066409
jQf:_InputField_ActivateInputFieldInternal_m3360893886
iXi:_List_1_Insert_m1781696722_gshared
D3i:_RijndaelManagedTransform__ctor_m1033522223
Acc:__ZN10FileSystem19SetCurrentDirectoryERKN4core12basic_stringIcNS0_20StringStorageDefaultIcEEEE
qwf:_Component_get_gameObject_m442555142
_Ke:_Math_Log_m2526073084
xtc:__ZN23TransformChangeDispatch24RemovePermanentInterestsE15TransformAccessPKN5Unity4TypeE
UEc:__Z47Register_UnityEngine_Coroutine_ReleaseCoroutinev
EL:__ZN15AudioReverbZone13SetFMODValuesEv
h7:__ZN14SafeBinaryRead4InitERK16TypeTreeIteratorxx24TransferInstructionFlags10MemLabelId
K2:__ZL19StaticDestroyShaderPv
$d:_glRenderbufferStorageMultisample
EAe:__ZL105PointerEventData_t3807901092_CustomAttributesCacheGenerator_PointerEventData_get_pointerEnter_m3901270554P21CustomAttributesCache
qB:__ZN23AnimationPlayableOutput17SetTargetAnimatorEP8Animator
I3d:__ZL62ParameterAttributes_t1826424051_CustomAttributesCacheGeneratorP21CustomAttributesCache
p0b:__ZN22MotionVectorRenderLoopD2Ev
ksj:__ZL25UnresolvedVirtualCall_123P12Il2CppObjectiS0_S0_S0_PK10MethodInfo
GYg:_MemoryStream_get_CanRead_m1639425566
xtf:_Debug_LogException_m2207318968
Zlg:_DecoderReplacementFallback_GetHashCode_m1611165826
UHd:_Image_get_minWidth_m755066479
jue:__ZL76AnimatorTransitionInfo_t2534804151_CustomAttributesCacheGenerator_m_FullPathP21CustomAttributesCache
Hpe:__ZL99PlayableHandle_t1095853803_CustomAttributesCacheGenerator_PlayableHandle_GetPlayableType_m432385838P21CustomAttributesCache
Gjh:_Array_InternalArray__ICollection_Add_TisClientCertificateType_t1004704908_m2622721177_gshared
VH:__ZN17PackedFloatVector8TransferI18StreamedBinaryReadILb0EEEEvRT_
ZQa:__ZN7Cubemap23VirtualRedirectTransferER17RemapPPtrTransfer
YGc:__Z37Register_UnityEngine_Screen_get_widthv
fAj:_UnityAnalyticsHandler_SendCustomEvent_m1223269116
wgj:_Uri_get_Authority_m3816772302
Nkc:__ZN22BlockMemoryCacheWriter11GetPathNameEv
e1f:_BigInteger_op_Division_m3713793389
aLf:_Touch_get_position_m3109777936
oNd:_ParameterInfo__ctor_m3269320476
dle:__ZL60ProcessRemoteInput_t950001846_CustomAttributesCacheGeneratorP21CustomAttributesCache
jvg:_X509SubjectKeyIdentifierExtension_FromHexChars_m3244835916
_hg:_Single_CompareTo_m2785801815
rTh:_UInt64_System_IConvertible_ToInt32_m949522652_AdjustorThunk
J7i:_PKCS12_MAC_m3355614022
$5d:__ZL63IMethodReturnMessage_t3705538073_CustomAttributesCacheGeneratorP21CustomAttributesCache
Yo:stackAlloc
Bfb:__ZN25SingleBlockMemoryFileData4LockEPPv
gcb:__ZN12HandlerChain5TouchER13FileEntryData
dAk:_glProgramParameteri__wrapper
er:__ZN17CallbackArrayBaseIPFvP10UnitySceneS1_EPFvPKvS1_S1_EE8RegisterES3_S7_S5_
K3h:_ReadOnlyCollection_1_System_Collections_Generic_ICollectionU3CTU3E_get_IsReadOnly_m1215739200_gshared
ntf:_AnimationCurve_t3046754366_marshal_pinvoke
Znc:__Z32RectOffset_Get_Custom_PropBottomP12Il2CppObject
cxf:_Debug_LogError_m2850623458
urj:__ZL24UnresolvedVirtualCall_79P12Il2CppObjectPK10MethodInfo
hec:__ZNSt3__26__treeINS_12__value_typeIN4core12basic_stringIcNS2_20StringStorageDefaultIcEEEE4PPtrI7TextureEEENS_19__map_value_compareIS6_SA_NS_4lessIS6_EELb1EEENS_9allocatorISA_EEE7destroyEPNS_11__tree_nodeISA_PvEE
coj:__ZN25GenericVirtActionInvoker1IP24SingleU5BU5D_t1444911251E6InvokeEPK10MethodInfoP12Il2CppObjectS1_
Hoi:__Z69RuntimeInvoker_UInt64_t4134040092_Int32_t2950945753_SByte_t1669577662PFvvEPK10MethodInfoPvPS4_
zGe:__ZL74LayoutElement_t1785403678_CustomAttributesCacheGenerator_m_PreferredHeightP21CustomAttributesCache
Dok:_stat
yBa:__ZN9ShaderLab10SubProgram7CompileEv
pTi:_List_1_Contains_m353222571_gshared
gId:_PropertyBuilder_get_CanRead_m3783190070
g9:__ZN14SerializedFile14SerializedTypeD2Ev
Npa:__ZN9Scripting11UnityEngine12Experimental9Playables21TexturePlayableOutput9InitProxyEv
X5f:_CipherSuiteCollection_System_Collections_IList_get_Item_m2175128671
pya:__ZN6CameraD2Ev
rFc:__Z50Register_UnityEngine_Camera_get_pixelRect_Injectedv
la:invoke_iiiiiiiiiiii
K6g:_DateTime_System_IConvertible_ToType_m1242864300_AdjustorThunk
Hhf:_ValueCollection_get_Count_m994935123_gshared
f5e:_InternalEnumerator_1_get_Current_m2446410893_AdjustorThunk
aDa:__Z29CalculateDefaultChannelsToAdd17ShaderChannelMaskS_
wpe:__ZL89PlayableBinding_t354260709_CustomAttributesCacheGenerator_U3CstreamTypeU3Ek__BackingFieldP21CustomAttributesCache
gDg:_Array_Sort_m870838517
fUb:__ZNSt3__26__treeI20DeviceBlendStateGLES14MemoryCompLessI16DeviceBlendStateENS_9allocatorIS1_EEE7destroyEPNS_11__tree_nodeIS1_PvEE
Txj:_CanvasRenderer_SetMaterial_m633746949
OP:__ZN10AudioMixer12RebindOutputEv
Csj:__ZL25UnresolvedVirtualCall_141P12Il2CppObject19Vector2_t2156229523S0_PK10MethodInfo
k_j:__ZNK15dense_hashtableINSt3__24pairIK10KeyWrapperIP11Il2CppClassES4_EES5_N6il2cpp8metadata16SZArrayClassHashEN14dense_hash_mapIS5_S4_SA_NS5_14EqualsComparerINS9_19SZArrayClassCompareEEENS0_9allocatorIS7_EEE9SelectKeyESE_SG_E5beginEv
I_e:_InternalEnumerator_1__ctor_m819716934_gshared
nTf:_LayoutRebuilder_PerformLayoutControl_m4241054021
yCj:__ZN6il2cpp2vm17SetupFieldsLockedEP11Il2CppClassRKNS_2os12FastAutoLockE
qtf:_AnimationCurve__ctor_m1565662948
hQ:__ZN11AudioSourceD0Ev
bRb:__ZN18GlslGpuProgramGLES13SwitchProgramEj
RUb:__ZN20ArchiveStorageReaderC2E10MemLabelId
pfi:__Z132RuntimeInvoker_Int32_t2950945753_RuntimeObject_Int32_t2950945753_Int32_t2950945753_RuntimeObject_Int32_t2950945753_Int32_t2950945753PFvvEPK10MethodInfoPvPS4_
jgb:__ZN16MemoryFileSystem4NameEv
lxd:_ButtonState__ctor_m1506593332
SXj:_il2cpp_gchandle_free
IDc:__Z13SetCopyBufferRKN4core12basic_stringIcNS_20StringStorageDefaultIcEEEE
QEh:_Enumerator_get_Current_m2468920150_AdjustorThunk
l6i:_TlsException__ctor_m818940807
lzg:_X509CertificateEnumerator_System_Collections_IEnumerator_get_Current_m418791713
Ehd:__ZN14UnityAnalyticsD2Ev
Omc:__Z42ScriptingGetComponentsOfTypeFromGameObjectRK26ScriptingGetComponentsArgs
voe:__ZL73ArgumentCache_t2187958399_CustomAttributesCacheGenerator_m_ObjectArgumentP21CustomAttributesCache
iue:__ZL65AnimatorTransitionInfo_t2534804151_CustomAttributesCacheGeneratorP21CustomAttributesCache
$Ji:_Array_swap_TisRaycastResult_t3360306849_TisRaycastResult_t3360306849_m3400922624_gshared
pWc:__ZN9Scripting11UnityEngine21ControllerColliderHit9InitProxyEv
Aqf:_CspParameters__ctor_m2741097571
CTe:_EnumBuilder_get_DeclaringType_m4266754303
QNa:__ZNSt3__27__sort4IRPFbRKNS_4pairIN9ShaderLab16FastPropertyNameEN18UnityPropertySheet11UnityTexEnvEEES8_EPS6_EEjT0_SD_SD_SD_T_
Ycj:_Assertion_get_TrueExpression_m2743006331
O0c:_cf2_hintmap_build
QAj:_NativeHeaderAttribute_set_Header_m3310668383
JKf:_Texture_get_width_m888163864
Cmc:__Z11StringToIntRKN4core16basic_string_refIcEE
L9c:_Line_Up
CIi:_Array_Resize_TisRaycastResult_t3360306849_m1277390301_gshared
ge:_emscripten_glBufferSubData
Zjg:_String_ReplaceUnchecked_m1381393810
Tsh:_SymmetricTransform_CBC_m435753239
ntb:__Z18Transfer_BlittableI17RemapPPtrTransferLb1EyEvRK29SerializationCommandArgumentsR31RuntimeSerializationCommandInfo
fGe:__ZL76ContentSizeFitter_t3850442145_CustomAttributesCacheGenerator_m_HorizontalFitP21CustomAttributesCache
M7e:_DefaultComparer_Compare_m3278268937_gshared
Sp:__Z17CalculateGlobalRS23TransformAccessReadOnly
WQj:__ZN24dense_hashtable_iteratorINSt3__24pairIK10KeyWrapperINS1_IPK10MethodInfoP11Il2CppClassEEEjEES9_17ReflectionMapHashIS8_EN14dense_hash_mapIS9_jSD_NS9_14EqualsComparerINS0_8equal_toIS8_EEEENS0_9allocatorISB_EEE9SelectKeyESI_SK_E30advance_past_empty_and_deletedEv
tad:__Z56Register_UnityEngine_TextGenerator_GetCharactersInternalv
fjk:__ZNSt3__210__list_impIPN6il2cpp5utils10MemoryPool6RegionENS_9allocatorIS5_EEE5clearEv
lGb:__ZNK25PathNamePersistentManager24PathIDToPathNameInternalEi
ecb:__ZNK12HandlerChain7ToLocalERK13FileEntryDataRN4core12basic_stringIcNS3_20StringStorageDefaultIcEEEERyS9_
vrd:__ZN13RuntimeStaticINSt3__26vectorIN5physx25PxVehicleWheelQueryResultENS0_9allocatorIS3_EEEELb0EE16StaticInitializeEPv
rhi:__Z38RuntimeInvoker_MemberTypes_t3790569052PFvvEPK10MethodInfoPvPS4_
_8a:__ZN22MemoryCacherReadBlocks14LockCacheBlockEjPPhS1_
LZg:_StreamAsyncResult_get_NBytes_m548041729
FVj:__ZN6il2cpp2vm14TypeNameParser17ParseAssemblyNameEv
ZZa:__ZNK9GfxDevice26GetSinglePassStereoEyeMaskEv
qxf:_DebugLogHandler_Internal_Log_m4175774469
pFj:__ZN15dense_hashtableINSt3__24pairIK10KeyWrapperIP9FieldInfoEiEES5_N6il2cpp5utils11PointerHashIS3_EEN14dense_hash_mapIS5_iSB_NS5_14EqualsComparerINS0_8equal_toIS4_EEEENS0_9allocatorIS7_EEE9SelectKeyESG_SI_E13set_empty_keyERKS7_
Vck:__ZN4utf88internal15increase_safelyIPKcEENS0_9utf_errorERT_S5_
Khe:__ZL66StaticAccessorAttribute_t2432663902_CustomAttributesCacheGeneratorP21CustomAttributesCache
Hgg:_SecurityContext_get_CompressedStack_m3401528670
iHg:_CharEnumerator_get_Current_m525608209
W1e:_InternalEnumerator_1_Dispose_m887344916_AdjustorThunk
cud:__Z21ArrayElementTypeCheckP11Il2CppArrayPv
jzk:_emscripten_glTexSubImage2D__wrapper
yWa:__ZN18StreamedBinaryReadILb0EE21TransferSTLStyleArrayI13dynamic_arrayI33EnlightenTerrainChunksInformationLj0EEEEvRT_17TransferMetaFlags
N0d:__ZL69DebuggerBrowsableAttribute_t1026244177_CustomAttributesCacheGeneratorP21CustomAttributesCache
Ala:__ZL48__ManagedRegistrationHelperFunction_LightmapDataPv
vqk:__ZNSt3__212basic_stringIcNS_11char_traitsIcEENS_9allocatorIcEEE6appendEjc
vDb:__Z13TransferFieldI18StreamedBinaryReadILb0EELb0E16Converter_StringEvRK23StaticTransferFieldInfoR31RuntimeSerializationCommandInfoRT1_
led:__Z42Register_UnityEngine_Canvas_get_rootCanvasv
cbe:__ZL78Convert_t2465617642_CustomAttributesCacheGenerator_Convert_ToBoolean_m40300963P21CustomAttributesCache
Tpb:__Z14resize_trimmedINSt3__26vectorI8MonoPPtr13stl_allocatorIS2_L18MemLabelIdentifier1ELi16EEEEEvRT_j
Pe:_TTF_RenderText_Solid
Otf:__ZN23InterfaceActionInvoker3IP8String_tS1_iE6InvokeEjP11Il2CppClassP12Il2CppObjectS1_S1_i
yIh:_List_1__ctor_m3947764094_gshared
LYc:__ZN20TextRenderingPrivate21TextMeshGeneratorImpl5FlushEv
nfj:_Parser_IsIgnorePatternWhitespace_m2107132682
pid:__ZN14UnityAnalytics15Internal_CreateE18ScriptingObjectPtr
hpg:_HttpRequestCreator_Create_m400548686
Eod:__ZN11UnityEngine7Connect16PersistentValuesC2Ev
cli:__Z49RuntimeInvoker_RuntimeObject_StringU26_t181565287PFvvEPK10MethodInfoPvPS4_
L2h:_ReadOnlyCollection_1_System_Collections_IList_Insert_m134149130_gshared
eOc:__Z18Transfer_BlittableI9JSONWriteLb0E5RectTIiEEvRK29SerializationCommandArgumentsR31RuntimeSerializationCommandInfo
xoh:_BigInteger_get_Rng_m4216817480
Heh:_Array_InternalArray__ICollection_Remove_TisDateTime_t3738529785_m2250893026_gshared
p8d:__ZL67RijndaelManagedTransform_t4102601014_CustomAttributesCacheGeneratorP21CustomAttributesCache
RKb:__Z15IsIEEE754Format14GraphicsFormat
D9:__ZL12CreateStringPjR13dynamic_arrayIcLj0EEPKc
Btb:__Z19TransferField_ArrayI17RemapPPtrTransfer27Converter_UnityEngineObjectEvRK23StaticTransferFieldInfoR31RuntimeSerializationCommandInfoRT0_
TKg:_KeyNotFoundException__ctor_m541499307
Rba:__ZN13RuntimeStaticINSt3__23mapIN4core12basic_stringIcNS2_20StringStorageDefaultIcEEEES6_NS0_4lessIS6_EE13stl_allocatorINS0_4pairIKS6_S6_EEL18MemLabelIdentifier13ELi16EEEELb0EE16StaticInitializeEPv
dgh:_SetPropertyUtility_SetStruct_TisSpriteState_t1362986479_m665096788_gshared
Lfi:__Z61RuntimeInvoker_Single_t1397266774_RuntimeObject_RuntimeObjectPFvvEPK10MethodInfoPvPS4_
Eaj:_Enumerator__ctor_m1228633090
Neh:_Array_InternalArray__ICollection_Remove_TisIntPtr_t_m3807208150_gshared
wri:__Z71RuntimeInvoker_Void_t1185182177_Vector3_t3722313464_Vector3_t3722313464PFvvEPK10MethodInfoPvPS4_
F1e:_InternalEnumerator_1_get_Current_m2316281569_AdjustorThunk
V1g:_DateTime__ctor_m1095105629
gMb:__ZN13GfxDeviceGLES15UploadTexture2DE9TextureID16TextureDimensionPKhiii14GraphicsFormati18TextureUploadFlags16TextureUsageMode
chj:_Event_Cleanup_m2477919477
FO:__ZN4FMOD6System9createDSPEP20FMOD_DSP_DESCRIPTIONPPNS_3DSPE
yae:__ZL87Thread_t2300836069_CustomAttributesCacheGenerator_Thread_GetCompressedStack_m2923422412P21CustomAttributesCache
XJf:_HitInfo_t3229609740_marshal_pinvoke_back
gbg:_SslClientStream_get_ClientCertificates_m998716871
LRd:__ZN21InterfaceFuncInvoker0IP8String_tE6InvokeEjP11Il2CppClassP12Il2CppObject
PM:__ZN4FMOD8ChannelI11EndCallbackEv
CKc:__ZN8GUIStyle14SetDefaultFontEPN13TextRendering4FontE
cOi:_List_1_ToArray_m2860284581_gshared
ATa:__ZN15QualitySettings23VirtualRedirectTransferER24GenerateTypeTreeTransfer
Xmf:_ObjectReader_ReadValue_m3145979203
gK:__ZN9Scripting11UnityEngine24AssetBundleCreateRequest9InitProxyEv
aAd:_CanvasScaler_OnDisable_m3424669401
ngf:_Transform_1_BeginInvoke_m500585065_gshared
GEc:__Z59Register_UnityEngine_MonoBehaviour_Internal_CancelInvokeAllv
DEe:__ZL68Scrollbar_t1494447233_CustomAttributesCacheGenerator_m_NumberOfStepsP21CustomAttributesCache
LXf:_ScrollRect_set_content_m321343743
IFj:__ZN30dense_hashtable_const_iteratorINSt3__24pairIK10KeyWrapperIPK19Il2CppGenericMethodEPK26Il2CppGenericMethodIndicesEES6_N6il2cpp8metadata23Il2CppGenericMethodHashEN14dense_hash_mapIS6_SA_SE_NS6_14EqualsComparerINSD_26Il2CppGenericMethodCompareEEENS0_9allocatorISB_EEE9SelectKeyESI_SK_EppEv
JZc:_UNITY_FT_Request_Metrics
nKa:__ZN7Texture8TransferI18StreamedBinaryReadILb0EEEEvRT_
I2j:__ZN6il2cpp6icalls8mscorlib6System10Reflection10MonoMethod29get_IsGenericMethodDefinitionEP22Il2CppReflectionMethod
gZj:__ZN6il2cpp2vm6Thread21AllocThreadStaticDataEi
ize:__ZL63AnalyticsSessionState_t681173134_CustomAttributesCacheGeneratorP21CustomAttributesCache
RPg:_NumberFormatInfo_get_PercentNegativePattern_m1304634118
gEa:__ZL12CopyChannelsj17ShaderChannelMaskRA4_K10StreamInfoRA12_K11ChannelInfoPKhS3_S7_Ph
gRe:_Default_SelectMethod_m469311730
xAf:_Input_get_mousePosition_m1616496925
bck:__ZN30dense_hashtable_const_iteratorINSt3__24pairIK10KeyWrapperIPK19Il2CppGenericMethodEP10MethodInfoEES6_N6il2cpp8metadata23Il2CppGenericMethodHashEN14dense_hash_mapIS6_S9_SD_NS6_14EqualsComparerINSC_26Il2CppGenericMethodCompareEEENS0_9allocatorISA_EEE9SelectKeyESH_SJ_EppEv
aTh:_UInt32_ToString_m2066897296_AdjustorThunk
F9a:__ZN24GenerateTypeTreeTransfer19TransferSTLStyleMapINSt3__23mapI4PPtrI6ShaderEN4core12basic_stringIcNS6_20StringStorageDefaultIcEEEENS1_4lessIS5_EENS1_9allocatorINS1_4pairIKS5_SA_EEEEEEEEvRT_17TransferMetaFlags
iLg:_Enumerator_Reset_m4274366540
DNc:__Z18Transfer_BlittableI9JSONWriteLb0E8Vector3fEvRK29SerializationCommandArgumentsR31RuntimeSerializationCommandInfo
vca:__ZN13RuntimeStaticI17UniqueIDGeneratorLb0EE13StaticDestroyEPv
Of:_emscripten_glUniform4i
cte:__ZL103Transform_t3600365921_CustomAttributesCacheGenerator_Transform_INTERNAL_CALL_TransformPoint_m4261269221P21CustomAttributesCache
_Df:_PlayerConnection_RegisterDisconnection_m2618599213
_e:_emscripten_glUniform4f
wj:___unlock
N5i:_TlsCipherSuite_ComputeServerRecordMAC_m3941098609
N2c:_otv_validate
Wac:__ZN13sorted_vectorINSt3__24pairIN4core12basic_stringIcNS2_20StringStorageDefaultIcEEEES6_EEN10vector_mapIS6_S6_27compare_tstring_insensitiveIS6_E13stl_allocatorIS7_L18MemLabelIdentifier38ELi16EEE13value_compareESD_E9erase_oneIS6_EEjRKT_
Jwh:_DefaultComparer__ctor_m963958896_gshared
Xeg:_X509Certificate_Equals_m3784196370
CWi:_List_1__ctor_m3376067838_gshared
SQ:__ZN20SoundChannelInstance19setReverbPropertiesEP29FMOD_REVERB_CHANNELPROPERTIES
IFh:_Enumerator_MoveNext_m1446151600_gshared
Lcg:_SHA1Internal_ProcessFinalBlock_m1403775421
tye:__ZL87Canvas_t3310196443_CustomAttributesCacheGenerator_Canvas_get_sortingLayerID_m3685979122P21CustomAttributesCache
cYi:_Queue_1_System_Collections_ICollection_CopyTo_m3452613063_gshared
wde:__ZL69Math_t1671470975_CustomAttributesCacheGenerator_Math_Sqrt_m1297338011P21CustomAttributesCache
Kqc:__Z40Register_UnityEngine_Transform_IsChildOfv
jkf:_RemotingServices_GetOrCreateClientIdentity_m648299611
h7e:_InternalEnumerator_1_get_Current_m2356858238_AdjustorThunk
Poc:__Z45Register_UnityEngine_Display_GetSystemExtImplv
Gsh:_RSAManaged_ImportParameters_m1844641996
a3d:__ZL67AssemblyProductAttribute_t1000945320_CustomAttributesCacheGeneratorP21CustomAttributesCache
skb:__ZN9GfxDevice31DrawIndexedNullGeometryIndirectE16GfxPrimitiveTypeP9GfxBuffer15ComputeBufferIDj
O9e:_Enumerator_System_Collections_IDictionaryEnumerator_get_Value_m3325938730_AdjustorThunk
yx:__ZN7mecanim9animation23TransformValuesFromClipEiiiRKNS_10ValueArrayERKNS0_10ClipOutputERKNS0_12ClipBindingsERS1_RNS_14ValueArrayMaskEb
lFa:__ZN14SafeBinaryRead21TransferSTLStyleArrayI13dynamic_arrayI21PlatformShaderDefinesLj0EEEEvRT_17TransferMetaFlags
XHi:_Array_qsort_TisOrderBlock_t1585977831_TisOrderBlock_t1585977831_m1675918557_gshared
qVc:__GLOBAL__sub_I_Runtime_Dynamics_0_cpp
Ehf:_ValueCollection_System_Collections_ICollection_get_SyncRoot_m1114275063_gshared
Lzj:__ZL17log2withScale_128yyi
hRg:_Guid_Equals_m1866984197
Lhd:__ZN14UnityAnalytics19ConfigChangedStaticEPS_RKN4core12basic_stringIcNS1_20StringStorageDefaultIcEEEER8JSONReadb
yaf:_Enumerator__ctor_m65667165_gshared
VPe:_PlatformNotSupportedException__ctor_m1787918017
Sda:__ZN13RuntimeStaticI15DirectorManagerLb0EE16StaticInitializeEPv
H$h:_ReadOnlyCollection_1_System_Collections_ICollection_CopyTo_m2643246984_gshared
w1a:__ZN11TimeManager6UpdateEv
yGh:_Enumerator_System_Collections_IEnumerator_get_Current_m209407522_gshared
Aof:_StreamingContext_GetHashCode_m2281950854_AdjustorThunk
tZe:_InternalEnumerator_1__ctor_m619554185_AdjustorThunk
Vzd:_CanvasScaler_get_fallbackScreenDPI_m2811935689
Er:__ZNK16ParentConstraint18GetTranslationAxisEv
Tkf:_WellKnownServiceTypeEntry_get_ObjectUri_m560402900
lNg:_DateTimeFormatInfo_ReadOnly_m890935083
I1h:_ReadOnlyCollection_1_System_Collections_ICollection_get_SyncRoot_m1280260618_gshared
hSf:_LayoutElement_set_preferredHeight_m1999633022
Kok:_fflush
m7a:__ZN17LightProbeContext4InitERK16LightmapSettingsRK14RenderSettings
uii:__Z82RuntimeInvoker_Int32_t2950945753_RuntimeObject_Int32_t2950945753_SByte_t1669577662PFvvEPK10MethodInfoPvPS4_
O3b:__ZN18DeferredRenderLoop14RenderLightingER21ActiveLightingContextP13RenderTexture9TextureIDPS3_iRK8Vector4fRK14LightingLayersR10MinMaxAABBb12ObjectHandleI17RenderSurface_TagP17RenderSurfaceBaseE
DJf:_SceneManager_Internal_ActiveSceneChanged_m3676176255
b9i:_X509Certificate_GetIssuerName_m1142198382
Wej:_ExpressionAssertion_set_Negate_m1236561973
jbh:_Double_System_IConvertible_ToInt16_m3591921965
hZa:__ZN9Texture3DD2Ev
IVh:_Collection_1_set_Item_m4280581817_gshared
lHd:_Image_get_fillMethod_m1027254375
Yya:__ZN10ColorRGBAf8TransferI19StreamedBinaryWriteILb0EEEEvRT_
cae:__ZL97CompressedStack_t1202932761_CustomAttributesCacheGenerator_CompressedStack_CreateCopy_m2591279216P21CustomAttributesCache
j1g:_Convert_ToChar_m2796006345
AGi:_Array_InternalArray__Insert_TisContentType_t1787303396_m3566390691_gshared
U7j:__ZNSt3__26vectorI20Il2CppStackFrameInfoNS_9allocatorIS1_EEE7reserveEj
bca:__ZN5CacheD2Ev
yIg:_ArrayListWrapper_GetEnumerator_m2336495952
t6b:__Z34ProcessIndexListIsNodeVisibleStep2RK22SceneCullingParametersPK9SceneNodePK4AABBR9IndexList
dEb:__ZN10MonoScriptD2Ev
soa:__ZN9Scripting11UnityEngine10Networking16PlayerConnection16PlayerConnection12CleanupProxyEv
Pia:__ZN6prcoreL12RemapGenericI17TexFormatARGB888817TexFormatBGRA8888EEvPKNS_9InnerInfoE
LTb:__ZN19ConstantBuffersGLES8UpdateCBE5CbKeyPKvj
Czd:_U3COnFinishSubmitU3Ec__Iterator0_System_Collections_Generic_IEnumeratorU3CobjectU3E_get_Current_m2586882303
qoj:_AudioSource_get_spatializeInternal_m2117549793
jrc:__Z39Input_CUSTOM_INTERNAL_get_mousePositionP8Vector3f
qnf:_SerializationCallbacks_GetMethodsByAttribute_m2095490433
r5c:_tt_cmap13_char_next
Lze:__ZL117EventSystem_t1003666588_CustomAttributesCacheGenerator_EventSystem_t1003666588____lastSelectedGameObject_PropertyInfoP21CustomAttributesCache
BWb:__ZN9ShaderLab4Pass16SetupPassOptionsEv
hWi:_List_1_GetIndex_m1042356532_gshared
ch:_JS_Sound_ReleaseInstance
yYj:_il2cpp_type_equals
LQg:_Guid_CheckArray_m921056615
xSd:_ConfigHandler_ReadLifetine_m208994800
gbf:_Enumerator_System_Collections_IDictionaryEnumerator_get_Entry_m3417028588_AdjustorThunk
BQj:__ZNK15dense_hashtableINSt3__24pairIK10KeyWrapperINS1_IPK10MethodInfoP11Il2CppClassEEEjEES9_17ReflectionMapHashIS8_EN14dense_hash_mapIS9_jSD_NS9_14EqualsComparerINS0_8equal_toIS8_EEEENS0_9allocatorISB_EEE9SelectKeyESI_SK_E12test_deletedEj
h$j:__ZN6il2cpp6icalls8mscorlib6System7Runtime15InteropServices7Marshal19copy_from_unmanagedEiiP11Il2CppArrayi
pRh:_UInt16_System_IConvertible_ToByte_m3185614807_AdjustorThunk
Sag:_SecurityParameters_set_ServerWriteMAC_m3003817350
cof:_SerializationEntry_get_Value_m2039470570
oHf:_Rect_get_max_m350137314_AdjustorThunk
Dm:FUNCTION_TABLE_diddi
G0j:__ZN6il2cpp6icalls8mscorlib6System5Array8FastCopyEP11Il2CppArrayiS5_ii
SMj:__ZNSt3__26vectorIPK10MethodInfoNS_9allocatorIS3_EEE21__push_back_slow_pathIRKS3_EEvOT_
rzi:__Z54RuntimeInvoker_Boolean_t97287965_LabelFixup_t858502054PFvvEPK10MethodInfoPvPS4_
icd:__ZNK2UI14CanvasRenderer22GetTypeVirtualInternalEv
kUi:_List_1_Clear_m2244610185_gshared
moc:__Z42Register_UnityEngine_RectOffset_get_bottomv
u1d:__ZL55BinaryReader_t2428077293_CustomAttributesCacheGeneratorP21CustomAttributesCache
lok:_newlocale
DPe:_ObjectDisposedException_get_Message_m1666887471
Irb:__ZN9BoundsInt8TransferI14SafeBinaryReadEEvRT_
G$b:__Z20DoDeferredRenderLoopRK17RenderLoopContextR13dynamic_arrayI16RenderObjectDataLj0EES5_RK11CullResultsRP13RenderTextureSB_Pb
mxk:_emscripten_glUniform1f__wrapper
rsk:dynCall_di
czg:_X509Certificate_get_SubjectName_m3160893681
t6a:__ZN21EnlightenSceneMapping6AppendEiRKS_
byf:_BaseInvokableCall_AllowInvoke_m878393606
lNc:__Z28RegisterModule_JSONSerializev
akd:__ZThn1168_N18UnityConnectClientD1Ev
Kxf:_DisplaysUpdatedDelegate__ctor_m2116638722
ZUc:__ZL57__ManagedRegistrationHelperFunction_CachedContactPoints2DPv
$9a:__ZN2UI13RectTransform8TransferI14SafeBinaryReadEEvRT_
wOc:__Z35Transfer_Blittable_FixedBufferFieldI9JSONWriteaEvRK29SerializationCommandArgumentsR31RuntimeSerializationCommandInfo
quf:_Behaviour_get_enabled_m753527255
kpc:__Z20IsHumanControllingUsv
chf:_Enumerator_MoveNext_m181298207_gshared
ODi:__Z44RuntimeInvoker_ParameterModifier_t1461694466PFvvEPK10MethodInfoPvPS4_
v1:__ZNK20DynamicHeapAllocatorI17LowLevelAllocatorE10GetPtrSizeEPKv
Kwb:__Z18Transfer_BlittableI19StreamedBinaryWriteILb0EELb1EtEvRK29SerializationCommandArgumentsR31RuntimeSerializationCommandInfo
QWi:_List_1_System_Collections_IList_get_IsReadOnly_m3278465421_gshared
o1d:__ZL51TextInfo_t3810425522_CustomAttributesCacheGeneratorP21CustomAttributesCache
xmc:__ZN10systeminfo21GetPersistentDataPathEv
$jd:__ZThn1168_N18UnityConnectClient18OnAdsIdRequestDoneERKN4core12basic_stringIcNS0_20StringStorageDefaultIcEEEEbS6_
fkj:_SymmetricTransform_get_KeepLastBlock_m2492071306
FLb:__ZN13GfxDeviceGLES17DestroyGpuProgramEPK10GpuProgram
yHi:_Array_InternalArray__set_Item_TisRaycastResult_t3360306849_m730888808_gshared
bob:__Z44InitializeTransferFunctionScriptingTraitsForI18StreamedBinaryReadILb0EEEvR31TransferFunctionScriptingTraits
Fgf:_Enumerator_System_Collections_IEnumerator_Reset_m53411943_gshared
_1b:__ZNSt3__218__insertion_sort_3IR23CompareReflectionProbesP31RuntimeReflectionProbeBlendInfoEEvT0_S5_T_
Ltb:__ZN12NativeBufferI27Converter_SimpleNativeClassI8GradientEE15SetupForWritingER9ArrayInfo
dph:_Kernel_RightShift_m2207393597
Mga:__ZNSt3__213__stable_sortIRNS_4lessIN4core12basic_stringIcNS2_20StringStorageDefaultIcEEEEEENS_11__wrap_iterIPS6_EEEEvT0_SC_T_NS_15iterator_traitsISC_E15difference_typeEPNSF_10value_typeEi
BHe:__ZL48Shadow_t773074319_CustomAttributesCacheGeneratorP21CustomAttributesCache
N2:__ZN12_GLOBAL__N_113StaticDestroyEPv
XJc:__ZNK8GUIStyle4DrawER8GUIStateRK5RectTIfER10GUIContentbbbb
YBk:_glUnmapBuffer__wrapper
nff:_Transform_1__ctor_m3369371265_gshared
dSc:__ZN8JSONRead21TransferSTLStyleArrayINSt3__26vectorI8Gradient13stl_allocatorIS3_L18MemLabelIdentifier1ELi16EEEEEEvRT_17TransferMetaFlags
x3a:__ZNSt3__218__insertion_sort_3IRNS_6__lessINS_4pairIPKN5Unity4TypeE7Hash128EES8_EEPS8_EEvT0_SC_T_
mPf:_InputField_set_onValueChanged_m3658917578
tvb:__ZN10RectOffset8TransferI24GenerateTypeTreeTransferEEvRT_
Z5i:_TlsClientSettings_get_ClientCertificate_m3139459118
qVg:_BinaryReader__ctor_m2266204403
fqa:__ZN9Scripting11UnityEngine6Events14UnityEventBase9InitProxyEv
pEh:_Enumerator_VerifyState_m3047769867_AdjustorThunk
Fub:__Z18Transfer_BlittableI24GenerateTypeTreeTransferLb1E5RectTIiEEvRK29SerializationCommandArgumentsR31RuntimeSerializationCommandInfo
pbj:_Enumerator_System_Collections_IEnumerator_Reset_m24787251
tcd:__ZN2UI13CanvasManager19RemoveDirtyRendererEPNS_6CanvasEPNS_14CanvasRendererE
nnk:_isspace
flf:_BinaryFormatter__ctor_m2620705134
zHb:__Z15GetIApplicationv
rld:__ZN11UnityEngine15PlatformWrapper25GetGraphicsRendererStringEv
nLh:_UTF7Encoding_InternalGetBytes_m797138468
Qsc:__ZZL31RegisterRectTransformPropertiesR22GenericPropertyBindingEN39Wrapper_RectTransformAnchoredPositiony113SetFloatValueEPvf
Z$:__ZN11UnityEngine15CloudWebService17WebFileDownloaderINS0_20WebRequestRestClientENS0_23WebRequestRestHeaderMapEED2Ev
Nb:invoke_vi
hM:__ZN12AudioManager8InitFMODE15FMOD_OUTPUTTYPE
Kzg:_SmallXmlParser_HandleWhitespaces_m549588711
Lb:invoke_vd
Lya:__ZNK6Camera19GetStereoViewMatrixE15StereoscopicEye
dbj:_Regex_get_RightToLeft_m2317867572
Daa:__ZNK10GameObject8IsActiveEv
PGc:__Z34Component_Get_Custom_PropTransformP12Il2CppObject
vye:__ZL83Canvas_t3310196443_CustomAttributesCacheGenerator_Canvas_get_rootCanvas_m3165691493P21CustomAttributesCache
Yxe:__ZL67g_UnityEngine_PhysicsModule_Assembly_CustomAttributesCacheGeneratorP21CustomAttributesCache
S8i:_X509Certificate_get_SignatureAlgorithm_m122054440
UQb:__ZN18GfxFramebufferGLES23SetupDefaultFramebufferEPP17RenderSurfaceBaseS2_N2gl6HandleILNS3_10ObjectTypeE9EEE
S_h:_ReadOnlyCollection_1_get_Item_m3437922467_gshared
MCd:_DefaultControls_CreateDropdown_m3286664171
bZa:__ZN13ScreenManager18RequestOrientationE17ScreenOrientation
XCj:__ZN6il2cpp2vm5Class12SetupMethodsEP11Il2CppClass
hCc:__Z39DeleteLastPathNameComponentWithAnySlashRKN4core12basic_stringIcNS_20StringStorageDefaultIcEEEE
kLc:__ZN10GUIManager14InitGUIManagerEv
dri:__Z77RuntimeInvoker_Void_t1185182177_RegexOptionsU26_t1638284957_SByte_t1669577662PFvvEPK10MethodInfoPvPS4_
PGe:__ZL78LayoutRebuilder_t541313304_CustomAttributesCacheGenerator_U3CU3Ef__amU24cache1P21CustomAttributesCache
wNj:__ZNSt3__26vectorIP11Il2CppClassNS_9allocatorIS2_EEE26__swap_out_circular_bufferERNS_14__split_bufferIS2_RS4_EE
RRh:_UInt16_Equals_m642257745
RBg:_Array_System_Collections_IList_IndexOf_m3301661616
JQe:_AssemblyFileVersionAttribute__ctor_m3720707642
TNf:_WaitForSeconds__ctor_m2199082655
KPd:_RuntimeResourceSet_CloneDisposableObjectIfPossible_m2725520898
rsf:_HMACSHA384_set_ProduceLegacyHmacValues_m76936446
GKc:__Z37Register_UnityEngine_GUIStyle_Cleanupv
Ka:invoke_iiifii
BFc:__Z26Mesh_CUSTOM_SetIndicesImplP12Il2CppObjecti16GfxPrimitiveTypeP11Il2CppArrayihi
e_f:_SliderEvent__ctor_m3149452941
Vyg:_DeriveBytes__cctor_m1212925033
Eyd:_UIBehaviour_OnDestroy_m1613239498
Ztc:__ZN8GUILayer12AddToManagerEv
vFd:_Graphic_OnDisable_m1097930217
jNj:__ZN6il2cpp6icalls8mscorlib6System8MonoType13IsPointerImplEP20Il2CppReflectionType
Pi:_emscripten_glFramebufferRenderbuffer
W4b:__ZN19CullingGroupManager17CullAndSendEventsERK22SceneCullingParametersiRK13CullingOutputRK8JobFence
NRd:__ZN21InterfaceFuncInvoker3IP12Il2CppObjectP8String_tS1_PS3_E6InvokeEjP11Il2CppClassS1_S3_S1_S4_
Hyj:_AnimationLayerMixerPlayable_GetHandle_m3854437798_AdjustorThunk
_Oi:_List_1_ToArray_m2949058867_gshared
Jse:__ZL98DataUtility_t2196215967_CustomAttributesCacheGenerator_DataUtility_Internal_GetMinSize_m2628270685P21CustomAttributesCache
exa:__ZN9Transform30EnsureTransformHierarchyExistsEv
MPh:_Type_FilterName_impl_m2651733559
PV:__ZN11AudioModule26SetDefaultMicrophoneDriverEPv
HBh:_GenericEqualityComparer_1_GetHashCode_m457148860_gshared
Buh:_Dictionary_2_System_Collections_Generic_ICollectionU3CSystem_Collections_Generic_KeyValuePairU3CTKeyU2CTValueU3EU3E_Add_m1448015620_gshared
Cpc:__Z46Register_UnityEngine_Application_get_isPlayingv
GXh:_Collection_1_ClearItems_m2182923889_gshared
kDc:__ZN13MonoBehaviour13StopCoroutineEPKc
Iac:__ZNSt3__26vectorINS_4pairIN4core12basic_stringIcNS2_20StringStorageDefaultIcEEEEPK17MessageIdentifierEENS_9allocatorISA_EEE12__move_rangeEPSA_SE_SE_
OZb:__ZN14qsort_internal17MedianOfThreeSwapIP17RODataReplacement19ROSorterReplacementEEvT_S4_S4_T0_
Zig:_String_Split_m3646115398
eIf:_RectOffset_ToString_m2007443979
NBj:__ZNK15dense_hashtableINSt3__24pairIK10KeyWrapperIPK22Il2CppGenericParameterEP11Il2CppClassEES6_N6il2cpp5utils11PointerHashIS4_EEN14dense_hash_mapIS6_S9_SE_NS6_14EqualsComparerINS0_8equal_toIS5_EEEENS0_9allocatorISA_EEE9SelectKeyESJ_SL_E3endEv
gCc:__ZN17TransformInternal36OnScaleChangedCalculateTransformTypeE15TransformAccess
Kdb:__ZN17ArchiveFileSystem10ToAbsoluteEPKc
Uxc:__Z13RegisterClassI11PreloadDataEvPKc
jFc:__Z35Camera_CUSTOM_RaycastTry2D_InjectedP12Il2CppObjectRK3Rayfi
bmd:__ZN19UnityConnectService15GetPlayerUserIdEv
Vih:_Array_InternalArray__IndexOf_TisSByte_t1669577662_m4156538463_gshared
EC:__ZN7mecanim6CRCKeyENS_7eStringE
nqj:__ZL24UnresolvedVirtualCall_18P12Il2CppObjectiPK10MethodInfo
roc:__ZL12SetPrefValueRKN4core12basic_stringIcNS_20StringStorageDefaultIcEEEERK9PrefValue
kac:__Z21GetBackgroundJobQueuev
Pec:__ZL30ReconstructParamNamesFromTableIN9ShaderLab20SerializedSubProgram15MatrixParameterEEvRK14dense_hash_mapIiN4core17string_with_labelILi1EEE18SInt32HashFunctionNSt3__28equal_toIiEE13stl_allocatorINS8_4pairIKiS6_EEL18MemLabelIdentifier1ELi16EEERNS8_6vectorIT_NS8_9allocatorISL_EEEE
MZa:__ZN19ShaderPropertySheet20ReservePropertyCountEj
Bck:__ZN6il2cpp5utils11StringUtils6PrintfEPKcz
A_j:__ZNSt3__26vectorIN6il2cpp8metadata18GenericArrayMethodENS_9allocatorIS3_EEE7reserveEj
ZNa:__ZN15NameToObjectMapI6ShaderNSt3__23mapI4PPtrIS0_EN4core12basic_stringIcNS5_20StringStorageDefaultIcEEEENS1_4lessIS4_EENS1_9allocatorINS1_4pairIKS4_S9_EEEEEENS1_8multimapIS9_S4_NSA_IS9_EENSC_INSD_IKS9_S4_EEEEEEE4FindERSK_
WPa:__ZN24GenerateTypeTreeTransfer21TransferResourceImageE19ActiveResourceImagePKcR13StreamingInfoPvjiPKN5Unity4TypeE
JJi:_Array_Sort_TisVector3_t3722313464_m1030213405_gshared
l6j:__ZN6il2cpp2vm6Object5CloneEP12Il2CppObject
Fte:__ZL94TextGenerator_t3211863866_CustomAttributesCacheGenerator_TextGenerator_Dispose_cpp_m1826354328P21CustomAttributesCache
Gkk:__ZN6il2cpp6icalls8mscorlib6System9Threading5Mutex20CreateMutex_internalEbP12Il2CppStringPb
boe:__ZL47Time_t2420636075_CustomAttributesCacheGeneratorP21CustomAttributesCache
Ewf:_Coroutine_Finalize_m1957108547
Tjj:_KeyBuilder_Key_m2503211157
xGa:__ZNSt3__212__deque_baseI18ReflectionProbeJobNS_9allocatorIS1_EEED2Ev
ZB:__ZN11UnityEngine9Animation27DestroyAnimationSetBindingsEPNS0_20AnimationSetBindingsERN7mecanim6memory9AllocatorE
Vec:__ZN15dense_hashtableINSt3__24pairIKiN4core17string_with_labelILi1EEEEEi18SInt32HashFunctionN14dense_hash_mapIiS5_S7_NS0_8equal_toIiEE13stl_allocatorIS6_L18MemLabelIdentifier1ELi16EEE9SelectKeyESA_SD_E13set_empty_keyERKS6_
twf:_Component_GetComponentInChildren_m388868270
_Bh:_GenericEqualityComparer_1_Equals_m1705889345_gshared
wI:__ZN8Animator12CleanupClassEv
mGd:__ZN21InterfaceFuncInvoker0IiE6InvokeEjP11Il2CppClassP12Il2CppObject
Bgd:__ZN17CallbackArrayBaseIPFvP6CameraEPFvPKvS1_EE8RegisterES3_S7_S5_
Zog:_FtpWebRequest__cctor_m699542155
hFg:_Byte_System_IConvertible_ToBoolean_m2888023769
q5j:__GLOBAL__sub_I_GenericMetadata_cpp
FZd:__ZL70RuntimeArray_CustomAttributesCacheGenerator_Array_SetValue_m3412648248P21CustomAttributesCache
Yng:_NameObjectCollectionBase_GetEnumerator_m3677320185
T5b:__Z24CalculateSpotLightBoundsffRK10Matrix4x4fR15SpotLightBounds
idi:_ListPool_1_Get_m3176656818_gshared
HJa:__ZNK13RenderTexture21GetShadowSamplingModeEv
GX:__ZN23CloudWebServicesManager23VirtualRedirectTransferER14SafeBinaryRead
Tyg:_PKCS12_AddCertificate_m3857004455
Olf:_WellKnownClientTypeEntry_ToString_m1119458503
sFb:__Z19ShouldTransferFieldR32SerializationCommandQueueBuilder17ScriptingClassPtriR18TransferField_InfoRK20CoreScriptingClasses
h8d:__ZL67RSACryptoServiceProvider_t2683512874_CustomAttributesCacheGeneratorP21CustomAttributesCache
IEc:__Z48Register_UnityEngine_MonoBehaviour_InvokeDelayedv
ogg:_SecurityElement_IsValidText_m1346599242
Dtc:__Z33PPtrToObjectDontLoadNoThreadCheckI8MaterialEPT_4PPtrIS1_E
onb:__ZN26SinglePassStereoSupportExt21SetStereoMatrixCommonE21MonoOrStereoscopicEye24BuiltinShaderMatrixParamRK10Matrix4x4f
pP:__ZN5audio5mixer22UpdateAudioMixerMemoryERKNS0_18AudioMixerConstantERNS0_16AudioMixerMemoryEfPN4FMOD6SystemEf
IWc:__ZL21InitializeCachedStripPv
Hth:_Dictionary_2_System_Collections_Generic_ICollectionU3CSystem_Collections_Generic_KeyValuePairU3CTKeyU2CTValueU3EU3E_Add_m3652125112_gshared
C9b:__ZN19CustomRenderTexture16GetRenderTextureEv
xae:__ZL80Thread_t2300836069_CustomAttributesCacheGenerator_Thread_GetHashCode_m3479107071P21CustomAttributesCache
W$j:__ZN6il2cpp6icalls8mscorlib6System9Threading6Thread23GetCachedCurrentCultureEP12Il2CppThread
Nxa:__ZNK6Camera22GetWorldToCameraMatrixEv
Crk:runPostSets
P7j:__ZN6il2cpp2vm12GenericClass11IsValueTypeEP18Il2CppGenericClass
Gdc:__ZN13ScreenManager24SetIsFullscreenImmediateEb
EEb:__ZN13MonoBehaviour7SetNameEPKc
hWd:_MethodDictionary_IsOverridenKey_m946843558
DXg:_FileStream_BeginRead_m2419864669
wci:_U3CStartU3Ec__Iterator0_MoveNext_m4270440387_gshared
cHj:__ZN10KeyWrapperIN6il2cpp5utils13dynamic_arrayIPK10Il2CppTypeLj4EEEEC2ERKS7_
EJb:__ZN17InstancingBatcher22FindCBUpperBoundKonstsEv
Mhd:__ZN11UnityEngine9Analytics15AnalyticsConfig13ConfigChangedERKN4core12basic_stringIcNS2_20StringStorageDefaultIcEEEER8JSONRead
m6a:__ZN18AwakeFromLoadQueue5ClearEv
_Xg:_FileStream_SetLength_m99749826
n4b:__ZNSt3__27__sort5IR15ReflProbeSorterPP15ReflectionProbeEEjT0_S6_S6_S6_S6_T_
Hea:__ZN8Playable10DisconnectEPS_i
vk:_glGenTransformFeedbacks
y5a:__ZN13LoadOperationD2Ev
uye:__ZL86Canvas_t3310196443_CustomAttributesCacheGenerator_Canvas_set_sortingLayerID_m861680532P21CustomAttributesCache
OHh:_List_1_System_Collections_ICollection_get_SyncRoot_m1990178029_gshared
$Rg:_Int16_System_IConvertible_ToType_m3672347013
UUf:_Navigation_set_mode_m3709908198_AdjustorThunk
J$d:__ZL86MSCompatUnicodeTable_t1453885583_CustomAttributesCacheGenerator_U3CU3Ef__switchU24map4P21CustomAttributesCache
pAg:_AttrListImpl_GetValue_m3657391095
vIb:__Z21PlayerStartFirstSceneb
hXi:_List_1_CheckIndex_m3933537097_gshared
RNa:__ZNSt3__27__sort5IRPFbRKNS_4pairIN9ShaderLab16FastPropertyNameEN18UnityPropertySheet11UnityTexEnvEEES8_EPS6_EEjT0_SD_SD_SD_SD_T_
YOb:__ZNK7ApiGLES18GetExtensionStringEv
JWi:_List_1_System_Collections_IList_IndexOf_m2444653486_gshared
Mpi:__Z50RuntimeInvoker_SecurityCompressionType_t4242483129PFvvEPK10MethodInfoPvPS4_
nxk:_emscripten_glVertexAttrib1f__wrapper
Kwh:_DefaultComparer_GetHashCode_m402448534_gshared
Gbb:__ZNK12HandlerChain4SizeERK13FileEntryData
Wo:FUNCTION_TABLE_iiiiiiiii
Xaf:_Enumerator_Dispose_m1360775770_AdjustorThunk
o_i:_Collection_1_ClearItems_m1096166028_gshared
h0h:_ReadOnlyCollection_1_System_Collections_Generic_ICollectionU3CTU3E_Remove_m4177779688_gshared
rra:__ZN9Scripting11UnityEngine14AnimationCurve9InitProxyEv
OGg:_Char_IsLetter_m3996985877
ZXi:_Queue_1_Peek_m2302800625_gshared
aZd:__ZL51Delegate_t1188392813_CustomAttributesCacheGeneratorP21CustomAttributesCache
hee:__ZL56WeakReference_t1334886716_CustomAttributesCacheGeneratorP21CustomAttributesCache
DOi:_List_1_AddCollection_m4263017124_gshared
Cfk:_GC_allochblk
JTd:__ZN21InterfaceFuncInvoker1IbP19Context_t3285446944E6InvokeEjP11Il2CppClassP12Il2CppObjectS1_
E6a:__Z15UnloadGameScenev
Clh:_Array_InternalArray__ICollection_CopyTo_TisKeyframe_t4206410242_m2132255743_gshared
TBk:_glCheckFramebufferStatus__wrapper
cHd:_Image__ctor_m2551076292
xif:_Dictionary_2_System_Collections_ICollection_CopyTo_m3143696177_gshared
ETj:__ZN15dense_hashtableINSt3__24pairIK10KeyWrapperIPK14Il2CppAssemblyEPK22Il2CppMonoAssemblyNameEES6_N6il2cpp5utils11PointerHashIS4_EEN14dense_hash_mapIS6_SA_SF_NS6_14EqualsComparerINS0_8equal_toIS5_EEEENS0_9allocatorISB_EEE9SelectKeyESK_SM_E5clearEv
Khi:__Z103RuntimeInvoker_Void_t1185182177_Int32_t2950945753_Int32_t2950945753_Int32_t2950945753_SByte_t1669577662PFvvEPK10MethodInfoPvPS4_
St:__ZN16MecanimAnimationD0Ev
Zqj:__ZL24UnresolvedVirtualCall_56P12Il2CppObjectS0_iiS0_S0_PK10MethodInfo
Sxh:_DefaultComparer__ctor_m1095326935_gshared
tuj:__ZL25UnresolvedVirtualCall_240P12Il2CppObjecti40CustomAttributeTypedArgument_t2723150157PK10MethodInfo
aHc:__Z36Renderer_Get_Custom_PropSortingOrderP12Il2CppObject
UPj:__ZNK15dense_hashtableINSt3__24pairIK10KeyWrapperIPK10Il2CppTypeEjEES6_N6il2cpp8metadata14Il2CppTypeHashEN14dense_hash_mapIS6_jSB_NS6_14EqualsComparerINSA_26Il2CppTypeEqualityComparerEEENS0_9allocatorIS8_EEE9SelectKeyESF_SH_E13find_positionERS7_
xJa:__ZN7Texture5ResetEv
fub:__Z18Transfer_BlittableI24GenerateTypeTreeTransferLb0E8Vector2fEvRK29SerializationCommandArgumentsR31RuntimeSerializationCommandInfo
w8d:__ZL54SHA384Managed_t74158575_CustomAttributesCacheGeneratorP21CustomAttributesCache
rTd:_Context_get_HasDynamicSinks_m3952434387
xJh:_Latin1Encoding_GetByteCount_m1145650505
Wtb:__Z18Transfer_BlittableI24GenerateTypeTreeTransferLb1EhEvRK29SerializationCommandArgumentsR31RuntimeSerializationCommandInfo
ftj:__ZL25UnresolvedVirtualCall_172P12Il2CppObject22OrderBlock_t1585977831S1_PK10MethodInfo
GUe:_GenericTypeParameterBuilder_GetPropertyImpl_m2584778600
XAb:__Z13TransferFieldI18StreamedBinaryReadILb1EELb0E16Converter_StringEvRK23StaticTransferFieldInfoR31RuntimeSerializationCommandInfoRT1_
yxh:_DefaultComparer_GetHashCode_m177499767_gshared
wef:__ZN28GenericInterfaceFuncInvoker1IbbE6InvokeEPK10MethodInfoP12Il2CppObjectb
vDc:__ZNK16TypeTreeIterator10ByteOffsetEv
Ksk:dynCall_iiifii
rda:__ZnwjRKSt9nothrow_t
SF:__ZN8Animator11ClearObjectEv
jYg:__ZN21InterfaceFuncInvoker3IiP22ByteU5BU5D_t4116647657iiE6InvokeEjP11Il2CppClassP12Il2CppObjectS1_ii
lBg:_ApplicationException__ctor_m2557611022
yMa:__ZN14SafeBinaryRead19TransferSTLStyleMapINSt3__23mapI39DeprecatedFastPropertyNameSerializationN18UnityPropertySheet11UnityTexEnvENS1_4lessIS3_EENS1_9allocatorINS1_4pairIKS3_S5_EEEEEEEEvRT_17TransferMetaFlags
KEc:__Z45Register_UnityEngine_MonoBehaviour_IsInvokingv
oUi:_List_1_CheckMatch_m579516778_gshared
_wb:__ZL26Transfer_SimpleNativeClassI19StreamedBinaryWriteILb0EE17AnimationCurveTplIfELb0EEvRK29SerializationCommandArgumentsR31RuntimeSerializationCommandInfo
OIb:__Z43GiveManagedDebuggerChanceToAttachIfRequiredv
dFg:_Buffer_ByteLengthInternal_m1388208719
xAe:__ZL92PointerEventData_t3807901092_CustomAttributesCacheGenerator_U3CworldNormalU3Ek__BackingFieldP21CustomAttributesCache
blh:_Array_InternalArray__ICollection_CopyTo_TisInt64_t3736567304_m2845057751_gshared
rDc:__Z35UnregisterSerializationCacheBuilderPFv17ScriptingClassPtrR23CachedSerializationDataRbE
qYd:__ZL52ICloneable_t724424198_CustomAttributesCacheGeneratorP21CustomAttributesCache
i8:__ZNSt3__26__treeINS_12__value_typeIPKc18ScriptingMethodPtrEENS_19__map_value_compareIS3_S5_14CStringCompareLb1EEE13stl_allocatorIS5_L18MemLabelIdentifier1ELi16EEE25__emplace_unique_key_argsIS3_JRKNS_21piecewise_construct_tENS_5tupleIJOS3_EEENSH_IJEEEEEENS_4pairINS_15__tree_iteratorIS5_PNS_11__tree_nodeIS5_PvEEiEEbEERKT_DpOT0_
kUg:_Int64_System_IConvertible_ToUInt32_m109903525_AdjustorThunk
gBa:__Z30GetBuiltinVectorParamArraySize24BuiltinShaderVectorParam
u$d:__ZL67DecimalConstantAttribute_t1976047975_CustomAttributesCacheGeneratorP21CustomAttributesCache
nla:__ZL46__ManagedRegistrationHelperFunction_SpriteBonePv
_Oj:__ZNSt3__218uninitialized_copyIPNS_4pairIK10KeyWrapperINS1_IPK14Il2CppAssemblyP11Il2CppClassEEEjEESC_EET0_T_SE_SD_
dFc:__Z36Camera_CUSTOM_get_pixelRect_InjectedP12Il2CppObjectR5RectTIfE
qJa:__ZN13RenderTextureC2E10MemLabelId18ObjectCreationMode
pSg:_Int32_GetFormatException_m519586683
F9d:__ZL46StringBuilder_t_CustomAttributesCacheGeneratorP21CustomAttributesCache
NVg:_BinaryReader_ReadSByte_m3736742795
tGc:__Z60Register_UnityEngine_ScriptableObject_CreateScriptableObjectv
DMi:_Array_InternalArray__get_Item_TisVector2_t2156229523_m2502961026_gshared
YUa:__ZN21RendererUpdateManager11AddRendererER8Renderer
WPj:__ZNK15dense_hashtableINSt3__24pairIK10KeyWrapperIPK10Il2CppTypeEjEES6_N6il2cpp8metadata14Il2CppTypeHashEN14dense_hash_mapIS6_jSB_NS6_14EqualsComparerINSA_26Il2CppTypeEqualityComparerEEENS0_9allocatorIS8_EEE9SelectKeyESF_SH_E12test_deletedERK30dense_hashtable_const_iteratorIS8_S6_SB_SJ_SF_SH_E
Mob:__Z35Transfer_Blittable_FixedBufferFieldI14SafeBinaryReadsEvRK29SerializationCommandArgumentsR31RuntimeSerializationCommandInfo
o1g:_Convert_ToDateTime_m3802186295
Cck:__ZN6il2cpp5utils11StringUtils11Utf16ToUtf8EPKDs
v5a:__ZN18StreamedBinaryReadILb0EE21TransferSTLStyleArrayINSt3__26vectorIN15ResourceManager10DependencyE13stl_allocatorIS5_L18MemLabelIdentifier52ELi16EEEEEEvRT_17TransferMetaFlags
KTh:_UInt64_CompareTo_m1614517204_AdjustorThunk
Gld:__ZN11UnityEngine15PlatformWrapper20IsRootedOrJailbrokenEv
nWb:__ZZ23InitPlayerLoopCallbacksvEN52PreLateUpdateScriptRunBehaviourLateUpdateRegistrator7ForwardEv
Lvj:__ZN30GenericInterfaceActionInvoker1IP8String_tE6InvokeEPK10MethodInfoP12Il2CppObjectS1_
u6b:__Z33IntersectAABBPlaneBoundsOptimizedRK4AABBPKN4math7_float4Ei
l9b:__ZN19ScriptingInvocation6InvokeI28ScriptingSystemTypeObjectPtrEET_P21ScriptingExceptionPtrb
Thb:__ZN9GfxDevice19EndGeometryJobFrameEv
Ohj:_GUILayoutUtility_Layout_m1159951704
pOf:_InputField_get_shouldActivateOnSelect_m3055465770
hxh:_DefaultComparer_Equals_m2269092119_gshared
Qtb:__ZN27Converter_SimpleNativeClassI17AnimationCurveTplIfEE17ScriptingToNativeER18ScriptingObjectPtrPS1_
LPh:_Type__cctor_m2371893800
rlk:__ZN6il2cpp8metadata24Il2CppGenericInstCompare7CompareERK10KeyWrapperIPK17Il2CppGenericInstES8_
FFj:__ZNK15dense_hashtableINSt3__24pairIK10KeyWrapperIPK19Il2CppGenericMethodEPK26Il2CppGenericMethodIndicesEES6_N6il2cpp8metadata23Il2CppGenericMethodHashEN14dense_hash_mapIS6_SA_SE_NS6_14EqualsComparerINSD_26Il2CppGenericMethodCompareEEENS0_9allocatorISB_EEE9SelectKeyESI_SK_E5beginEv
fvd:_ExecuteEvents_Execute_m3049310229
Hv:__ZN27AnimationLayerMixerPlayable21UpdateLayerParametersEv
moe:__ZL84Object_t631007953_CustomAttributesCacheGenerator_Object_DestroyImmediate_m2288369078P21CustomAttributesCache
uVe:__ZN21InterfaceFuncInvoker1IiP12MemberInfo_tE6InvokeEjP11Il2CppClassP12Il2CppObjectS1_
gCg:_Array_get_IsSynchronized_m3066873806
Eoa:__ZN9Scripting11UnityEngine12LightmapData12CleanupProxyEv
ry:__ZN7mecanim9animation16CopyMotionOutputEPKNS0_18AnimationNodeStateEPS1_bbRKNS_6bitsetILj83EEE
Nqc:__ZNK17AnimationCurveTplIfE8EvaluateEfPNS0_5CacheE
sVb:__Z31ManagerContextInitializeClassesv
q0h:_ReadOnlyCollection_1_System_Collections_IList_Contains_m2650112051_gshared
ldh:_Array_get_swapper_TisVector3_t3722313464_m1221246401_gshared
Z$h:_ReadOnlyCollection_1_CopyTo_m1950082901_gshared
w6c:_ft_smooth_transform
l_c:_UNITY_FT_List_Finalize
_kk:__ZN6il2cpp6icalls8mscorlib6System7Runtime8Remoting10Activation18ActivationServices34AllocateUninitializedClassInstanceEP20Il2CppReflectionType
__b:__Z20LightAttenuateApproxRKfS0_
J7:__ZN9Scripting30SetCachedPtrOnScriptingWrapperE18ScriptingObjectPtrP6Object
QLg:_HashKeys_get_IsSynchronized_m174400341
_1:__ZN17LowLevelAllocator6MallocEj
rAi:__Z57RuntimeInvoker_Int32_t2950945753_KeyValuePair_2_t71524366PFvvEPK10MethodInfoPvPS4_
yjh:_NoAllocHelpers_SafeLength_TisColor32_t2600501292_m3406165959_gshared
$x:__ZN17AnimationPlayable17SetInternalWeightEf
ame:__ZL71ParticleSystemBeginUpdateAll_t1600980369_CustomAttributesCacheGeneratorP21CustomAttributesCache
fbi:_UnityEvent_1__ctor_m1789019280_gshared
Ewg:_RepeatContext_get_IsMinimum_m3640286252
Xei:__Z64RuntimeInvoker_Boolean_t97287965_RuntimeObject_Int32_t2950945753PFvvEPK10MethodInfoPvPS4_
P$e:_InternalEnumerator_1__ctor_m4055378331_AdjustorThunk
Knf:_ObjectRecord_ChainFixup_m1889316362
SHa:__ZN18BlockRangeInternal16PopLastNodeIndexEP10BlockRangeji
pek:__ZN6il2cpp2vm13CachedCCWBaseINS0_13ManagedObjectEE6AddRefEv
cRj:__ZN6il2cpp2gc19AppendOnlyGCHashMapINSt3__24pairIPK11Il2CppImageP11Il2CppClassEEP22Il2CppReflectionModule17ReflectionMapHashIS9_ENS2_8equal_toIS9_EEE10CopyValuesEPv
syd:_TouchInputModule_UpdateModule_m2582897964
g$a:__ZN4MeshD0Ev
Qrd:__ZL42RequestRecreateEyeTexturesBeforeNextUpdatev
xAa:__ZNK6Camera20IsCurrentlyRenderingEv
xx:__ZN21AnimationClipPlayable23ProcessRootMotionNoClipEPK35AnimationPlayableEvaluationConstantPK32AnimationPlayableEvaluationInputP33AnimationPlayableEvaluationOutput
Ted:__Z36CanvasRenderer_CUSTOM_SetPopMaterialP12Il2CppObjectS0_i
DOc:__Z18Transfer_BlittableI9JSONWriteLb0EdEvRK29SerializationCommandArgumentsR31RuntimeSerializationCommandInfo
w3c:_otv_u_O_O_u_O_O
Xya:__ZN6Camera8TransferI19StreamedBinaryWriteILb0EEEEvRT_
x8g:_DBNull_System_IConvertible_ToSByte_m3533624679
zEa:__ZThn252_N31CanvasBatchIntermediateRenderer14OnAssetDeletedEv
Ink:_wctomb
EGg:_Char_CompareTo_m42489266
SBi:__Z67RuntimeInvoker_Void_t1185182177_Int32_t2950945753_Double_t594665363PFvvEPK10MethodInfoPvPS4_
Hoc:__Z27Camera_CUSTOM_GetAllCamerasP11Il2CppArray
FEb:__ZNK13MonoBehaviour25GetNeedsPerObjectTypeTreeEv
fBb:__Z35Transfer_Blittable_FixedBufferFieldI18StreamedBinaryReadILb0EEiEvRK29SerializationCommandArgumentsR31RuntimeSerializationCommandInfo
Uc:___cxa_rethrow
$Nd:_ParameterInfo_GetCustomAttributes_m2376494592
hQc:__Z18Transfer_BlittableI8JSONReadLb1EhEvRK29SerializationCommandArgumentsR31RuntimeSerializationCommandInfo
nFd:_Graphic_get_canvasRenderer_m315509948
P0i:_Collection_1_System_Collections_IList_Contains_m3397768605_gshared
XUf:_Navigation_set_selectOnUp_m827629728_AdjustorThunk
dpe:__ZL69NativeFixedLengthAttribute_t3072952540_CustomAttributesCacheGeneratorP21CustomAttributesCache
JKi:_Dictionary_2_Do_CopyTo_TisInt32_t2950945753_TisInt32_t2950945753_m3384108308_gshared
PBc:__ZN10systeminfo23SupportsLocationServiceEv
wOg:_CultureInfo_construct_internal_locale_from_name_m3254739477
Lag:_RSASslSignatureDeformatter_VerifySignature_m1061897602
Y8b:__ZN13MonoBehaviour8SetClassE17ScriptingClassPtr18ScriptingObjectPtr
Wsf:_RandomNumberGenerator_Create_m4162970280
aGi:_Array_InternalArray__Insert_TisLabelFixup_t858502054_m171542753_gshared
B6e:_InternalEnumerator_1_System_Collections_IEnumerator_get_Current_m3539708496_AdjustorThunk
mcb:__ZN20LocalFileSystemPosix4ReadER13FileEntryDatayyPvPy
P2b:__ZNSt3__211__sift_downIRN23ForwardShaderRenderLoop18RenderObjectSorterILb0EEEP21ForwardRenderPassDataEEvT0_S7_T_NS_15iterator_traitsIS7_E15difference_typeES7_
_eg:_SecurityPermission__ctor_m1462427327
Wtk:dynCall_iiiiiiffiiiiiiiiiffffiiii
UEb:__ZN13MonoBehaviour5DoGUIENS_13GUILayoutTypeEii
zRd:_ChannelData_get_ClientProviders_m594662942
AI:__ZZN8Animator15InitializeClassEvEN43FunctorImpl_438kDidModifyAnimatorController4CallEPviR11MessageData
ucj:_QuickSearch_GetChar_m1297698557
Iua:__ZNK12TLSAllocatorI14StackAllocatorE8ContainsEPKv
z1a:__ZN11TimeManager8TransferI18StreamedBinaryReadILb0EEEEvRT_
O_b:__ZL8AddLightRK12ActiveLightsRK8Vector3fiR13dynamic_arrayI11CulledLightLj0EE
B1g:_DateTime__ParseEnum_m253019513
p5g:_Convert_ToUInt32_m2194577773
t$a:__ZN14BlendShapeData8TransferI14SafeBinaryReadEEvRT_
BLg:_Hashtable_Remove_m4032631466
Zqh:_DSAManaged_GenerateKeyPair_m2236915969
dfe:__ZL91RSASslSignatureFormatter_t2709678514_CustomAttributesCacheGenerator_U3CU3Ef__switchU24map16P21CustomAttributesCache
FPa:__ZN7Texture25ReloadFromStorageIfNeededEPvb
qih:_Array_InternalArray__IndexOf_TisBoolean_t97287965_m1161209222_gshared
hFj:__ZNK15dense_hashtableINSt3__24pairIK10KeyWrapperIP9FieldInfoEiEES5_N6il2cpp5utils11PointerHashIS3_EEN14dense_hash_mapIS5_iSB_NS5_14EqualsComparerINS0_8equal_toIS4_EEEENS0_9allocatorIS7_EEE9SelectKeyESG_SI_E3endEv
Vxe:__ZL55RaycastHit2D_t2279581989_CustomAttributesCacheGeneratorP21CustomAttributesCache
xqa:__ZN9Scripting11UnityEngine12CullingGroup9InitProxyEv
kJg:_SynchronizedArrayListWrapper_Clear_m2191301493
R7c:_Update_Max
Q6h:_Predicate_1__ctor_m2943702050_gshared
Rkg:_String_CreateString_m780602784
P0j:__ZN6il2cpp6icalls8mscorlib6SystemL15ThrowNoWideningEv
dqc:__ZNK23TransformChangeDispatch24GetChangeMaskForInterestENS_12InterestTypeE
jqc:__Z45Transform_CUSTOM_INTERNAL_CALL_TransformPointP12Il2CppObjectRK8Vector3fRS1_
PUe:_GenericTypeParameterBuilder_InvokeMember_m1647304778
$Gd:_HorizontalOrVerticalLayoutGroup_set_childControlWidth_m3261460516
QMa:__ZNSt3__26__treeINS_12__value_typeI39DeprecatedFastPropertyNameSerializationfEENS_19__map_value_compareIS2_S3_NS_4lessIS2_EELb1EEENS_9allocatorIS3_EEE7destroyEPNS_11__tree_nodeIS3_PvEE
R5c:_tt_cmap4_char_index
$yd:_AspectRatioFitter_GetParentSize_m3159144324
khg:_SecurityFrame_get_Assembly_m2874566710
jZe:_InternalEnumerator_1__ctor_m2336656763_AdjustorThunk
yXi:_Enumerator_System_Collections_IEnumerator_Reset_m1487823313_gshared
Qbb:__ZNK12HandlerChain8IsHiddenERK13FileEntryData
Ogb:__ZNSt3__26__treeINS_12__value_typeIN4core12basic_stringIcNS2_20StringStorageDefaultIcEEEEPN16MemoryFileSystem4NodeEEENS_19__map_value_compareIS6_SA_NS_4lessIS6_EELb1EEE13stl_allocatorISA_L18MemLabelIdentifier55ELi16EEE25__emplace_unique_key_argsIS6_JNS_4pairIKS6_S9_EEEEENSK_INS_15__tree_iteratorISA_PNS_11__tree_nodeISA_PvEEiEEbEERKT_DpOT0_
xOi:_List_1_System_Collections_IList_get_IsFixedSize_m1752888098_gshared
etb:__ZL26Transfer_SimpleNativeClassI17RemapPPtrTransfer10RectOffsetLb0EEvRK29SerializationCommandArgumentsR31RuntimeSerializationCommandInfo
old:__ZN11UnityEngine15PlatformWrapper18GetWin8ScalingModeEv
gZf:_ScrollRect_CalculateLayoutInputVertical_m3155297482
JTg:_Int32_ToString_m2507389746_AdjustorThunk
Z3g:_Decimal_op_Explicit_m438967917
w6d:__ZL55IChannelInfo_t3866172133_CustomAttributesCacheGeneratorP21CustomAttributesCache
$yj:_AnimatorControllerPlayable_SetHandle_m2260644454_AdjustorThunk
YWe:__ZN30GenericInterfaceActionInvoker2IP12Il2CppObjectS1_E6InvokeEPK10MethodInfoS1_S1_S1_
Och:_Environment_get_SocketSecurityEnabled_m190813817
Kti:__Z53RuntimeInvoker_Void_t1185182177_Vector4U26_t200349727PFvvEPK10MethodInfoPvPS4_
Moe:__ZL57UnityEventBase_t3960448221_CustomAttributesCacheGeneratorP21CustomAttributesCache
rZg:_NullStream_Flush_m3382897993
kgc:__ZNSt3__26vectorIN9ShaderLab20SerializedSubProgram13BufferBindingENS_9allocatorIS3_EEEC2ERKS6_
gPf:_InputField_set_selectionColor_m2084640295
hEi:__Z114RuntimeInvoker_Int32_t2950945753_CustomAttributeTypedArgument_t2723150157_CustomAttributeTypedArgument_t2723150157PFvvEPK10MethodInfoPvPS4_
HKi:_Dictionary_2_Do_CopyTo_TisKeyValuePair_2_t2401056908_TisKeyValuePair_2_t2401056908_m676905794_gshared
cBa:__ZNK9ShaderLab20ShaderBlendStateDesc15ToGfxBlendStateEPK19ShaderPropertySheetS3_R13GfxBlendState
vUd:_EnvoyInfo_get_EnvoySinks_m1211050346
Kbf:_Enumerator_System_Collections_IEnumerator_get_Current_m1747693366_AdjustorThunk
sSd:_ConfigHandler_OnIgnorableWhitespace_m278399491
CB:__ZN11UnityEngine9AnimationL22GenericBindingCallbackEPvS1_i
OE:__ZN12_GLOBAL__N_121ProcessAnimationBeginER35AnimationPlayableEvaluationConstantR32AnimationPlayableEvaluationInputR33AnimationPlayableEvaluationOutput
Qjc:__ZN9ShaderLab9IntShaderC2Ev
p6h:_Func_3__ctor_m1375075958_gshared
isj:__ZL25UnresolvedVirtualCall_121P12Il2CppObjectaiS0_PK10MethodInfo
qNj:__ZN6il2cpp6icalls8mscorlib6SystemL9IsPrivateEPK9EventInfo
Njk:__ZN6il2cpp6icalls8mscorlib6System10Reflection4Emit11TypeBuilder20setup_internal_classEP27Il2CppReflectionTypeBuilderS7_
Nee:__ZL72PKCS12_t4101533061_CustomAttributesCacheGenerator_U3CU3Ef__switchU24mapCP21CustomAttributesCache
Oih:_Array_InternalArray__IndexOf_TisILTokenInfo_t2325775114_m2602704009_gshared
ivd:_ExecuteEvents_Execute_m3613826831
Qth:_Dictionary_2_System_Collections_IDictionary_GetEnumerator_m972834308_gshared
fSi:_List_1_System_Collections_ICollection_get_IsSynchronized_m967177678_gshared
mKh:_StringBuilder_AppendFormat_m3255666490
SPe:_OverflowException__ctor_m4029085969
ALc:__ZN13GUIStateScope3EndER16GUIKeyboardStateR8GUIStatePN5IMGUI19NamedKeyControlListE
MJd:_TypeBuilder_GetGenericArguments_m2872156836
bWd:_MethodCall_get_Uri_m1720935531
Jrj:__ZL24UnresolvedVirtualCall_94P12Il2CppObjectS0_S0_iPK10MethodInfo
xBj:__ZN13Il2CppHashMapIPK22Il2CppGenericParameterP11Il2CppClassN6il2cpp5utils11PointerHashIS1_EENSt3__28equal_toIS2_EENS9_9allocatorINS9_4pairIK10KeyWrapperIS2_ES4_EEEEEC2EjRKS8_RKSB_
zRc:__ZN8JSONRead21TransferSTLStyleArrayI31ArrayOfManagedObjectsTransfererEEvRT_17TransferMetaFlags
_cb:__Z15CreateDirectoryRKN4core12basic_stringIcNS_20StringStorageDefaultIcEEEE
N0a:__Z21CalculateGlobalMatrix23TransformAccessReadOnly
NJd:_TypeBuilder_GetGenericTypeDefinition_m1632720438
zdh:_Array_InternalArray__ICollection_Contains_TisLink_t544317964_m163190451_gshared
W7g:_DateTimeOffset_System_IComparable_CompareTo_m176229495_AdjustorThunk
hBf:_ManagedStreamHelpers_ValidateLoadFromStream_m580138133
Dxe:__ZL104GUIUtility_t1868551600_CustomAttributesCacheGenerator_GUIUtility_EndContainerGUIFromException_m530164245P21CustomAttributesCache
h3a:__ZNK13BuildSettings22GetTypeVirtualInternalEv
Rkc:__ZN13MonoBehaviour20SetScriptingDataFromERKS_
dai:__ZN30GenericInterfaceActionInvoker1I17Scene_t2348375561E6InvokeEPK10MethodInfoP12Il2CppObjectS0_
K0e:_InternalEnumerator_1__ctor_m1486034688_gshared
nyb:__Z35Transfer_Blittable_FixedBufferFieldI18StreamedBinaryReadILb1EEhEvRK29SerializationCommandArgumentsR31RuntimeSerializationCommandInfo
Rae:__ZL56AppDomainSetup_t123196401_CustomAttributesCacheGeneratorP21CustomAttributesCache
pVi:_List_1_CheckIndex_m2250397830_gshared
Njg:_String_LastIndexOf_m578673845
CFf:_PlayableOutput_GetHandle_m777137769_AdjustorThunk
XDf:_PlayerEditorConnectionEvents_UnregisterManagedCallback_m400366024
iwj:_FontTextureRebuildCallback_EndInvoke_m3732346867
Cjc:__ZN9ShaderLab20SerializedSubProgram14ConstantBufferC2EOS1_
z:tempBigIntI
bxg:_Interval_get_Empty_m3617514670
TDi:__Z31RuntimeInvoker_Mark_t3471605523PFvvEPK10MethodInfoPvPS4_
vQe:_Assembly_GetName_m981771927
fge:__ZL53RegexOptions_t92845595_CustomAttributesCacheGeneratorP21CustomAttributesCache
Pz:__ZN7mecanim12statemachine24CreateStateMachineOutputEPKNS0_20StateMachineConstantEjRNS_6memory9AllocatorE
N7j:__ZN6il2cpp2vm12GenericClass8GetClassEP18Il2CppGenericClass
nib:__ZNK9GfxDevice27GetActiveRenderSurfaceWidthEv
zBe:__ZL114StandaloneInputModule_t2760469101_CustomAttributesCacheGenerator_StandaloneInputModule_ForceAutoSelect_m2837047882P21CustomAttributesCache
tld:__ZN11UnityEngine15PlatformWrapper28GetCleanGraphicsFixedVersionEv
IUf:_MaskableGraphic_RecalculateClipping_m1772937317
yKe:_UnmanagedMemoryStream_SetLength_m3752964620
Zfb:__ZN16MemoryFileSystem5WriteER13FileEntryDatayyPvPy
U4i:_SslStreamBase_RaiseLocalPrivateKeySelection_m4112368540
qWj:__ZN6il2cpp2vm4Type7GetTypeEPK10Il2CppType
ZZc:_open_face_PS_from_sfnt_stream
l1e:_InternalEnumerator_1_get_Current_m165106323_AdjustorThunk
aLh:_UTF32Encoding_GetByteCount_m3610769032
rV:__ZN11AudioModule16SetListenerPauseEb
gXb:__Z16FindCameraStacksRKNSt3__24listI4PPtrI6CameraENS_9allocatorIS3_EEEERNS_6vectorI11CameraStackNS4_ISA_EEEE
mbj:_MatchCollection_CopyTo_m3807326147
SVa:__ZN10GISettings8TransferI14SafeBinaryReadEEvRT_
sn:FUNCTION_TABLE_vifff
tnf:_ObjectReader_get_CurrentObject_m2820303483
Lsf:_MD5CryptoServiceProvider__ctor_m3271163125
Z9b:__ZN19CustomRenderTexture12ClearGPUDataEv
kRg:_Guid_Equals_m3683678873
Uci:_ListPool_1_Get_m2875520964_gshared
aae:__ZL95UnicodeEncoding_t1959134050_CustomAttributesCacheGenerator_UnicodeEncoding_GetBytes_m3223155660P21CustomAttributesCache
GJa:__ZN13RenderTexture13ApplySettingsEv
Hmf:_ObjectReader_RegisterObject_m1853376334
iWe:_ModuleBuilderTokenGenerator_GetToken_m2588853565
xEg:_Boolean_System_IConvertible_ToDecimal_m3176932461_AdjustorThunk
t2b:__ZNSt3__26__treeINS_12__value_typeIi17ShadowCachingDataEENS_19__map_value_compareIiS3_NS_4lessIiEELb1EEE13stl_allocatorIS3_L18MemLabelIdentifier66ELi16EEE25__emplace_unique_key_argsIiJNS_4pairIiS2_EEEEENSD_INS_15__tree_iteratorIS3_PNS_11__tree_nodeIS3_PvEEiEEbEERKT_DpOT0_
Te:_JS_Sound_SetListenerPosition
ln:FUNCTION_TABLE_fiffi
$ti:__Z54RuntimeInvoker_Int32_t2950945753_LayerMask_t3493934918PFvvEPK10MethodInfoPvPS4_
Bed:__Z55Register_UnityEngine_CanvasGroup_get_ignoreParentGroupsv
k0h:_ReadOnlyCollection_1_System_Collections_Generic_IListU3CTU3E_set_Item_m711370667_gshared
u4j:__ZNK15dense_hashtableINSt3__24pairIK10KeyWrapperINS1_IPKcS4_EEEiEES6_24NamespaceAndNamePairHashN14dense_hash_mapIS6_iS9_NS6_14EqualsComparerI26NamespaceAndNamePairEqualsEENS0_9allocatorIS8_EEE9SelectKeyESD_SF_E10test_emptyERK24dense_hashtable_iteratorIS8_S6_S9_SH_SD_SF_E
T0a:__ZN12EventManager11RemoveEventEP10EventEntryPFvPvS2_iES2_
rRe:_Default_check_arguments_with_score_m3467814020
Zyk:_glGetActiveUniform__wrapper
u_g:_StreamWriter_LowLevelWrite_m1081676583
YFh:_Enumerator__ctor_m3875432026_AdjustorThunk
Djb:__ZN9GfxDevice20SetRenderSurfaceNameEP17RenderSurfaceBasePKc
S8a:__ZNK8Material16MarkDependenciesER27GarbageCollectorThreadState
l_f:_Slider_set_handleRect_m1101657556
h8g:_DateTimeOffset_ToString_m3985341516_AdjustorThunk
GWh:_Collection_1_System_Collections_IList_Contains_m3348135931_gshared
GOc:__ZL17Transfer_GUIStyleI9JSONWriteLb0EEvRK29SerializationCommandArgumentsR31RuntimeSerializationCommandInfo
V$b:__Z28GetHaloVertexPositionsStereoP8Vector3fRKS_S2_f
oia:__ZN6prcoreL27StretchGenericFloatBilinearI15TexFormatRGHalfEEvPKNS_9InnerInfoE
oH:__Z16return_effectiveRK21AnimationClipOverride
Aif:_Dictionary_2_System_Collections_IDictionary_GetEnumerator_m751864982_gshared
R$b:__ZN9DepthPass7PrepareER6CameraRK13dynamic_arrayI16RenderObjectDataLj0EERK15RenderNodeQueueRK17ShaderReplaceDatab
bpa:__ZN9Scripting11UnityEngine12Experimental3U2D10SpriteBone9InitProxyEv
UKa:__ZNK15PlayableMethods18InvokePrepareFrameER18ScriptingObjectPtrRK9HPlayableP18ScriptingFrameData
rH:__ZN14SafeBinaryRead21TransferSTLStyleArrayI13dynamic_arrayI21AnimationClipOverrideLj0EEEEvRT_17TransferMetaFlags
pW:__Z13RegisterClassI12AudioManagerEvPKc
ntj:__ZL25UnresolvedVirtualCall_180P12Il2CppObject22UILineInfo_t4195266810S1_PK10MethodInfo
DBb:__Z18Transfer_BlittableI18StreamedBinaryReadILb0EELb1E9BoundsIntEvRK29SerializationCommandArgumentsR31RuntimeSerializationCommandInfo
EFe:__ZL71SpriteState_t1362986479_CustomAttributesCacheGenerator_m_DisabledSpriteP21CustomAttributesCache
and:__ZN22BaseUnityConnectClient28UpdateConfigFromServerStaticEPv
Yrg:_PublicKey_DecodeDSA_m3490622362
Opc:__Z49Register_UnityEngine_Resources_GetBuiltinResourcev
CQh:_Type_GetMethod_m1479779718
E5c:_tt_cmap10_char_index
s5i:_TlsException__ctor_m3242533711
chc:__ZN15SerializeTraitsINSt3__24pairIN4core12basic_stringIcNS2_20StringStorageDefaultIcEEEE4PPtrI7TextureEEEE8TransferI24GenerateTypeTreeTransferEEvRSA_RT_
jAe:__ZL94AxisEventData_t2331243652_CustomAttributesCacheGenerator_AxisEventData_get_moveDir_m2423724085P21CustomAttributesCache
$_g:_SortedList__ctor_m3676552745
$Bj:__ZN15dense_hashtableINSt3__24pairIK10KeyWrapperIPK22Il2CppGenericParameterEP11Il2CppClassEES6_N6il2cpp5utils11PointerHashIS4_EEN14dense_hash_mapIS6_S9_SE_NS6_14EqualsComparerINS0_8equal_toIS5_EEEENS0_9allocatorISA_EEE9SelectKeyESJ_SL_E3endEv
hEj:__ZNK15dense_hashtableINSt3__24pairIK10KeyWrapperIPK11Il2CppClassEPKcEES6_N6il2cpp5utils11PointerHashIS3_EEN14dense_hash_mapIS6_S9_SE_NS6_14EqualsComparerINS0_8equal_toIS5_EEEENS0_9allocatorISA_EEE9SelectKeyESJ_SL_E8min_sizeEjj
DU:__ZN11AudioSource24ClearExtensionPropertiesE12PropertyName
Pff:_Transform_1_EndInvoke_m332304766_gshared
gic:__ZN9ShaderLab22SerializedBindChannels8TransferI19StreamedBinaryWriteILb0EEEEvRT_
xgi:__Z52RuntimeInvoker_Decimal_t2948259380_Int32_t2950945753PFvvEPK10MethodInfoPvPS4_
rrb:__ZN15SerializeTraitsI5RectTIiEE8TransferI14SafeBinaryReadEEvRS1_RT_
nKc:__ZN5IMGUI20MoveWindowFromLayoutER8GUIStateiRK5RectTIfE
rni:__Z50RuntimeInvoker_SByte_t1669577662_Int64_t3736567304PFvvEPK10MethodInfoPvPS4_
C_c:_UNITY_FT_Stream_ReadUShort
p2i:_Collection_1_System_Collections_IList_get_Item_m1677338752_gshared
Rxb:__Z29Transfer_Blittable_ArrayFieldI19StreamedBinaryWriteILb0EE11ColorRGBA32EvRT_R9ArrayInfoRK23StaticTransferFieldInfo
xMa:__ZNSt3__26__treeINS_12__value_typeIN4core12basic_stringIcNS2_20StringStorageDefaultIcEEEES6_EENS_19__map_value_compareIS6_S7_NS_4lessIS6_EELb1EEE13stl_allocatorIS7_L18MemLabelIdentifier1ELi16EEE7destroyEPNS_11__tree_nodeIS7_PvEE
jTe:_DerivedType_IsAssignableFrom_m1623073368
gBh:_EqualityComparer_1_get_Default_m1095255266_gshared
QPb:__Z13IsDepthFormat14GraphicsFormat
C2a:__ZN12AspectRatios8TransferI24GenerateTypeTreeTransferEEvRT_
AMe:_MonoType_GetFields_m4176012508
Tbc:__Z29StdTemplateConversionFunctionIshEbPvR14SafeBinaryRead
_5g:_CurrentSystemTimeZone_GetTimeZoneData_m2641861607
Jf:_emscripten_glUniform1fv
hzh:_EqualityComparer_1_System_Collections_IEqualityComparer_GetHashCode_m3423304513_gshared
M1d:__ZL57FileSystemInfo_t3745885336_CustomAttributesCacheGeneratorP21CustomAttributesCache
mCj:__ZN6il2cpp2vm5Class13GetArrayClassEP11Il2CppClassj
Mxd:_StandaloneInputModule_set_inputActionsPerSecond_m4057208843
GIb:__ZN19RuntimeSceneManager18LoadSceneAsyncIntoER10UnitySceneRKN4core12basic_stringIcNS2_20StringStorageDefaultIcEEEENS_11LoadingModeEb
Jyf:_UnityAction_BeginInvoke_m1892359299
SJe:_TextWriter_Write_m164803641
$Nc:__Z35Transfer_Blittable_FixedBufferFieldI9JSONWritetEvRK29SerializationCommandArgumentsR31RuntimeSerializationCommandInfo
QLc:__ZN11IMGUIModule12AddGUIScriptER8ListNodeI13MonoBehaviourE
lb:invoke_difi
Lhj:_GUILayoutUtility_BeginWindow_m2240221150
Uxk:_glDeleteSamplers__wrapper
