uc:_glClearStencil
rRh:_UInt16_System_IConvertible_ToChar_m2096055221_AdjustorThunk
HUf:_MaskableGraphic_OnCanvasHierarchyChanged_m1780820310
yfh:_Array_TrueForAll_TisRuntimeObject_m1084992726_gshared
v8j:__ZN6il2cpp2vm5Array13GetByteLengthEP11Il2CppArray
WGi:_Array_InternalArray__set_Item_TisDateTime_t3738529785_m1331437427_gshared
Sjj:_KeyBuilder_get_Rng_m3373220441
Dya:__Z30GetIntermediateRendererManagerv
mSa:__Z21SourceMipLevelForBlitiiii
wEa:__ZN31CanvasBatchIntermediateRenderer15AddAsRenderNodeER15RenderNodeQueueRK20DeprecatedSourceData
FOh:_TimeSpan_get_Hours_m550761902
Lic:__ZN9ShaderLab9SubShader15FindNamedPassesERKN4core12basic_stringIcNS1_20StringStorageDefaultIcEEEER13dynamic_arrayIPNS_4PassELj0EE
Ipe:__ZL63PlayableOutputHandle_t4208053793_CustomAttributesCacheGeneratorP21CustomAttributesCache
F_:__ZN11UnityEngine15CloudWebService26CloudServiceEventWithParam12ToJsonStringER9JSONWrite
BKe:_UnmanagedMemoryStream_Write_m930787521
dpc:__Z59Register_UnityEngine_PlayerConnectionInternal_DisconnectAllv
flj:_AnalyticsEventTracker_SendEvent_m1365958832
bs:__ZN11UnityEngine9Animation28GenericAnimationBindingCacheD2Ev
maj:_X509Store_LoadCrl_m1881903843
vJi:_Array_Sort_TisUICharInfo_t75501106_TisUICharInfo_t75501106_m722747892_gshared
F8b:__Z18RestoreRenderStateR20CameraRenderOldStateR17ShaderPassContext
Vyb:__Z18Transfer_BlittableI18StreamedBinaryReadILb1EELb1E5RectTIfEEvRK29SerializationCommandArgumentsR31RuntimeSerializationCommandInfo
Iub:__Z18Transfer_BlittableI24GenerateTypeTreeTransferLb0E11ColorRGBA32EvRK29SerializationCommandArgumentsR31RuntimeSerializationCommandInfo
NDb:__Z25scripting_class_from_name17ScriptingImagePtrPKcS1_
kGi:_Array_InternalArray__Insert_TisSingle_t1397266774_m3161726127_gshared
XUj:__ZN14dense_hash_mapI10KeyWrapperINSt3__24pairIPK12PropertyInfoP11Il2CppClassEEEj17ReflectionMapHashIS8_ENS9_14EqualsComparerINS1_8equal_toIS8_EEEENS1_9allocatorINS2_IKS9_jEEEEE15set_deleted_keyERSH_
FFb:__Z29scripting_class_enum_basetype17ScriptingClassPtr
aKc:__ZN6IDList10BeginOnGUIEv
U0j:__ZN6il2cpp2vm9Exception25RaiseOutOfMemoryExceptionERKNS_5utils10StringViewIDsEEP19Il2CppSequencePoint
Eka:__ZL43__ManagedRegistrationHelperFunction_TexturePv
U6e:_InternalEnumerator_1_get_Current_m1477715453_gshared
wcb:__ZNK20LocalFileSystemPosix6ParentERK13FileEntryDataRN4core12basic_stringIcNS3_20StringStorageDefaultIcEEEE
Pje:__ZL118TouchScreenKeyboard_t731888065_CustomAttributesCacheGenerator_TouchScreenKeyboard_Open_m3609399077____textPlaceholder6P21CustomAttributesCache
S0i:_Collection_1_System_Collections_IList_Remove_m1476284619_gshared
NMe:_MonoType_IsPrimitiveImpl_m2401722705
Acg:_SHA1CryptoServiceProvider__ctor_m4195188793
Sna:__ZN9Scripting11UnityEngine9Profiling8Recorder12CleanupProxyEv
VCb:__ZN18StreamedBinaryReadILb0EE21TransferSTLStyleArrayI13dynamic_arrayI11ColorRGBA32Lj0EEEEvRT_17TransferMetaFlags
LDd:_Dropdown_Hide_m504034854
$Sa:__ZN9Texture2D25CreateScaledAndPaddedDataEPP17SharedTextureDataS2_
zeh:_Array_InternalArray__ICollection_Remove_TisLink_t3209266973_m897088622_gshared
ZMf:_Vector2_get_up_m2647420593
uPb:__ZN7ApiGLES17CopyBufferSubDataEjjlll
wlh:_Array_InternalArray__ICollection_CopyTo_TisUInt64_t4134040092_m691431926_gshared
Spg:_IPAddress_ToString_m1181734207
aKh:_StringBuilder_Append_m1965104174
bMc:__ZN5Unity9rapidjson15GenericDocumentINS0_4UTF8IcEE13JSONAllocatorS4_E11ParseStreamILj1ES3_NS0_25GenericInsituStringStreamIS3_EEEERS5_RT1_
fyh:_EqualityComparer_1__cctor_m3766928733_gshared
jai:_UnityAction_1_Invoke_m610765085_gshared
FCg:_Array_GetValue_m116098292
D0f:_Kernel_modInverse_m652700340
Iye:__ZL57CanvasRenderer_t2598313366_CustomAttributesCacheGeneratorP21CustomAttributesCache
iLc:__ZN5IMGUI18RepaintModalWindowER8GUIState
qBa:__ZNK15dense_hashtableINSt3__24pairIKN9ShaderLab7Program23ShaderKeywordSetAndHashEPKNS2_10SubProgramEEES4_NS3_24ShaderKeywordHashFunctorEN14dense_hash_mapIS4_S8_SA_NS0_8equal_toIS4_EE13stl_allocatorIS9_L18MemLabelIdentifier67ELi16EEE9SelectKeyESD_SG_E23find_position_with_hashERS5_j
vNg:_CompareInfo_Finalize_m404687489
gXa:__Z23SetSpriteMeshIndexCountP14SharedMeshDataj
eMh:_UTF8Decoder_GetChars_m1236346907
jck:__ZN6il2cpp8metadata13GenericMethod9GetMethodEPK19Il2CppGenericMethod
Nq:__ZNSt3__26vectorIN4core12basic_stringIcNS1_20StringStorageDefaultIcEEEENS_9allocatorIS5_EEE7reserveEj
qRe:_Default_SelectProperty_m1220817815
Kkf:_RemotingConfiguration_IsRemotelyActivatedClientType_m4117048589
YLf:_Transform_TransformPoint_m226827784
tLb:__ZN13GfxDeviceGLES11SetViewportERK5RectTIiE
hGc:__Z24Time_Get_Custom_PropTimev
Nd:_emscripten_glDepthRange
M4i:_SslStreamBase_BeginNegotiateHandshake_m4180435790
zXc:__ZN9Scripting11UnityEngine10UILineInfo12CleanupProxyEv
Yac:__ZNSt3__26vectorINS_4pairIN4core12basic_stringIcNS2_20StringStorageDefaultIcEEEES6_EE13stl_allocatorIS7_L18MemLabelIdentifier38ELi16EEE12__move_rangeEPS7_SC_SC_
kfc:__Z14resize_trimmedINSt3__26vectorIN9ShaderLab20SerializedSubProgram12UAVParameterENS0_9allocatorIS4_EEEEEvRT_j
hMc:__ZN5Unity9rapidjson13GenericReaderINS0_4UTF8IcEES3_13JSONAllocatorE11ParseObjectILj1ENS0_25GenericInsituStringStreamIS3_EENS0_15GenericDocumentIS3_S4_S4_EEEEvRT0_RT1_
jyd:_StandaloneInputModule_GetRawMoveVector_m2737091079
eFe:__ZL62Selectable_t3250028441_CustomAttributesCacheGenerator_m_ColorsP21CustomAttributesCache
d2g:_Convert_ToDateTime_m2616935982
GNb:__ZThn10632_N13GfxDeviceGLES22SetScissorRectPlatformERK5RectTIiE
u5i:_SslStreamBase_EndWrite_m4073224031
yaa:__ZNSt3__218__insertion_sort_3IRNS_6__lessI14ObjectLoadDataS2_EEPS2_EEvT0_S6_T_
_ka:__ZL50__ManagedRegistrationHelperFunction_PostLateUpdatePv
PRa:__ZN4crndL20crnd_default_reallocEPvjPjbS0_
oYa:__ZN18SpriteAtlasManager19AddRequestingSpriteE4PPtrI6SpriteE
K7b:__ZN23ScriptableRenderContextC2Ev
AGd:_GridLayoutGroup_get_spacing_m2409263614
hIh:_List_1_CheckIndex_m581273900_gshared
X7c:_UNITY_FT_Stream_GetChar
uzb:__Z18Transfer_BlittableI18StreamedBinaryReadILb1EELb1EdEvRK29SerializationCommandArgumentsR31RuntimeSerializationCommandInfo
MFb:__Z26BuildSerializationCacheFor17ScriptingClassPtrRb
pRb:__ZN7ApiGLES15BlitFramebufferEN2gl6HandleILNS0_10ObjectTypeE9EEENS0_15FramebufferReadES3_S3_iiiiiiiiNS0_15FramebufferTypeE
aqi:__Z112RuntimeInvoker_RuntimeObject_RuntimeObject_RuntimeObject_RuntimeObject_RuntimeObject_RuntimeObject_RuntimeObjectPFvvEPK10MethodInfoPvPS4_
h6e:_InternalEnumerator_1_System_Collections_IEnumerator_get_Current_m3553395619_AdjustorThunk
wCg:_Array_SetValue_m3998268557
CSc:__ZN8JSONRead8TransferI8Vector4fEEvRT_PKc17TransferMetaFlagsb
UAd:_ColorBlock_set_highlightedColor_m2089444414_AdjustorThunk
CIf:_RectTransform_INTERNAL_set_anchoredPosition_m939517950
B8f:_Context_EndSwitchingSecurityParameters_m4148956166
g3c:_otv_PairPos_validate
qy:__ZN7mecanim9animation14CopyHumanPosesEPKNS0_18AnimationNodeStateEPS1_RKNS_6bitsetILj83EEE
cNj:__ZN6il2cpp6icalls8mscorlib6SystemL8IsStaticEPK12PropertyInfo
RGb:__Z9InitInputv
a5c:_UNITY_tt_face_build_cmaps
tQj:__ZN6il2cpp2gc19AppendOnlyGCHashMapINSt3__24pairIPK10MethodInfoP11Il2CppClassEEP22Il2CppReflectionMethod17ReflectionMapHashIS9_ENS2_8equal_toIS9_EEE3AddERKS9_SB_
vgb:__ZN16MemoryFileSystem6DeleteER13FileEntryDatab
Lki:__Z81RuntimeInvoker_Void_t1185182177_RuntimeObject_Int64_t3736567304_Int32_t2950945753PFvvEPK10MethodInfoPvPS4_
sJh:_List_1_set_Item_m1979164443_gshared
Ljh:_Array_InternalArray__ICollection_Add_TisLink_t3209266973_m77922316_gshared
XOa:__ZL21BlitScaleStbImageImplRK14ImageReferenceRS_NS_10ColorSpaceE
LEg:_Boolean_System_IConvertible_ToUInt16_m3465173538_AdjustorThunk
Is:__ZL48__ManagedRegistrationHelperFunction_SkeletonBonePv
zPf:_InputField_get_keyboardType_m1248105267
yqb:__Z29Transfer_Blittable_ArrayFieldI14SafeBinaryReadyEvRT_R9ArrayInfoRK23StaticTransferFieldInfo
HQ:__ZN20SoundChannelInstance15setChannelGroupEPN4FMOD12ChannelGroupE
Yaj:_Match__ctor_m2425511580
Lrh:_KeyPairPersistence_Remove_m1876145547
ic:invoke_vifffii
Peb:__ZNK25MultiBlocksMemoryFileData5CloneEv
Whk:_GC_add_ext_descriptor
KOj:__ZNK15dense_hashtableINSt3__24pairIK10KeyWrapperINS1_IPK14Il2CppAssemblyP11Il2CppClassEEEjEES9_17ReflectionMapHashIS8_EN14dense_hash_mapIS9_jSD_NS9_14EqualsComparerINS0_8equal_toIS8_EEEENS0_9allocatorISB_EEE9SelectKeyESI_SK_E23find_position_with_hashERSA_j
sLi:_LayoutGroup_SetProperty_TisSingle_t1397266774_m793506911_gshared
mqf:_CryptoConfig_CreateFromName_m1538277313
lsk:dynCall_iiiiiiiiiiii
op:__ZN9Scripting11UnityEngine2AI18NavMeshBuildSource9InitProxyEv
KPf:_InputField_set_caretPositionInternal_m3823580651
Rjd:__ZN18UnityConnectClient16IsServiceEnabledEv
Fqa:__ZN9Scripting11UnityEngine10ColorGamut9InitProxyEv
Vgb:__ZN22VertexDeclarationCacheD0Ev
GZf:_Selectable_set_interactable_m3105888815
LEa:__ZL26KeywordSetToStringDontSortRKNSt3__26vectorIN4core12basic_stringIcNS1_20StringStorageDefaultIcEEEENS_9allocatorIS5_EEEERS5_
tha:__ZN6prcoreL17RemapGenericFloatI16TexFormatRGFloat17TexFormatRGBAHalfEEvPKNS_9InnerInfoE
IS:__ZN12AudioManager22CreateFMODSoundFromWWWEP10IWWWStream15FMOD_SOUND_TYPE17FMOD_SOUND_FORMATjjbbP10SampleClip
cxc:__ZNK32RendererMaterialAnimationBinding15GenerateBindingERKN4core12basic_stringIcNS0_20StringStorageDefaultIcEEEEbRN11UnityEngine9Animation14GenericBindingE
rOd:_TargetException__ctor_m4172127019
LQi:_List_1_CheckCollection_m274117203_gshared
Hze:__ZL70EventSystem_t1003666588_CustomAttributesCacheGenerator_m_FirstSelectedP21CustomAttributesCache
L8:__ZN8Remapper23GetOrGenerateInstanceIDERK26SerializedObjectIdentifier
GBd:_ColorTween_get_startColor_m3792586410_AdjustorThunk
glb:__ZN11TextureData17GetImageReferenceEii
vPe:_CustomInfo__ctor_m426096741
Gud:_EventSystem_ToString_m3779610692
yXa:__ZN6Sprite8TransferI24GenerateTypeTreeTransferEEvRT_
Jqc:__Z48Register_UnityEngine_Transform_SetAsFirstSiblingv
nOa:__ZNK18DelayedCallManager22GetTypeVirtualInternalEv
DXa:__ZN7SubMesh8TransferI24GenerateTypeTreeTransferEEvRT_
$Aj:_NativeTypeAttribute__ctor_m133676646
hVh:_Collection_1_System_Collections_IList_Contains_m296643274_gshared
WVg:_DirectoryInfo__ctor_m126519516
JKd:_MethodBase_GetMethodFromIntPtr_m3014201362
oqc:__ZN9Transform23SetSiblingIndexInternalEib
iPc:__ZN9JSONWrite8TransferI13dynamic_arrayIaLj0EEEEvRT_PKc17TransferMetaFlags
C$g:_Enumerator_MoveNext_m635366482
qzg:_X509Extension_Equals_m1222951829
Gw:__ZN7mecanim5human12HumanPoseSubERNS0_9HumanPoseERKS1_S4_
Q5j:__ZN6il2cpp8metadata15GenericMetadata15GetGenericClassEiPK17Il2CppGenericInst
Zob:__Z18Transfer_BlittableI14SafeBinaryReadLb0E10Matrix4x4fEvRK29SerializationCommandArgumentsR31RuntimeSerializationCommandInfo
bFb:__Z24GetFixedBehaviourManagerv
_Lj:__ZN6il2cpp2vm10ThreadPool4WaitEP17Il2CppAsyncResultPPv
Lyg:_PKCS12_Encrypt_m2617413749
Y9i:_X509Crl_VerifySignature_m1377612461
znk:_vfprintf
KLc:__ZN10GUIManager12AddGUIScriptER8ListNodeI13MonoBehaviourE
nma:__ZL53__ManagedRegistrationHelperFunction_StackTraceUtilityPv
S$g:_Stack_Clear_m2010200235
S$c:_cf2_getVStore
wwd:_PointerEventData_set_pointerPressRaycast_m1363193059
IZb:__ZN20DynamicPropertySheetD0Ev
SQd:_SafeHandle_Dispose_m4229010569
abc:__ZN14SafeBinaryRead17RegisterConverterEPKcS1_PFbPvRS_E
tie:__ZL77RuntimePlatform_t4159857903_CustomAttributesCacheGenerator_OSXDashboardPlayerP21CustomAttributesCache
$0:__ZN35RegisterRuntimeInitializeAndCleanup8RegisterEPFvPvES2_iS0_
C7i:_SubjectAltNameExtension_get_IPAddresses_m1641002124
rUe:_FieldBuilder_SetValue_m828035213
f6h:__ZN28GenericInterfaceFuncInvoker0IfE6InvokeEPK10MethodInfoP12Il2CppObject
vGc:__Z21Object_CUSTOM_DestroyP12Il2CppObjectf
rWb:__ZN8Material26ResetAllCachedMaterialDataEP6Shader
Eoi:__Z63RuntimeInvoker_Void_t1185182177_RuntimeObject_Int16_t2552820387PFvvEPK10MethodInfoPvPS4_
h8c:_UNITY_TT_Get_MM_Var
Jnf:_ObjectManager_AddFixup_m2154325362
q8e:_Comparer_1__cctor_m3761458313_gshared
Y7g:_DateTimeOffset_CompareTo_m1350732322_AdjustorThunk
aa:invoke_diddi
Ucd:__ZNK2UI6Canvas13GetRenderModeEv
uyf:_PersistentCall__ctor_m1217622171
Ahh:_Array_compare_TisCustomAttributeTypedArgument_t2723150157_m1384644047_gshared
vth:_StrongName_get_TokenAlgorithm_m1794722022
iob:__Z18Transfer_BlittableI14SafeBinaryReadLb0EiEvRK29SerializationCommandArgumentsR31RuntimeSerializationCommandInfo
MJj:__ZN6il2cpp2vm13MetadataCache30GetPropertyDefinitionFromIndexEi
_jj:_SymmetricTransform_Transform_m1683494363
Umd:__ZN22BaseUnityConnectClient17InitializeSessionERKN4core12basic_stringIcNS0_20StringStorageDefaultIcEEEES6_N19CloudServiceHandler13InitModeFlagsE
X$d:__ZL56KeyCollection_t4251528776_CustomAttributesCacheGeneratorP21CustomAttributesCache
Lui:__Z74RuntimeInvoker_RuntimeObject_Int32_t2950945753_RuntimeObject_RuntimeObjectPFvvEPK10MethodInfoPvPS4_
zWi:_List_1_get_Item_m200663048_gshared
cyk:_emscripten_glDeleteBuffers__wrapper
lDc:__ZN13MonoBehaviour34StopCoroutineFromEnumeratorManagedE18ScriptingObjectPtr
Rs:__ZN9Scripting11UnityEngine9HumanBone12CleanupProxyEv
bUc:__ZN11UnityEngine9Analytics18SceneLoadTimeEvent12SetSceneLoadERKN4core12basic_stringIcNS2_20StringStorageDefaultIcEEEEiyyyy
C4a:__ZN30RuntimeInitializeOnLoadManager8TransferI18StreamedBinaryReadILb0EEEEvRT_
M1g:_DateTimeOffset__ctor_m2084804982
D4c:_UNITY_tt_face_load_pclt
$mc:__ZL34GetComponentsImplementationRecurseILb1ELi0ELi2EEbR10GameObjectbRK17CompareParametersRK39GetComponentsImplementation_ReturnValue
YCg:_Array_Sort_m3698291233
oBf:_Material_GetTexture_m3545614349
vfi:__Z64RuntimeInvoker_RuntimeObject_Int32_t2950945753_Int16_t2552820387PFvvEPK10MethodInfoPvPS4_
Yyh:_EqualityComparer_1__cctor_m4244842342_gshared
bZb:__ZNK6Camera18WorldToScreenPointERK8Vector3fPb
PJf:_SendMouseEvents_DoSendMouseEvents_m2140870850
Fhd:__ZN14UnityAnalyticsD0Ev
Ybj:_PatternCompiler_EmitJump_m3915926156
QKb:__Z18IsCompressedFormat14GraphicsFormat
_w:__ZN7mecanim9animation19AdjustPoseForMotionERKNS0_14AvatarConstantERKNS0_14SkeletonTQSMapERKN4math4trsXERNS_10ValueArrayERNS_8skeleton13SkeletonPoseTIS8_EESG_
wMd:_MonoMethod_GetBaseDefinition_m2844667474
UOh:__Z33il2cpp_codegen_check_add_overflowxx
P6:__ZNSt3__227__insertion_sort_incompleteIRPFbRKN18AwakeFromLoadQueue4ItemES4_EPS2_EEbT0_S9_T_
Bie:__ZL73RuntimePlatform_t4159857903_CustomAttributesCacheGenerator_MetroPlayerARMP21CustomAttributesCache
nVg:_InvalidOperationException__ctor_m1685032583
MHj:__ZN14dense_hash_mapI10KeyWrapperIN6il2cpp5utils13dynamic_arrayIPK10Il2CppTypeLj4EEEEPFvvENS1_8metadata19Il2CppSignatureHashENS8_14EqualsComparerINSB_22Il2CppSignatureCompareEEENSt3__29allocatorINSG_4pairIKS8_SA_EEEEE15set_deleted_keyERSJ_
APh:_TimeSpan_op_Subtraction_m3592306516
WAh:_EqualityComparer_1_System_Collections_IEqualityComparer_GetHashCode_m1517903420_gshared
fWa:__ZN26EnlightenSystemInformation8TransferI14SafeBinaryReadEEvRT_
q5a:__ZN24GenerateTypeTreeTransfer8TransferINSt3__26vectorIN15ResourceManager10DependencyE13stl_allocatorIS4_L18MemLabelIdentifier52ELi16EEEEEEvRT_PKc17TransferMetaFlags
_xj:_CanvasRenderer_SplitUIVertexStreams_m2753637362
kwi:__Z119RuntimeInvoker_Void_t1185182177_RuntimeObject_Single_t1397266774_Single_t1397266774_SByte_t1669577662_Int32_t2950945753PFvvEPK10MethodInfoPvPS4_
bAa:__ZN27PerObjectLightCullingOutputD2Ev
V0a:__ZN12MeshRendererD0Ev
TT:__ZN12AudioManager35GetCurrentSpatializerDefinitionNameEv
Cma:__ZN9Scripting11UnityEngine14WaitForSeconds9InitProxyEv
yh:_utime
Dpe:__ZL56PlayableGraph_t3515989261_CustomAttributesCacheGeneratorP21CustomAttributesCache
pej:_BalancingGroup_Compile_m2575117193
fWj:__ZNSt3__26vectorIN6il2cpp2vm17TypeNameParseInfoENS_9allocatorIS3_EEE8allocateEj
Ws:__ZN9Scripting11UnityEngine22AnimatorTransitionInfo9InitProxyEv
Taj:_Mark_get_Index_m3048692661_AdjustorThunk
on:FUNCTION_TABLE_viiiiif
S7e:_DefaultComparer_Compare_m3931992727_gshared
tn:FUNCTION_TABLE_viiiiii
L6e:_InternalEnumerator_1_System_Collections_IEnumerator_get_Current_m1847780851_AdjustorThunk
Qij:_GUILayoutUtility_get_spaceStyle_m3392862907
Zgg:_SecurityException_ToString_m3228070608
N1g:_DateTimeOffset__ctor_m74032857
Fzg:_SmallXmlParser_Error_m3899025466
ZF:__ZN7mecanim9animation22DestroyAvatarWorkspaceEPNS0_15AvatarWorkspaceERNS_6memory9AllocatorE
uQh:_Type_type_is_assignable_from_m76737532
JIc:__ZN9Scripting11UnityEngine14GUILayoutGroup12CleanupProxyEv
fOa:__ZN14PlayableOutput17SetSourcePlayableEP8Playable
u4a:__ZNSt3__26vectorIN4core12basic_stringIcNS1_20StringStorageDefaultIcEEEE13stl_allocatorIS5_L18MemLabelIdentifier13ELi16EEE8__appendEj
AF:__ZN7mecanim9animation29MotionOutputGetDeltaTransformEPKNS0_12MotionOutputE
aUc:__ZN27PerformanceReportingManager21OnSceneTimingCallbackERK15SceneLoadTimingRKN4core12basic_stringIcNS3_20StringStorageDefaultIcEEEE
Vpc:__Z43Transform_CUSTOM_INTERNAL_get_localRotationP12Il2CppObjectP11Quaternionf
cOg:_CultureInfo_get_Parent_m672689885
rik:__ZN6il2cpp6icalls8mscorlib6System10Reflection4Emit13ModuleBuilder13RegisterTokenEP29Il2CppReflectionModuleBuilderP12Il2CppObjecti
hwk:_glGetShaderInfoLog__wrapper
Xqe:__ZL63SpriteBone_t303320096_CustomAttributesCacheGenerator_m_ParentIdP21CustomAttributesCache
bi:_emscripten_glGetTexParameteriv
Aka:__ZL49__ManagedRegistrationHelperFunction_ComputeBufferPv
dkd:__ZN11UnityEngine7Connect15DeviceInfoEvent7GFXInfoD2Ev
Fxk:_glGenTextures__wrapper
Hfc:__ZN9ShaderLab20SerializedSubProgram14ConstantBufferaSERKS1_
cLa:__ZN8PlayableD0Ev
vg:emscriptenWebGLGetBufferBinding
gM:__ZN12AudioManager8TransferI19StreamedBinaryWriteILb0EEEEvRT_
h_f:_Slider_UpdateCachedReferences_m3259451627
Zmi:__Z50RuntimeInvoker_Double_t594665363_Double_t594665363PFvvEPK10MethodInfoPvPS4_
P_j:__ZN15dense_hashtableINSt3__24pairIK10KeyWrapperINS1_IP11Il2CppClassjEEES4_EES6_N6il2cpp8metadata14ArrayClassHashEN14dense_hash_mapIS6_S4_SB_NS6_14EqualsComparerINSA_17ArrayClassCompareEEENS0_9allocatorIS8_EEE9SelectKeyESF_SH_E6insertERKS8_
gEd:_U3CShowU3Ec__AnonStorey1_U3CU3Em__0_m2340880019
Xmd:__ZN22BaseUnityConnectClient38PrepareConfigRequestOnMainThreadStaticEPS_
R6i:_TlsStream_Flush_m3793197834
ibb:__ZN22LocalFileSystemHandler9MakeLocalER13FileEntryDatab
Mdk:__ZN6il2cpp2vm8Profiler10AllocationEP12Il2CppObjectP11Il2CppClass
ZCe:__ZL61Graphic_t1660335611_CustomAttributesCacheGenerator_m_MaterialP21CustomAttributesCache
Kga:__Z13FormatOrderedPKcz
zNj:__ZN6il2cpp2vm8basepathEPKc
N4e:_InternalEnumerator_1_get_Current_m1506120701_AdjustorThunk
ptg:_X509Chain_GetAuthorityKeyIdentifier_m614536199
WXc:__ZN14SafeBinaryRead21TransferSTLStyleArrayI10vector_mapINSt3__24pairIttEEfN20TextRenderingPrivate8FontImpl14KerningCompareENS2_9allocatorINS3_IS4_fEEEEEEEvRT_17TransferMetaFlags
o7f:_TlsServerFinished__ctor_m1445633918
nPe:_NumberFormatter_FastIntegerToString_m390846811
LTf:__ZN21InterfaceFuncInvoker0IfE6InvokeEjP11Il2CppClassP12Il2CppObject
m0a:__ZN14CompressedMesh10GetQualityE15MeshCompression
z4b:__ZN25DeferredRenderLoopScratchD0Ev
gz:__ZN27AnimationLayerMixerPlayable14SetInputWeightEif
vsi:__Z83RuntimeInvoker_Void_t1185182177_RuntimeObject_Single_t1397266774_Single_t1397266774PFvvEPK10MethodInfoPvPS4_
$vd:_PhysicsRaycaster_Raycast_m776323695
yMf:_UnityException__ctor_m1456865679
Cw:__ZN7mecanim9animation17EvaluateHumanPoseERKNS0_18ClipMuscleConstantERKNS0_15ClipMuscleInputEPKfRKNS0_12MotionOutputERNS_5human9HumanPoseE
Sec:__ZN15dense_hashtableINSt3__24pairIKiN4core17string_with_labelILi1EEEEEi18SInt32HashFunctionN14dense_hash_mapIiS5_S7_NS0_8equal_toIiEE13stl_allocatorIS6_L18MemLabelIdentifier1ELi16EEE9SelectKeyESA_SD_E9copy_fromERKSG_j
PRe:_CustomAttributeNamedArgument_GetHashCode_m2317130892
N4a:__ZN15ResourceManagerD0Ev
DBa:__ZN22CreateGpuProgramOutputD2Ev
DVi:_List_1_get_Item_m1378751541_gshared
Ccg:_SHA1CryptoServiceProvider_Finalize_m1793183797
S0g:_Convert_ToByte_m4146281512
DCh:_HashSet_1_System_Collections_Generic_ICollectionU3CTU3E_CopyTo_m408073502_gshared
z3f:_EncryptedPrivateKeyInfo_get_EncryptedData_m491452551
xbb:__ZN12HandlerChain4OpenER13FileEntryData14FilePermission16FileAutoBehavior
wkh:_Array_InternalArray__ICollection_Add_TisPlayerLoopSystem_t105772105_m1930641144_gshared
lCi:__Z72RuntimeInvoker_Void_t1185182177_Int32_t2950945753_RaycastHit_t1056001966PFvvEPK10MethodInfoPvPS4_
xQj:__ZN15dense_hashtableINSt3__24pairIK10KeyWrapperINS1_IPK10MethodInfoP11Il2CppClassEEEjEES9_17ReflectionMapHashIS8_EN14dense_hash_mapIS9_jSD_NS9_14EqualsComparerINS0_8equal_toIS8_EEEENS0_9allocatorISB_EEE9SelectKeyESI_SK_E6insertERKSB_
VK:__ZL55__ManagedRegistrationHelperFunction_AudioPlayableOutputPv
mUc:__ZN27PerformanceReportingManager29OnSceneLoadedAfterAwakeStaticEPS_iR18AwakeFromLoadQueueN19RuntimeSceneManager11LoadingModeE
uCg:_Array_SetValue_m394135409
T9:__ZN14FileCacherReadD2Ev
H7a:__ZN13RendererScene23UpdatePreviousFrameDataEii
qDf:_MonoBehaviour_StopCoroutine_m615723318
Jmc:__Z50Register_UnityEngine_CullingGroup_FinalizerFailurev
qfg:_SecurityPermission_IsSubsetOf_m545000671
Jjc:__ZN12ShaderErrors11ShaderErrorC2EOS0_
jqk:__ZNKSt3__221__basic_string_commonILb1EE20__throw_out_of_rangeEv
Vwf:_Cursor_get_lockState_m2828192107
dLj:_UpdatedEventHandler_Invoke_m1320302085
hkg:_String_Format_m630303134
vS:__ZN9AudioClip23VirtualRedirectTransferER18StreamedBinaryReadILb0EE
VG:__ZN26AnimatorOverrideController23VirtualRedirectTransferER24GenerateTypeTreeTransfer
_Vi:_List_1_AddEnumerable_m2724989594_gshared
cvi:__Z82RuntimeInvoker_Vector2_t2156229523_Vector2_t2156229523_RuntimeObject_RuntimeObjectPFvvEPK10MethodInfoPvPS4_
YEc:__Z70Register_UnityEngine_Playables_PlayableHandle_GetPlayableType_Injectedv
s2f:_ARC4Managed_TransformBlock_m1687647868
Cj:_glCopyTexSubImage2D
DMf:_UnitySynchronizationContext_ExecuteTasks_m1310741010
$3i:_RIPEMD160Managed_CompressFinal_m497690796
wGb:__ZN18ScreenManagerWebGL13SetShowCursorEb
tUb:__ZN13DrawImmediateC2ER9GfxDevice
bEa:__ZN18VertexChannelsInfoC2ERA12_K11ChannelInfo
Ddd:__ZN2UI13CanvasManager14GetRenderOrderEPKNS_6CanvasE
Vob:__Z18Transfer_BlittableI14SafeBinaryReadLb0E5RectTIfEEvRK29SerializationCommandArgumentsR31RuntimeSerializationCommandInfo
rPe:_NumberFormatter_NumberToString_m2562899600
o3c:_otv_u_C_x_Ox
ZVc:__ZL44__ManagedRegistrationHelperFunction_ColliderPv
tyk:_emscripten_glGenVertexArrays__wrapper
NUh:_Version_Clone_m1749041863
xPa:__ZN6prcoreL21CreateRemapAnyBlitterE13TextureFormatS0_
b4f:_RSAManaged_ExportParameters_m1754454264
FBc:__ZN17AnimationCurveTplIfE16StripInvalidKeysEv
XEg:_Boolean_Equals_m535526264_AdjustorThunk
Ndd:__ZNK2UI6Canvas17GetSortingLayerIDEv
ACc:__ZL12HashLen0to16PKcj
dYj:_il2cpp_method_has_attribute
AVa:__ZN8Renderer24SetupNewRendererForSceneEv
oQh:_Type_internal_from_name_m1721940673
wYj:_il2cpp_type_get_class_or_element_class
Sch:_Environment_get_TickCount_m2088073110
llf:_RemotingServices_GetMethodBaseFromName_m3194612939
MQc:__Z35Transfer_Blittable_FixedBufferFieldI8JSONReadtEvRK29SerializationCommandArgumentsR31RuntimeSerializationCommandInfo
Ezc:__ZN14PlayableOutput6HandleEv
MWa:__ZNK6Sprite22GetTypeVirtualInternalEv
Rpa:__ZN9Scripting11UnityEngine12Experimental9Playables22MaterialEffectPlayable9InitProxyEv
nn:FUNCTION_TABLE_iiiiiiiiiiiiii
XAj:_NativePropertyAttribute__ctor_m2033094153
f4c:_UNITY_tt_get_cmap_info
xbg:_SslClientStream_RaiseServerCertificateValidation_m3477149273
Jvb:__Z29Transfer_Blittable_ArrayFieldI24GenerateTypeTreeTransfer5RectTIiEEvRT_R9ArrayInfoRK23StaticTransferFieldInfo
AGa:__ZN16ReflectionProbes8ScheduleEN18ReflectionProbeJob7JobTypeEP15ReflectionProbei
s7f:_ClientSessionInfo_KeepAlive_m1020179566
$aa:__ZN16MessageForwarder13HandleMessageEPviR11MessageData
Ycb:__Z18IsDirectoryCreatedRKN4core12basic_stringIcNS_20StringStorageDefaultIcEEEE
cfg:_String_FormatHelper_m3913915042
Lbd:__ZN2UI13CanvasManagerD2Ev
uRe:_ConstructorInfo__cctor_m1016079270
yEj:__ZN15dense_hashtableINSt3__24pairIK10KeyWrapperIPKcEP11Il2CppClassEES5_N6il2cpp5utils11StringUtils12StringHasherIS4_EEN14dense_hash_mapIS5_S8_SE_NS5_14EqualsComparerINSB_13VmStringUtils21CaseSensitiveComparerEEENS0_9allocatorIS9_EEE9SelectKeyESJ_SL_E15set_deleted_keyERKS9_
rAg:_AttrListImpl_get_Names_m977594476
NRe:_CustomAttributeData_GetHashCode_m3727773664
m_c:_UNITY_FT_GlyphLoader_Done
lga:__ZNSt3__23mapIiN11TypeManager18TypeCallbackStructENS_4lessIiEENS_9allocatorINS_4pairIKiS2_EEEEEixERS7_
jOd:_Pointer_Box_m389276611
snb:__ZNK17InstancingBatcher15RenderInstancesERK19ShaderPropertySheetRKNS_22RenderInstancesConfigsERK11MeshBuffersRK16DrawBuffersRange16VertexInputMasks
Qah:_StackTrace_get_FrameCount_m344690939
H9:__ZN13dynamic_arrayIcLj0EE6insertEPcPKcS3_
mKe:_UnexceptionalStreamWriter_Write_m363195622
f5c:_tt_cmap14_char_var_index
xQf:_Selectable_OnPointerDown_m1086067264
k9c:_psh_globals_new
ADd:_Dropdown_SetupTemplate_m628218778
kMh:_Thread_GetCompressedStack_m2923422412
dCf:_Matrix4x4_MultiplyPoint3x4_m4145063176
Erg:_X509BasicConstraintsExtension_ToString_m1809935297
chb:__ZN9GfxDevice20SetMaxBufferedFramesEi
Jci:_TweenRunner_1_StartTween_m1055628540_gshared
E_h:_ReadOnlyCollection_1_System_Collections_IList_Remove_m4129318771_gshared
eLi:_GameObject_GetComponents_TisRuntimeObject_m1246177135_gshared
Bsk:dynCall_vdd
eLe:_MethodAccessException__ctor_m3542088436
vcc:__Z23ConvertIntegerToTypePtrIsEbPvR14SafeBinaryRead
ut:__ZN9Scripting11UnityEngine10Animations26AnimatorControllerPlayable9InitProxyEv
end:__ZN11UnityEngine7Connect13ConfigHandler13ConfigChangedERKN4core12basic_stringIcNS2_20StringStorageDefaultIcEEEEb
qyh:_EqualityComparer_1_System_Collections_IEqualityComparer_GetHashCode_m2230215241_gshared
eGe:__ZL60ContentSizeFitter_t3850442145_CustomAttributesCacheGeneratorP21CustomAttributesCache
yLg:_Hashtable_Contains_m2145146412
Dja:__ZN6prcoreL29inner_stretch_rgb565_bilinearEPKNS_9InnerInfoE
nDa:__Z26TransformVerticesInnerLoopILb0ELb0ELb1EEvPhRK10Matrix4x4fRK10Matrix3x3fjPKhiS8_ii25GfxTransformVerticesFlagsj
ySg:_Int32_FindCurrency_m3541026887
vxg:_Interval_CompareTo_m3282557545
rzk:_pthread_cond_wait__wrapper
G3b:__ZNK14RenderSettings19GetFlatAmbientColorEv
ICa:__ZN8DrawUtil24DrawMeshRawFromNodeQueueERK15RenderNodeQueuej16VertexInputMasksi
E3a:__ZN18StreamedBinaryReadILb0EE21TransferSTLStyleArrayI10vector_mapIPKN5Unity4TypeE7Hash128NSt3__24lessIS6_EENS8_9allocatorINS8_4pairIS6_S7_EEEEEEEvRT_17TransferMetaFlags
dB:__ZNK27StateMachineBehaviourPlayer15IsSenderEnabledEv
_Qj:__ZN6il2cpp2gc19AppendOnlyGCHashMapINSt3__24pairIPK11Il2CppImageP11Il2CppClassEEP22Il2CppReflectionModule17ReflectionMapHashIS9_ENS2_8equal_toIS9_EEE11TryGetValueERKS9_PSB_
K3i:_RijndaelManagedTransform_TransformBlock_m1610137419
Dqc:__Z40Register_UnityEngine_Transform_SetParentv
OOa:__ZN14Texture2DArray17UploadToGfxDeviceEv
dO:__Z14FMODMemoryFreePvjPKc
Kpa:__ZN9Scripting11UnityEngine12Experimental10PlayerLoop11FixedUpdate12CleanupProxyEv
nyf:_NetFxCoreExtensions_GetMethodInfo_m444570327
fQh:_Type_get_IsSystemType_m624798880
GCf:_Mesh_SetNormals_m2521889643
x0c:_cf2_glyphpath_moveTo
fEc:__Z51Register_UnityEngine_Texture_get_texelSize_Injectedv
xKf:_StackTraceUtility_SetProjectFolder_m830524047
Dx:__ZN7mecanim23TransformValueArrayLoopEiiiRKN4math4trsXES3_RNS_10ValueArrayEf
H7f:_ClientSessionInfo_Finalize_m2165787049
jLc:__ZN5IMGUI14GUIWindowStateD2Ev
E6f:_ClientContext_Clear_m1774063253
X2a:__ZN26PlayerSettingsSplashScreen16CheckConsistencyEv
YAc:__ZN4Mesh17SetIndicesComplexEPKvjj16GfxPrimitiveTypeij
i7g:_DateTime_AddSeconds_m332574389_AdjustorThunk
kMf:_RequestAtlasCallback_Invoke_m378128467
yFg:_Byte_System_IConvertible_ToSByte_m1869482168
_ki:__Z99RuntimeInvoker_RuntimeObject_RuntimeObject_RuntimeObject_StreamingContext_t3711869237_RuntimeObjectPFvvEPK10MethodInfoPvPS4_
olj:_AnalyticsEventTracker_Awake_m2780522130
FE:__ZN7mecanim5human10RetargetToEPKNS0_5HumanEPKNS0_9HumanPoseES6_RKN4math4trsXEPS4_PNS_8skeleton13SkeletonPoseTIS8_EESF_
wx:__ZN7mecanim9animation8SeekClipERKNS0_12StreamedClipERNS0_18StreamedClipMemoryEf
_zf:_GameObject_Internal_AddComponentWithType_m3797731663
lm:_emscripten_glIsTexture
Sk:_emscripten_glHint
skj:_Check_SourceAndPredicate_m2332465641
V7c:_ft_var_readpackeddeltas
Ryb:__Z35Transfer_Blittable_FixedBufferFieldI18StreamedBinaryReadILb1EEtEvRK29SerializationCommandArgumentsR31RuntimeSerializationCommandInfo
zSh:_UInt32_System_IConvertible_ToInt64_m2261037378
om:_SDL_UpperBlit
vGa:__Z35GetTextureDecodeValuesWithIntensity16TextureUsageMode17TextureColorSpace10ColorSpacef
adj:_Parser_ParseRepetitionBounds_m1246581246
xeh:_Array_InternalArray__ICollection_Remove_TisChar_t3634460470_m4143749387_gshared
HUb:__ZN15dense_hashtableINSt3__24pairIK9TextureIDiEES2_14GfxGenericHashIS2_EN14GfxDoubleCacheIS2_iS6_NS0_8equal_toIS2_EEN31GfxDoubleCacheConcurrencyPolicy11LocklessGetE42GfxDoubleCacheDefaultEmptyDeletedGeneratorIS2_EE9SelectKeyES9_13stl_allocatorIS4_L18MemLabelIdentifier24ELi16EEE14squash_deletedEv
esc:__Z13RegisterClassI14Texture2DArrayEvPKc
Nmg:_Encoding_GetBytes_m3823106599
nNg:_GregorianCalendar__ctor_m979779718
Yag:_SslClientStream__ctor_m2402546929
kFb:__ZN14SafeBinaryRead20OverrideRootTypeNameEPKc
Mng:_DictionaryNodeEnumerator_get_Entry_m2309234501
X9:__ZN14FileCacherRead16UnlockCacheBlockEj
uH:__ZN26AnimatorOverrideController8TransferI24GenerateTypeTreeTransferEEvRT_
c4:__ZN10InstancingL21OnGraphicsCapsChangedEv
Une:__ZL101SystemInfo_t3561985952_CustomAttributesCacheGenerator_SystemInfo_GetOperatingSystemFamily_m1440411909P21CustomAttributesCache
nOh:_WaitHandle_get_Handle_m3260446580
TFh:_Enumerator_VerifyState_m1745883925_AdjustorThunk
Gc:_emscripten_glUniform1f
X_g:_SortedList__ctor_m1261191695
iZj:__ZN6il2cpp2vm6Thread28GetThreadStaticDataForThreadEiP12Il2CppThread
Z_c:__Z20ParseImageParametersR11UTF16StringRiRN20TextRenderingPrivate16TextFormatChangeE
VFe:__ZL55CanvasScaler_t2767979955_CustomAttributesCacheGeneratorP21CustomAttributesCache
Lc:_emscripten_glUniform1i
eub:__Z18Transfer_BlittableI24GenerateTypeTreeTransferLb1EN4math12int3_storageEEvRK29SerializationCommandArgumentsR31RuntimeSerializationCommandInfo
KWf:__Z14bankers_roundff
uY:__ZN11UnityEngine15CloudWebService16SessionContainer20RestoreSessionHeaderERKN4core12basic_stringIcNS2_20StringStorageDefaultIcEEEES8_RNS0_13SessionHeaderE
jkk:__ZN6il2cpp2os12Cryptography23GetCryptographyProviderEv
pu:__ZN11UnityEngine9Animation27CreateAvatarBindingConstantER9TransformPKN7mecanim9animation14AvatarConstantERNS3_6memory9AllocatorE
oki:__Z151RuntimeInvoker_RuntimeObject_Int32_t2950945753_RuntimeObject_ObjectU5BU5DU26_t712384779_RuntimeObject_RuntimeObject_RuntimeObject_ObjectU26_t2146539884PFvvEPK10MethodInfoPvPS4_
Rhd:__ZN8JSONRead19TransferSTLStyleMapINSt3__23mapIN4core12basic_stringIcNS3_20StringStorageDefaultIcEEEEN11UnityEngine9Analytics16LimitEventConfigENS1_4lessIS7_EE13stl_allocatorINS1_4pairIKS7_SA_EEL18MemLabelIdentifier6ELi16EEEEEEvRT_17TransferMetaFlags
wDc:__ZN9BlobWriteC2ER13dynamic_arrayIhLj16EE24TransferInstructionFlags19BuildTargetPlatform
jAd:_CanvasUpdateRegistry__ctor_m2005397069
d8:__ZN14MessageHandler3GetEv
ALd:_MonoMethodInfo_GetCallingConvention_m3156036493
Jzf:_SupportedRenderingFeatures_FallbackMixedLightingModeByRef_m3859171964
_c:_emscripten_glAttachShader
c2:__Z40DebugStringToFilePostprocessedStacktraceRK21DebugStringToFileData
bId:_Image__cctor_m1927508576
_gc:__ZNSt3__26vectorIN4core12basic_stringIcNS1_20StringStorageDefaultIcEEEENS_9allocatorIS5_EEE6assignIPS5_EENS_9enable_ifIXaasr21__is_forward_iteratorIT_EE5valuesr16is_constructibleIS5_NS_15iterator_traitsISC_E9referenceEEE5valueEvE4typeESC_SC_
OUa:__ZThn32_N8Renderer15AddAsRenderNodeER15RenderNodeQueueRK20DeprecatedSourceData
dRb:__ZN13dynamic_arrayIN18GlslGpuProgramGLES9GLProgramELj0EE6insertEPS1_jRKS1_
P6e:_InternalEnumerator_1_get_Current_m3331252162_AdjustorThunk
Cob:__Z18Transfer_BlittableI14SafeBinaryReadLb0E11QuaternionfEvRK29SerializationCommandArgumentsR31RuntimeSerializationCommandInfo
_Bb:__Z18Transfer_BlittableI18StreamedBinaryReadILb0EELb1E12PropertyNameEvRK29SerializationCommandArgumentsR31RuntimeSerializationCommandInfo
M1:_tlsf_walk_heap
dki:__Z49RuntimeInvoker_Void_t1185182177_OpCode_t123070264PFvvEPK10MethodInfoPvPS4_
gue:__ZL59AnimatorClipInfo_t3156717155_CustomAttributesCacheGeneratorP21CustomAttributesCache
q5g:_Convert_ToUInt32_m3592050311
gb:invoke_vif
VKi:_Component_GetComponents_TisRuntimeObject_m2416546752_gshared
hb:invoke_vid
Bqk:__ZNSt3__212basic_stringIcNS_11char_traitsIcEENS_9allocatorIcEEE6insertEjPKc
jb:invoke_vii
ZPe:_Random_Sample_m2289397474
Pua:__ZN12TLSAllocatorI14StackAllocatorE16ThreadInitializeEP13BaseAllocator
Dli:__Z82RuntimeInvoker_Boolean_t97287965_SByte_t1669577662_RuntimeObject_SByte_t1669577662PFvvEPK10MethodInfoPvPS4_
nhb:__ZN9GfxDevice32UpdateStereoViewProjectionMatrixE21MonoOrStereoscopicEye
M_:__Z29GetCloudWebServicesModuleSpecv
Ied:__Z41CanvasRenderer_CUSTOM_DisableRectClippingP12Il2CppObject
qMe:_MonoType_GetConstructorImpl_m441167626
Cka:__ZL45__ManagedRegistrationHelperFunction_CoroutinePv
p$i:_Collection_1_IsFixedSize_m3709118201_gshared
Afb:__ZN25SingleBlockMemoryFileDataD0Ev
lK:__ZNSt3__26vectorI14ConstantStringNS_9allocatorIS1_EEE6assignINS_11__wrap_iterIPS1_EEEENS_9enable_ifIXaasr21__is_forward_iteratorIT_EE5valuesr16is_constructibleIS1_NS_15iterator_traitsISA_E9referenceEEE5valueEvE4typeESA_SA_
pY:__ZN11UnityEngine15CloudWebService16SessionContainer21ConvertFromFolderTimeERKN4core12basic_stringIcNS2_20StringStorageDefaultIcEEEEPjPt
Upf:_CodeAccessPermission_Equals_m1555575992
mqb:__ZNSt3__26vectorI8GUIStyle13stl_allocatorIS1_L18MemLabelIdentifier1ELi16EEE7reserveEj
a0j:__ZN6il2cpp6icalls8mscorlib6System9Threading6Thread27GetSerializedCurrentCultureEP12Il2CppThread
c8f:_Context_set_ReadSequenceNumber_m2154909392
F3i:_RijndaelTransform_SubByte_m3037693507
Ftc:__Z31CalculateHierarchyTransformType23TransformAccessReadOnly
FN:__ZN4FMOD8ChannelI11setPositionEjj
EAf:_Input_INTERNAL_CALL_GetTouch_m3481893561
Zfk:_GC_set_fl_marks
h4a:__ZNSt3__26vectorIN30RuntimeInitializeOnLoadManager15ClassMethodInfoE13stl_allocatorIS2_L18MemLabelIdentifier13ELi16EEE7reserveEj
qhb:__ZN9GfxDevice17SetStereoViewportE15StereoscopicEyeRK5RectTIiE
bga:__ZN17BaseObjectManager13StaticDestroyEPv
F0:__GLOBAL__sub_I_Runtime_Graphics_Mesh_1_cpp
Lxj:_CanvasRenderer_INTERNAL_CALL_GetColor_m597074473
C8e:_Comparer_1__cctor_m3891417387_gshared
CLh:_UTF7Decoder_GetChars_m3413809261
nT:__ZN12AudioManager14UpdateListenerERK8Vector3fS2_S2_S2_
QTe:_EnumBuilder_GetEvent_m4074915332
ILf:_Vector3_get_forward_m3100859705
HL:__ZN4FMOD6Reverb13setPropertiesEPK22FMOD_REVERB_PROPERTIES
r_b:__ZN9DepthPass13PrepareSubsetEjRK10RenderNodeifRK17ShaderReplaceData
djg:_String_IndexOf_m3406607758
Qfc:__ZN9ShaderLab20SerializedSubProgram16TextureParameter8TransferI14SafeBinaryReadEEvRT_
V3c:_otv_BaseCoord_validate
eBc:__Z35SetMeshComponentFromArrayFromScriptR4Mesh30InternalScriptingShaderChannel34InternalScriptingVertexChannelTypei17ScriptingArrayPtri
$jh:_Array_InternalArray__ICollection_Add_TisCustomAttributeNamedArgument_t287865710_m4157175270_gshared
Gq:__ZN4core20StringStorageDefaultIcE6assignEPKcj
ETh:_UInt64_System_IConvertible_ToUInt64_m2135047981_AdjustorThunk
W0f:_BigInteger_ModPow_m3776562770
r7j:__ZN15dense_hashtableINSt3__24pairIK10KeyWrapperIP12Il2CppObjectEN6il2cpp2gc9CachedCCWEEES5_NS7_5utils11PointerHashIS3_EEN14dense_hash_mapIS5_S9_SD_NS5_14EqualsComparerINS0_8equal_toIS4_EEEENS0_9allocatorISA_EEE9SelectKeyESI_SK_E3endEv
amd:__ZNSt3__26__treeINS_12__value_typeIN4core12basic_stringIcNS2_20StringStorageDefaultIcEEEE14CallbackArray3IRKS6_R8JSONReadbEEENS_19__map_value_compareIS6_SD_NS_4lessIS6_EELb1EEE13stl_allocatorISD_L18MemLabelIdentifier6ELi16EEE25__emplace_unique_key_argsIS6_JNS_4pairIS6_SC_EEEEENSN_INS_15__tree_iteratorISD_PNS_11__tree_nodeISD_PvEEiEEbEERKT_DpOT0_
dag:_RecordProtocol_ProcessChangeCipherSpec_m15839975
IHg:_ArrayList_IndexOf_m305368842
r8b:__ZN6Camera6SetFarEf
hmf:_FormatterConverter_ToBoolean_m1680758923
nja:__ZN6prcoreL12RemapGenericI17TexFormatABGR888817TexFormatARGB8888EEvPKNS_9InnerInfoE
mva:__ZN11GameManager17MainThreadCleanupEv
DYh:_ReadOnlyCollection_1__ctor_m1345363288_gshared
ped:__Z50Register_UnityEngine_UISystemProfilerApi_EndSamplev
inf:_SerializationCallbacks_GetSerializationCallbacks_m2939476649
H6c:_UNITY_tt_slot_init
$Vb:__ZZ23InitPlayerLoopCallbacksvEN41PostLateUpdateUpdateResolutionRegistrator7ForwardEv
PDb:__Z25scripting_array_class_get17ScriptingClassPtrj
NOc:__ZL22Transfer_ManagedObjectI9JSONWriteLb1EEvRK29SerializationCommandArgumentsR31RuntimeSerializationCommandInfo
gS:__ZNK10SampleClip22GetTypeVirtualInternalEv
iib:__ZN9GfxDevice20DestroyRenderSurfaceER12ObjectHandleI17RenderSurface_TagP17RenderSurfaceBaseE
M$g:_Stack__ctor_m2602729586
nDg:_Array_slow_swapper_m4116724811
j7b:__ZN12_GLOBAL__N_15qAsinEff
N_e:_InternalEnumerator_1_System_Collections_IEnumerator_get_Current_m2629988057_AdjustorThunk
Qua:__ZN12TLSAllocatorI14StackAllocatorE13ThreadCleanupEv
JZa:__ZN14SafeBinaryRead21TransferSTLStyleArrayI13dynamic_arrayI8Vector4fLj0EEEEvRT_17TransferMetaFlags
xUh:_ValueType_InternalEquals_m1384040357
Ddk:__ZThn4_N6il2cpp2vm13ComObjectBase16MarshalInterfaceEP13Il2CppIStreamRK10Il2CppGuidPvjS7_j
b3g:_Convert_ToDouble_m996590115
Hdc:__Z27FindActiveTransformWithPathPKc
$0h:_ReadOnlyCollection_1_System_Collections_IList_Remove_m4169110229_gshared
dSh:_UInt16_ToString_m3020002356
oTf:_LayoutRebuilder_LayoutComplete_m68578143
Cij:_GUIStyle_get_fixedWidth_m2576616348
l$g:_SortedList_Find_m3363512987
y0b:__ZNK6Camera7GetNearEv
yUe:_GenericTypeParameterBuilder_GetConstructorImpl_m863833310
mcf:_Enumerator_get_Current_m3687673883_AdjustorThunk
edd:__ZN2UI13CanvasManager8SortListEv
MQb:__ZN7ApiGLES11UnmapBufferEjN2gl12BufferTargetE
Udk:__ZN6il2cpp5utilsL24Utf32CharToSurrogatePairEjRA2_Ds
CRa:__Z25GetNextAllowedTextureSizeib13TextureFormat
GGb:__ZN20LocalFileSystemWebGL4CopyER13FileEntryDataS1_
v$:__ZN19CloudServiceHandler6RetainEv
tZh:_ReadOnlyCollection_1_System_Collections_IList_IndexOf_m198887188_gshared
lwi:__Z71RuntimeInvoker_Vector2_t2156229523_Vector2_t2156229523_Rect_t2360479859PFvvEPK10MethodInfoPvPS4_
iJc:__Z36Event_CUSTOM_Internal_SetNativeEventPv
SKh:_UTF32Encoding_GetBytes_m3180303867
d$h:_ReadOnlyCollection_1_System_Collections_IList_Clear_m2007013334_gshared
I8a:__Z34scripting_liveness_calculation_endPv
aGg:_Char_GetDataTablePointers_m754571594
iak:__ZN6il2cpp2os6ThreadC2Ev
Pvc:__ZN28ReflectionProbeAnchorManager7CleanupEv
k8g:_DateTimeOffset_get_UtcDateTime_m1021718282_AdjustorThunk
Rw:__ZN21AnimationClipPlayable22ProcessAnimationNoClipEPK35AnimationPlayableEvaluationConstantPK32AnimationPlayableEvaluationInputP33AnimationPlayableEvaluationOutput
hng:_HybridDictionary_get_Count_m1166314536
M6i:_TlsStream_Write_m1412844442
oQc:__Z18Transfer_BlittableI8JSONReadLb0E8Vector3fEvRK29SerializationCommandArgumentsR31RuntimeSerializationCommandInfo
VBf:_Matrix4x4__ctor_m53065545_AdjustorThunk
LYj:__ZN6il2cpp2vm6Thread6DetachEP12Il2CppThread
n7i:_GeneralNames_get_DNSNames_m3788548987
z9c:_Render_Single_Pass
uvj:_Hacker_OnUserInput_m1095014035
Tdg:_SymmetricAlgorithm_get_IV_m1875559108
Vka:__ZL56__ManagedRegistrationHelperFunction_TextureMixerPlayablePv
Du:__ZN7mecanim8skeleton30SkeletonBuildReverseIndexArrayEPiPKiPKNS0_8SkeletonES6_
FJc:__Z19GetGUIBlendMaterialv
VKe:_Math_Round_m3018379666
_ak:__ZN6il2cpp2os10ThreadImpl5SleepEjb
vZh:_ReadOnlyCollection_1_System_Collections_IList_Remove_m1965826685_gshared
Rmd:__ZN22BaseUnityConnectClient12IsNewSessionEv
wwe:__ZL82LayoutCache_t78309876_CustomAttributesCacheGenerator_LayoutCache__ctor_m3885940174P21CustomAttributesCache
jah:_Delegate_CreateDelegate_m1051651521
Ffh:_PlayableHandle_IsPlayableOfType_TisRuntimeObject_m503495943_AdjustorThunk
Vxk:_glBindSampler__wrapper
hVb:__ZNSt3__26vectorIN20ArchiveStorageHeader12StorageBlockE13stl_allocatorIS2_L18MemLabelIdentifier55ELi16EEE8__appendEj
Gf:_emscripten_set_mouseup_callback
NBf:_Mathf_Clamp_m3350697880
Qli:__Z165RuntimeInvoker_Void_t1185182177_UInt32U26_t3735378166_Int32_t2950945753_UInt32U26_t3735378166_Int32_t2950945753_Int32_t2950945753_Int32_t2950945753_Int32_t2950945753PFvvEPK10MethodInfoPvPS4_
HIh:_List_1_System_Collections_IList_Remove_m3140917266_gshared
Gug:_X509ChainElementCollection_System_Collections_IEnumerable_GetEnumerator_m3829089536
zGb:__ZNK18ScreenManagerWebGL8GetWidthEv
POh:_TimeSpan_get_TotalHours_m306507525_AdjustorThunk
dS:__ZN10SampleClipD2Ev
Q7h:_Predicate_1_Invoke_m2389850270_gshared
a8a:__Z13GetGISettingsv
f$:__ZN11UnityEngine15CloudWebService20WebRequestRestClientC2Ev
g2c:_cff_cmap_unicode_init
Jdh:_Array_InternalArray__ICollection_Contains_TisRuntimeObject_m4067783231_gshared
ika:__ZL60__ManagedRegistrationHelperFunction_AssemblyIsEditorAssemblyPv
UZi:_Collection_1_IsValidItem_m3080586124_gshared
LAd:_ClipperRegistry_Register_m2407166513
bpk:_readlink
sSj:__ZN15dense_hashtableINSt3__24pairIK10KeyWrapperINS1_IPK9EventInfoP11Il2CppClassEEEjEES9_17ReflectionMapHashIS8_EN14dense_hash_mapIS9_jSD_NS9_14EqualsComparerINS0_8equal_toIS8_EEEENS0_9allocatorISB_EEE9SelectKeyESI_SK_E12resize_deltaEjj
vLd:_MonoCMethod_Invoke_m2700167622
B_g:_KeyMarker__cctor_m2590194914
klk:__ZN6il2cpp2os13SemaphoreImplC2Eii
V_a:__ZNK6Sprite9GetBoundsE8Vector2fbb
Qza:__ZNK19RenderEventsContext21CleanupCommandBuffersEv
Swj:_TextGenerator_PopulateWithErrors_m1222498386
f0h:_ReadOnlyCollection_1_System_Collections_Generic_ICollectionU3CTU3E_Clear_m2102011098_gshared
lOb:__ZN11ContextGLES6CreateEi
ZPi:_List_1_set_Capacity_m3382070520_gshared
ORf:_U3CMouseDragOutsideRectU3Ec__Iterator1_Dispose_m267465418
M9g:_Decimal_CompareTo_m3502307243_AdjustorThunk
PCb:__Z19TransferField_ArrayI18StreamedBinaryReadILb0EE27Converter_SimpleNativeClassI17AnimationCurveTplIfEEEvRK23StaticTransferFieldInfoR31RuntimeSerializationCommandInfoRT0_
iva:__ZN14StackAllocator16FrameMaintenanceEb
fUa:__Z18ReadStringFromFilePN4core17string_with_labelILi1EEERKNS_12basic_stringIcNS_20StringStorageDefaultIcEEEE
hPc:__ZN9JSONWrite8TransferI13dynamic_arrayIjLj0EEEEvRT_PKc17TransferMetaFlags
Iaa:__ZNK10GameObject20QueryComponentByTypeEPKN5Unity4TypeE
d9g:_Decimal_System_IConvertible_ToInt32_m1488426794_AdjustorThunk
wLe:_MonoCustomAttrs_IsUserCattrProvider_m2878058089
FDe:__ZL71InputField_t3762917431_CustomAttributesCacheGenerator_m_HideMobileInputP21CustomAttributesCache
lQa:__ZN11TextureData5ResetEv
Nnc:__Z53Register_UnityEngine_GameObject_get_activeInHierarchyv
oeg:_ToBase64Transform_InternalTransformFinalBlock_m360524956
yAg:_ActivationContext_Dispose_m2038725770
O5:__ZL30InitializeCoreScriptingClassesv
aGa:__ZN15SerializeTraitsI12fixed_bitsetILi28EjEE8TransferI18StreamedBinaryReadILb0EEEEvRS1_RT_
Dg:_glBlitFramebuffer
bsb:__Z35Transfer_Blittable_SingleValueFieldI14SafeBinaryReadhEvRT_R17GeneralMonoObjectRK23StaticTransferFieldInfo
bPh:_TimeSpan_Duration_m2963553230
Dkc:__ZN12CachedWriter15CompleteWritingEv
tQa:__ZNK12CubemapArray22GetTypeVirtualInternalEv
Kn:FUNCTION_TABLE_vif
Ln:FUNCTION_TABLE_vid
Nn:FUNCTION_TABLE_vii
T8a:__Z40scripting_liveness_calculation_from_root18ScriptingObjectPtrPv
NKa:__ZN7Texture23VirtualRedirectTransferER24GenerateTypeTreeTransfer
rZc:_UNITY_FT_Set_Transform
d6j:__ZN6il2cpp8metadata15GenericMetadata20RegisterGenericClassEP18Il2CppGenericClass
yxk:_glDeleteFramebuffers__wrapper
mii:__Z220RuntimeInvoker_Boolean_t97287965_RuntimeObject_Int32U26_t1369213839_Int32_t2950945753_Int32_t2950945753_Int32_t2950945753_RuntimeObject_SByte_t1669577662_Int32_t2950945753_ContractionU26_t961830454_ContextU26_t3937453398PFvvEPK10MethodInfoPvPS4_
tqh:_BitConverterLE_GetUIntBytes_m949779219
q0c:_cff_blend_build_vector
Iqg:_WebHeaderCollection_ToString_m1263025316
erc:__Z26Input_CUSTOM_GetButtonDownP12Il2CppString
DNd:_GetterAdapter_Invoke_m3767885970
_Qi:_List_1__ctor_m747758800_gshared
Vkg:_String_CreateString_m2818852475
hyj:_CanvasRenderer_get_hasMoved_m2236392341
UDf:_MessageEvent__ctor_m1231650089
Tab:__ZNK15Lz4Decompressor16DecompressMemoryEPKvPjPvS2_
nza:__Z11IsCoroutine18ScriptingMethodPtrRK22CommonScriptingClasses
okc:__ZN4core8hash_mapINS_12basic_stringIcNS_20StringStorageDefaultIcEEEE10vector_setI4PPtrI11SpriteAtlasENSt3__24lessIS8_EE13stl_allocatorIS8_L18MemLabelIdentifier81ELi16EEENS_4hashIS4_EENS9_8equal_toIS4_EEEixERKS4_
yNa:__Z35UnityPropertySheet_MakeSortedColorsRKNSt3__23mapIN9ShaderLab16FastPropertyNameE10ColorRGBAfNS_4lessIS2_EENS_9allocatorINS_4pairIKS2_S3_EEEEEER10vector_mapIS2_S3_S5_NS6_INS7_IS2_S3_EEEEE
An:FUNCTION_TABLE_iiiiiiffiiiiiiiiiffffiii
x4c:_UNITY_tt_face_load_os2
Ilh:_Array_InternalArray__ICollection_CopyTo_TisUICharInfo_t75501106_m4268526610_gshared
wrb:__Z29Transfer_Blittable_ArrayFieldI14SafeBinaryRead8Vector4fEvRT_R9ArrayInfoRK23StaticTransferFieldInfo
T8j:__GLOBAL__sub_I_BoehmGC_cpp
RG:__ZNK26AnimatorOverrideController22GetTypeVirtualInternalEv
iRe:_Default_check_arguments_m3882727959
YLh:_UTF8Encoding_GetMaxCharCount_m3762459613
pSe:_ModuleBuilder_RegisterToken_m4166846047
SVb:__ZZ23InitPlayerLoopCallbacksvEN51PostLateUpdateUpdateCustomRenderTexturesRegistrator7ForwardEv
xVf:_RawImage_OnPopulateMesh_m1115858855
iKj:__ZN6il2cpp2vm13MetadataCache25GetStringLiteralFromIndexEi
ZAg:_Hashtable_ToPrime_m33531354
ox:__ZN7mecanim9animation12EvaluateClipEPKNS0_4ClipEPKNS0_9ClipInputEPNS0_10ClipMemoryEPNS0_10ClipOutputE
NVh:_Collection_1_IsSynchronized_m1117613618_gshared
uV:__ZN11AudioModule6UpdateEv
Tcf:_KeyCollection_System_Collections_Generic_ICollectionU3CTKeyU3E_Remove_m2555909644_gshared
Svj:_Keyboard_WarnIfTerminalNotConneced_m1063217717
iRh:_TypeInitializationException__ctor_m3546444694
Wpc:__ZNK9Transform16GetLocalRotationEv
h_:__ZN11UnityEngine15CloudWebService23WebRequestUploadHandler17ConsumeUploadDataEj
Fwi:__Z68RuntimeInvoker_Void_t1185182177_Single_t1397266774_SByte_t1669577662PFvvEPK10MethodInfoPvPS4_
MYg:_MemoryStream_set_Position_m3169779190
l7b:__ZN13RenderManager29SetCurrentCameraAndStackStateEP6CameraP25CameraStackRenderingState
Fvd:_ExecuteEvents_get_scrollHandler_m2659345019
Jva:__ZNSt3__26__treeINS_12__value_typeIjN4core12basic_stringIcNS2_20StringStorageDefaultIcEEEEEENS_19__map_value_compareIjS7_NS_4lessIjEELb1EEE13stl_allocatorIS7_L18MemLabelIdentifier7ELi16EEE7destroyEPNS_11__tree_nodeIS7_PvEE
X_j:__ZN15dense_hashtableINSt3__24pairIK10KeyWrapperINS1_IP11Il2CppClassjEEES4_EES6_N6il2cpp8metadata14ArrayClassHashEN14dense_hash_mapIS6_S4_SB_NS6_14EqualsComparerINSA_17ArrayClassCompareEEENS0_9allocatorIS8_EEE9SelectKeyESF_SH_E12resize_deltaEjj
Sh:_JS_WebRequest_Release
coe:__ZL85Time_t2420636075_CustomAttributesCacheGenerator_Time_t2420636075____time_PropertyInfoP21CustomAttributesCache
RY:__ZN11UnityEngine15CloudWebService14DataErrorEventD0Ev
h2j:__ZN6il2cpp6icalls8mscorlib6System4Type20internal_from_handleEi
WSd:_Context__ctor_m254302079
Ppa:__ZN9Scripting11UnityEngine12Experimental9Playables20TextureMixerPlayable9InitProxyEv
nTa:__ZN19ShaderPropertySheet16SetArrayPropertyEN9ShaderLab16FastPropertyNameENS_12PropertyTypeEPKvj
rXf:_Selectable_FindSelectable_m2348614027
amg:_DecoderReplacementFallbackBuffer_GetNextChar_m2858228391
iEd:_DropdownItem_OnPointerEnter_m1492957598
Ubd:__ZN2UI11CanvasGroup23VirtualRedirectTransferER19StreamedBinaryWriteILb0EE
Tqa:__ZN9Scripting11UnityEngine9BoundsInt9InitProxyEv
gld:__ZN11UnityEngine15PlatformWrapper16GetApplicationIdEv
O6c:_UNITY_TT_Get_VMetrics
pug:_X509Chain__cctor_m993507223
XIg:_SimpleEnumerator__cctor_m2844299657
DKe:_LocalDataStoreSlot__ctor_m4104083971
t1h:_ReadOnlyCollection_1_System_Collections_Generic_IListU3CTU3E_RemoveAt_m3849058645_gshared
voj:_AudioSource_ReadExtensionName_m725112169
n9i:_X509CertificateEnumerator_System_Collections_IEnumerator_Reset_m2039524926
_oi:__Z128RuntimeInvoker_Void_t1185182177_RuntimeObject_BooleanU26_t4125257963_SByte_t1669577662_Int32U26_t1369213839_Int32U26_t1369213839PFvvEPK10MethodInfoPvPS4_
kLa:__ZN7Texture21GetMasterTextureLimitEv
S1a:__ZN13dynamic_arrayI9InputAxisLj0EE18resize_initializedEj12ResizePolicy
d9b:__Z12CanAddScriptR10GameObject17ScriptingClassPtrPS1_S2_
rVj:__ZN6il2cpp2vm10Reflection12HasAttributeEP12Il2CppObjectP11Il2CppClass
z4h:_Comparison_1_BeginInvoke_m3263247262_gshared
I4:__ZN9ShaderLabL25StaticInitializeShaderLabEPv
U:Math_max
oGe:__ZL64HorizontalLayoutGroup_t2586782146_CustomAttributesCacheGeneratorP21CustomAttributesCache
jXj:_il2cpp_class_get_methods
BTc:__GLOBAL__sub_I_artifacts_WebGL_codegenerator_0_cpp_3495
hub:__Z18Transfer_BlittableI24GenerateTypeTreeTransferLb0EN4math12int2_storageEEvRK29SerializationCommandArgumentsR31RuntimeSerializationCommandInfo
Pah:_StackTrace_get_trace_m1194606084
cig:_Single_CompareTo_m2785801815_AdjustorThunk
qak:__ZN6il2cpp2os6Thread16GetCurrentThreadEv
ymd:__ZN11UnityEngine7Connect20RemoteConfigSettings10UnregisterEv
CGi:_Array_InternalArray__Insert_TisUILineInfo_t4195266810_m3191124053_gshared
dlc:__ZN10GameObject13ComponentPair15SetComponentPtrEPN5Unity9ComponentE
Rvk:_glBlitFramebuffer__wrapper
Pva:__ZN10TagManager8TransferI19StreamedBinaryWriteILb0EEEEvRT_
n8a:__ZN11PreloadData23VirtualRedirectTransferER18StreamedBinaryReadILb0EE
ora:__ZN9Scripting11UnityEngine24AssemblyIsEditorAssembly12CleanupProxyEv
iGg:_Char_System_IConvertible_ToDateTime_m3564102661
MK:__ZN13RuntimeStaticINSt3__26vectorI12WebCamDeviceNS0_9allocatorIS2_EEEELb0EE13StaticDestroyEPv
KWa:__ZN6Sprite17MainThreadCleanupEv
_vk:_glBlendFuncSeparate__wrapper
FP:__ZN10AudioMixer14UpdateMuteSoloEv
RAa:__ZN12BaseRenderer25FlattenSharedMaterialDataILb0EEEbRKS_R22PerThreadPageAllocatorR10RenderNode
fxa:__ZN9Transform35SetLocalPositionWithoutNotificationERKN4math7_float3Ey
ske:__ZL101MonoBehaviour_t3962482529_CustomAttributesCacheGenerator_MonoBehaviour_StartCoroutine_Auto_m594129169P21CustomAttributesCache
Ti:_JS_Eval_ClearTimeout
Kmb:__ZN7ApiGLES16SetPatchVerticesEi
Lej:_CharacterClass_Compile_m3296067317
U9j:__ZN6il2cpp2gc16GarbageCollector16InvokeFinalizersEv
xFg:_Byte_System_IConvertible_ToInt64_m285584218_AdjustorThunk
yHf:_Rect_get_size_m477575021_AdjustorThunk
ZBj:__ZN6il2cpp2vm5Class20FromGenericParameterEPK22Il2CppGenericParameter
S$:__ZN19CloudServiceHandler11FlushEventsEv
wfa:__ZN15GlobalCallbacksC2Ev
bkh:_Array_InternalArray__ICollection_Add_TisLabelData_t360167391_m1648183135_gshared
x9e:_Comparer_1_System_Collections_IComparer_Compare_m2016223770_gshared
U_h:_ReadOnlyCollection_1_System_Collections_Generic_ICollectionU3CTU3E_Add_m1738170497_gshared
Xni:__Z74RuntimeInvoker_DateTime_t3738529785_DateTime_t3738529785_Int32_t2950945753PFvvEPK10MethodInfoPvPS4_
d$c:_UNITY_FT_New_Memory_Face
Q0i:_Collection_1_System_Collections_IList_IndexOf_m3271188411_gshared
xYg:_MonoIO_GetFileStat_m678141354
O2c:_UNITY_FT_Load_Sfnt_Table
NCd:__Z15CastclassSealedP12Il2CppObjectP11Il2CppClass
B9g:_Decimal_IsZero_m4250358244_AdjustorThunk
nKe:_UnmanagedMemoryStream_get_CanRead_m3770815400
T7b:__ZN16ReflectionProbes40UpdateRealtimeReflectionProbesTimeslicedEv
_Wa:__ZN14SafeBinaryRead21TransferSTLStyleArrayI13dynamic_arrayI8Vector2fLj0EEEEvRT_17TransferMetaFlags
O0g:_Decimal_u64_m3374804932
BRh:_UInt16_System_IConvertible_ToInt32_m1950778303_AdjustorThunk
S3a:__ZNK30RuntimeInitializeOnLoadManager22GetTypeVirtualInternalEv
eHj:__ZN15dense_hashtableINSt3__24pairIK10KeyWrapperIN6il2cpp5utils13dynamic_arrayIPK10Il2CppTypeLj4EEEEPFvvEEESA_NS3_8metadata19Il2CppSignatureHashEN14dense_hash_mapISA_SD_SG_NSA_14EqualsComparerINSF_22Il2CppSignatureCompareEEENS0_9allocatorISE_EEE9SelectKeyESK_SM_E12resize_deltaEjj
wwc:__ZN16ReflectionProbes15InitializeClassEv
$Y:__ZN13dynamic_arrayIN11UnityEngine15CloudWebService14DataErrorEvent15FileErrorDetailELj0EE18resize_initializedEj12ResizePolicy
a$h:_ReadOnlyCollection_1_System_Collections_ICollection_CopyTo_m2527663815_gshared
K3j:__ZN6il2cpp2vm5Image9GetCorlibEv
uNf:_Vector3_get_left_m2428419009
T7j:__ZN6il2cpp2vm11MethodStack17GetStackFramesRawEv
Ogk:_GC_reclaim_uninit
svd:_ExecuteEvents_Execute_m113814934
Sba:__ZN13RuntimeStaticINSt3__23mapIN4core12basic_stringIcNS2_20StringStorageDefaultIcEEEES6_NS0_4lessIS6_EE13stl_allocatorINS0_4pairIKS6_S6_EEL18MemLabelIdentifier13ELi16EEEELb0EE13StaticDestroyEPv
Fwf:_Coroutine_ReleaseCoroutine_m947702340
D9e:_Enumerator_System_Collections_IEnumerator_get_Current_m2979767597_AdjustorThunk
Y9h:__ZN30GenericInterfaceActionInvoker1I17Color_t2555686324E6InvokeEPK10MethodInfoP12Il2CppObjectS0_
Tsf:_MD5CryptoServiceProvider_ProcessFinalBlock_m2241588515
BYf:_ScrollRect_GetBounds_m449872505
Rj:_glIsVertexArray
Lzg:_SmallXmlParser_Read_m3485223434
oSg:_Int16_Parse_m2276856944
Hbd:__ZL42__ManagedRegistrationHelperFunction_CanvasPv
ea:invoke_fff
Sok:_mbsinit
Juk:b14
aEc:__Z34RenderTexture_Get_Custom_PropWidthP12Il2CppObject
ycd:__ZN2UI6Canvas17MainThreadCleanupEv
gja:__ZN6prcoreL12RemapGenericI17TexFormatARGB155517TexFormatRGBA8888EEvPKNS_9InnerInfoE
SDj:__ZN13Il2CppHashMapIPK19Il2CppGenericMethodPK26Il2CppGenericMethodIndicesN6il2cpp8metadata23Il2CppGenericMethodHashENS7_26Il2CppGenericMethodCompareENSt3__29allocatorINSA_4pairIK10KeyWrapperIS2_ES5_EEEEEC2EjRKS8_RKS9_
xJd:_TypeBuilder_HasElementTypeImpl_m1871001960
hhg:_SecurityFrame__ctor_m2140076703_AdjustorThunk
LIi:_Array_Resize_TisVector2_t2156229523_m3382835435_gshared
Oxh:_DefaultComparer_Equals_m2458578172_gshared
cnb:__ZN7ApiGLES13CreateProgramEv
aIa:__ZN11HaloManager7AddHaloEv
caf:_Enumerator_VerifyState_m4003066746_gshared
ORa:__ZN4crnd12crn_unpackerD2Ev
aL:__ZN9Scripting11UnityEngine12Experimental5Audio19AudioSampleProvider9InitProxyEv
fk:_emscripten_glTexImage2D
r8e:_Comparer_1_System_Collections_IComparer_Compare_m2537217645_gshared
QCa:__ZN16MeshVertexFormat20GetVertexDeclarationER9GfxDevice16VertexInputMasksPKS_
D5:__ZN18ScriptingArguments9AddStringEPKc
ghk:_setup_header
aHg:_Char_ToString_m3588025615
Sqh:_CryptoConvert_ToCapiKeyBlob_m3371450375
fPa:__ZL23stbir__resize_arbitraryPvPKviiiS_iiiffffPfiij14stbir_datatype12stbir_filterS4_10stbir_edgeS5_16stbir_colorspace
Bub:__Z18Transfer_BlittableI24GenerateTypeTreeTransferLb1E8Vector4fEvRK29SerializationCommandArgumentsR31RuntimeSerializationCommandInfo
Nuk:b18
qk:_pthread_detach
kLj:__ZN6il2cpp2vm19SocketPollingThread7RunLoopEv
QEd:_FontUpdateTracker_UntrackText_m1981515690
HHe:__ZL64AnalyticsEventTracker_t2285229262_CustomAttributesCacheGeneratorP21CustomAttributesCache
QHc:__ZN13ProduceHelperI18CrashReportManagerLb0EE7ProduceE10MemLabelId18ObjectCreationMode
Jzc:__ZN15DirectorManager20ScheduleGraphDestroyERK14HPlayableGraph
EDb:__ZNSt3__213__stable_sortIRN10vector_mapI17ScriptingClassPtrPKN5Unity4TypeENS_4lessIS2_EENS_9allocatorINS_4pairIS2_S6_EEEEE13value_compareENS_11__wrap_iterIPSB_EEEEvT0_SJ_T_NS_15iterator_traitsISJ_E15difference_typeEPNSM_10value_typeEi
znh:_SimpleCollator_FillSurrogateSortKeyRaw_m725998232
kTi:_List_1_AddEnumerable_m1284696147_gshared
Vpg:_IPAddress_Equals_m1823478787
ITd:_Context_CreateNewContext_m3053563976
zhc:__ZN9ShaderLab25SerializedTextureProperty8TransferI24GenerateTypeTreeTransferEEvRT_
jTj:__ZN6il2cpp2gc19AppendOnlyGCHashMapINSt3__24pairIPK14Il2CppAssemblyP11Il2CppClassEEP24Il2CppReflectionAssembly17ReflectionMapHashIS9_ENS2_8equal_toIS9_EEEC2Ev
nxb:__Z18Transfer_BlittableI19StreamedBinaryWriteILb0EELb0EdEvRK29SerializationCommandArgumentsR31RuntimeSerializationCommandInfo
v0:__GLOBAL__sub_I_Runtime_Camera_RenderLoops_2_cpp
lua:__ZN11NamedObject8TransferI18StreamedBinaryReadILb0EEEEvRT_
jyf:_InvokableCall_remove_Delegate_m1376110510
xLg:_Hashtable_Clear_m3112193608
GLh:_UTF8Encoding_InternalGetByteCount_m771565606
mRc:__Z18Transfer_BlittableI8JSONReadLb1EyEvRK29SerializationCommandArgumentsR31RuntimeSerializationCommandInfo
tOi:_List_1_System_Collections_IList_Remove_m3654336679_gshared
Xre:__ZL51GUILayer_t2783472903_CustomAttributesCacheGeneratorP21CustomAttributesCache
SCa:__ZN9GfxDevice20GetVertexDeclarationERK18VertexChannelsInfoNS_30VertexDeclarationMRUCacheIndexE
Nk:_emscripten_glMatrixMode
KUf:_MaskableGraphic_UnityEngine_UI_IClippable_get_gameObject_m1739855597
Yu:__ZN8Animator23VirtualRedirectTransferER18StreamedBinaryReadILb0EE
bRg:_Guid__ctor_m3562600567_AdjustorThunk
u6g:_DateTime_System_IConvertible_ToInt16_m3239820399
jY:__ZN11UnityEngine15CloudWebService14DataDispatcher16PrepareDataBlockERNS0_16SessionContainerE
UTb:__ZN18GfxFramebufferGLES5ClearE13GfxClearFlagsRK10ColorRGBAffib
Djh:_MonoProperty_StaticGetterAdapterFrame_TisRuntimeObject_m4131530968_gshared
dCb:__ZL26Transfer_SimpleNativeClassI18StreamedBinaryReadILb0EE10RectOffsetLb0EEvRK29SerializationCommandArgumentsR31RuntimeSerializationCommandInfo
A1e:_InternalEnumerator_1_get_Current_m2316281569_gshared
b_b:__ZL12DepthPassJobPN21GfxDeviceAsyncCommand10ArgScratchEPKNS_3ArgE
Sfc:__ZNSt3__26vectorIN9ShaderLab20SerializedSubProgram16TextureParameterENS_9allocatorIS3_EEE6assignINS_11__wrap_iterIPS3_EEEENS_9enable_ifIXaasr21__is_forward_iteratorIT_EE5valuesr16is_constructibleIS3_NS_15iterator_traitsISC_E9referenceEEE5valueEvE4typeESC_SC_
iDf:_MonoBehaviour_IsInvoking_m3285132449
DMc:__ZN5Unity9rapidjson6WriterI16TempBufferWriterNS0_4UTF8IcEES4_13JSONAllocatorE11WriteDoubleEd
oNh:_Thread_SetCachedCurrentUICulture_m1729523031
olb:__ZN14GfxDeviceStats16CopyAllDrawStatsERKS_
D6f:_ClientContext_set_ClientHelloProtocol_m4189379912
Om:FUNCTION_TABLE_iiiiiiiiiiii
PSi:_List_1_get_Item_m1686506901_gshared
XEa:__ZN16GraphicsSettingsD0Ev
v2:__Z12FormatBufferPciPKcz
omd:__ZNSt3__26__treeINS_12__value_typeIN4core12basic_stringIcNS2_20StringStorageDefaultIcEEEE14CallbackArray3IRKS6_R8JSONReadbEEENS_19__map_value_compareIS6_SD_NS_4lessIS6_EELb1EEE13stl_allocatorISD_L18MemLabelIdentifier6ELi16EEE7destroyEPNS_11__tree_nodeISD_PvEE
n:cttz_i8
e0c:_UNITY_FT_GlyphLoader_Add
zpd:__ZN9Scripting11UnityEngine10Networking29UnityWebRequestAsyncOperation9InitProxyEv
Roj:_AudioListener_INTERNAL_CALL_ReadExtensionPropertyName_m330480156
W4g:_Convert_ToUInt16_m867476252
Kl:_emscripten_glViewport
Kdk:__ZN6il2cpp6icalls8mscorlib6System15MonoCustomAttrs17IsDefinedInternalEP12Il2CppObjectP20Il2CppReflectionType
vzj:_SkeletonBone_t4134054672_marshal_pinvoke_back
Pqa:__ZN9Scripting11UnityEngine10CacheIndex9InitProxyEv
B1c:_cff_parse_font_bbox
Imh:_MSCompatUnicodeTable_Category_m1834196420
g2a:__ZN14PlayerSettings23VirtualRedirectTransferER18StreamedBinaryReadILb0EE
Jhi:__Z85RuntimeInvoker_Void_t1185182177_Int32_t2950945753_Int32_t2950945753_Int32_t2950945753PFvvEPK10MethodInfoPvPS4_
Dbh:_Double_CompareTo_m3151899116
qmk:__ZN6il2cpp2os5Event5ResetEv
Q4c:_tt_name_ascii_from_other
qnj:_ToggleGroup__ctor_m3308114662
N5j:__ZN6il2cpp8metadata15GenericMetadata17InflateParametersEPK13ParameterInfohPK20Il2CppGenericContextb
dcg:_RSAParameters_t1728406613_marshal_pinvoke_back
zJi:_Array_Sort_TisUILineInfo_t4195266810_m3737783007_gshared
iFf:_PlayableAsset_Internal_CreatePlayable_m2550417712
qJf:_RenderTexture_get_width_m2160921386
ly:__ZNK17AnimationPlayable27GetNextCompatibleDescendantEj
e$c:__ZN13dynamic_arrayIN4core17string_with_labelILi35EEELj0EE6insertEPS2_jRKS2_
oxe:__ZL64GUIUtility_t1868551600_CustomAttributesCacheGenerator_s_SkinModeP21CustomAttributesCache
V6i:_TlsStream_Write_m188217214
M3c:_otv_LigatureSubst_validate
mHb:__Z25SetNeedToPerformRenderingb
Thd:__ZN8JSONRead12TransferPairINSt3__24pairIN4core12basic_stringIcNS3_20StringStorageDefaultIcEEEEN11UnityEngine9Analytics16LimitEventConfigEEEEEvRT_17TransferMetaFlagsPKN5Unity9rapidjson12GenericValueINSG_4UTF8IcEE13JSONAllocatorEE
pwa:__ZN10GameObjectD2Ev
p_b:__ZN14qsort_internal30FindAndMovePivotToLastPositionIP15RODataDepthPassi17ROSorterDepthPassEEvT_S4_T0_T1_
R6b:__ZN12CullingGroup10SendEventsEPK17CullingGroupEventj
Uwd:_PointerInputModule__ctor_m3728889932
PUa:__ZThn32_NK8Renderer8GetLayerEv
pFh:_Enumerator_System_Collections_IEnumerator_Reset_m2915500989_gshared
G1c:_cff_parse_vsindex
zSg:_Int32_ValidDigit_m1059003769
iAk:_emscripten_glTexParameterfv__wrapper
EIf:_RectTransform_INTERNAL_get_sizeDelta_m2173368204
ySf:_LayoutGroup_get_rectTransform_m442863741
Job:__Z18Transfer_BlittableI14SafeBinaryReadLb1E9BoundsIntEvRK29SerializationCommandArgumentsR31RuntimeSerializationCommandInfo
gtc:__ZN2UI13RectTransform17GetLocalPositionZEv
qxk:b63
aYj:_il2cpp_method_get_param_count
uba:__ZNK5Unity4Type21FindAllDerivedClassesER13dynamic_arrayIPKS0_Lj0EENS0_17TypeFilterOptionsE
Apc:__ZN10systeminfo19ISOToSystemLanguageERN4core12basic_stringIcNS0_20StringStorageDefaultIcEEEE
cSj:__ZNK15dense_hashtableINSt3__24pairIK10KeyWrapperINS1_IPK12PropertyInfoP11Il2CppClassEEEjEES9_17ReflectionMapHashIS8_EN14dense_hash_mapIS9_jSD_NS9_14EqualsComparerINS0_8equal_toIS8_EEEENS0_9allocatorISB_EEE9SelectKeyESI_SK_E3endEv
eUh:_UnauthorizedAccessException__ctor_m40101894
Lod:__ZN22BaseUnityConnectClient14AppRunningTickEj
M8c:_ps_dimension_done
oad:__Z46Register_UnityEngine_TextGenerator_Dispose_cppv
Hbh:_Double_Parse_m4153729520
$bi:_IndexedSet_1_AddUnique_m861843892_gshared
OVa:__ZN16LightmapSettings8TransferI14SafeBinaryReadEEvRT_
gOb:__ZN17BufferManagerGLES13ReleaseBufferEP14DataBufferGLES
C5f:_CipherSuite_Write_m1172814058
xJe:_SynchronizedWriter_Write_m301917713
j3:__ZN9profiling6MarkerC2EPKc13ProfilerGroupNS0_5FlagsE
jRc:__Z18Transfer_BlittableI8JSONReadLb1EjEvRK29SerializationCommandArgumentsR31RuntimeSerializationCommandInfo
tSe:_ConstructorBuilder_get_IsCompilerContext_m3364441562
jxf:_Debug_LogWarning_m3752629331
osc:__Z13RegisterClassIN2UI13RectTransformEEvPKc
vqa:__ZN9Scripting11UnityEngine7Texture9InitProxyEv
H3h:_ReadOnlyCollection_1_System_Collections_Generic_IListU3CTU3E_RemoveAt_m4037795630_gshared
gmi:__Z117RuntimeInvoker_Void_t1185182177_RuntimeObject_Int32_t2950945753_Int32_t2950945753_Int32_t2950945753_Int32_t2950945753PFvvEPK10MethodInfoPvPS4_
_Ya:__ZNK13ScreenManager17GetFullscreenModeEv
fR:__Z30GetAudioSpatializerDefinitionsR13dynamic_arrayIP29AudioEffectInternalDefinitionLj0EE31UnityAudioEffectDefinitionFlags
Fzd:_U3COnFinishSubmitU3Ec__Iterator0_Reset_m3632769946
Zo:stackSave
J_:__ZN5Unity9rapidjson15GenericDocumentINS0_4UTF8IcEE13JSONAllocatorNS0_12CrtAllocatorEE6StringEPKcjb
IBd:_ColorTween_get_targetColor_m1724075482_AdjustorThunk
f9c:_ps_dimension_end
KFc:__Z41Register_UnityEngine_Mesh_Internal_Createv
L5j:__ZNK15dense_hashtableI10KeyWrapperIP18Il2CppGenericClassES3_N6il2cpp8metadata22Il2CppGenericClassHashEN14dense_hash_setIS3_S6_NS3_14EqualsComparerINS5_25Il2CppGenericClassCompareEEENSt3__29allocatorIS3_EEE8IdentityESA_SD_E12test_deletedERK30dense_hashtable_const_iteratorIS3_S3_S6_SF_SA_SD_E
h0g:_Console_Open_m3077673205
u9i:_X509StoreManager_get_CurrentUser_m4040993045
y8b:__ZN6Camera9SetAspectEf
Cih:_Array_InternalArray__IndexOf_TisDateTime_t3738529785_m2463359116_gshared
va:invoke_viiffiii
$uj:_Display_Start_m3623905221
zBk:_emscripten_glBindVertexArray__wrapper
m8j:__ZN6il2cpp6icalls8mscorlib6System4Enum19get_underlying_typeEP20Il2CppReflectionType
tfj:_Parser_IsECMAScript_m674158805
mxa:__ZN9Transform37InitializeTransformHierarchyRecursiveER18TransformHierarchyRii
nnb:__ZN26SinglePassStereoSupportExt23SetupStereoMatrixParamsE21MonoOrStereoscopicEye24BuiltinShaderMatrixParamRK10Matrix4x4f
mpd:__GLOBAL__sub_I_artifacts_WebGL_codegenerator_0_cpp_7004
Xjb:__ZN9GfxDevice23CreateAsyncReadbackDataEv
Npd:__ZNK25UnityWebRequestJavaScript16GetUploadedBytesEv
cU:__Z46AudioListener_CUSTOM_GetNumExtensionPropertiesP12Il2CppObject
vMj:__ZN6il2cpp6icalls8mscorlib6SystemL16CheckMemberMatchI9FieldInfoNS_5utils10functional6FilterINSt3__212basic_stringIcNS8_11char_traitsIcEENS8_9allocatorIcEEEENS5_13VmStringUtils23CaseInsensitiveComparerEEEEEbPKT_PK11Il2CppClassSN_iRKT0_
Pih:_Array_InternalArray__IndexOf_TisMonoResource_t4103430009_m1351751258_gshared
dw:__ZN17AnimationPlayable34CollectAnimatorControllerPlayablesER13dynamic_arrayIP26AnimatorControllerPlayableLj0EE
sMg:_FieldAccessException__ctor_m3583219052
_8g:_Decimal_System_IConvertible_ToDouble_m3125524987
vqc:__Z57Register_UnityEngine_Transform_INTERNAL_set_localPositionv
XMb:__ZN13GfxDeviceGLES26SetRandomWriteTargetBufferEi15ComputeBufferID
fhk:_GC_split_block
FIi:_Array_Resize_TisUICharInfo_t75501106_m3903846016_gshared
GVb:__ZZ23InitPlayerLoopCallbacksvEN49EarlyUpdateResetFrameStatsAfterPresentRegistrator7ForwardEv
npk:_poll
n0h:_ReadOnlyCollection_1_System_Collections_IEnumerable_GetEnumerator_m1671097018_gshared
RTh:_UInt64_ToString_m1529093114_AdjustorThunk
VQd:_TypeLibImportClassAttribute__ctor_m2302178978
hoh:_Escape_t3294788190_marshal_pinvoke
UQf:_InputField_OnUpdateSelected_m1118869681
O3j:__ZN6il2cpp2vmL36AddNestedTypesToNametoClassHashTableEP40Il2CppNameToTypeDefinitionIndexHashTablePKcRKNSt3__212basic_stringIcNS5_11char_traitsIcEENS5_9allocatorIcEEEEP11Il2CppClass
XRa:__ZN4crnd12crn_unpacker11unpack_dxt1EPPhjjj
tUj:__ZN15dense_hashtableINSt3__24pairIK10KeyWrapperIPK10Il2CppTypeEjEES6_N6il2cpp8metadata14Il2CppTypeHashEN14dense_hash_mapIS6_jSB_NS6_14EqualsComparerINSA_26Il2CppTypeEqualityComparerEEENS0_9allocatorIS8_EEE9SelectKeyESF_SH_E14squash_deletedEv
HJ:__ZL55__ManagedRegistrationHelperFunction_CoordinateFramePairPv
ekc:__ZNK11ICallString6ToUTF8Ev
dCj:__ZN15dense_hashtableINSt3__24pairIK10KeyWrapperIPK22Il2CppGenericParameterEP11Il2CppClassEES6_N6il2cpp5utils11PointerHashIS4_EEN14dense_hash_mapIS6_S9_SE_NS6_14EqualsComparerINS0_8equal_toIS5_EEEENS0_9allocatorISA_EEE9SelectKeyESJ_SL_E15insert_noresizeERKSA_
Mef:_Transform_1_Invoke_m2468053724_gshared
qX:__ZL60__ManagedRegistrationHelperFunction_ClothSkinningCoefficientPv
q_b:__ZNSt3__211__sift_downIR17ROSorterDepthPassP15RODataDepthPassEEvT0_S5_T_NS_15iterator_traitsIS5_E15difference_typeES5_
MMa:__ZN18UnityPropertySheet11UnityTexEnvC2Ev
uBg:_ArgumentException__ctor_m3200406061
uD:__ZN8Animator17ApplyOnAnimatorIKEiRNS_11AnimatorJobE
gaa:__ZN12FileAccessor4ReadEyyPvPy
FUi:_List_1_set_Capacity_m2777925136_gshared
a8b:__ZN13RenderTexture9SetHeightEi
M8:__ZN17PersistentManager25PreallocateObjectThreadedEiNS_9LockFlagsE
yw:__ZN7mecanim9animation17ClearMotionOutputEPNS0_18AnimationNodeStateE
o6f:_CipherSuiteCollection_get_IsFixedSize_m3127823890
T6e:_InternalEnumerator_1_System_Collections_IEnumerator_get_Current_m3537550566_gshared
IWf:_Scrollbar_UpdateVisuals_m2492252165
k8i:_PKCS12_get_Keys_m2165478388
n0j:__ZN6il2cpp6icalls8mscorlib6System2IO6MonoIO17GetFileAttributesEP12Il2CppStringPi
isf:_HMACMD5__ctor_m3008609295
H7g:_DateTime_ToString_m2992030064_AdjustorThunk
I5c:_tt_cmap8_char_index
a6:__Z24scripting_class_get_name17ScriptingClassPtr
erg:_Oid__ctor_m911618594
Pnj:_VerticalLayoutGroup_CalculateLayoutInputHorizontal_m1404590745
oca:__ZN13RuntimeStaticI15GUIEventManagerLb0EE13StaticDestroyEPv
jMe:_ShortComparer_Compare_m1881262465
zqb:__Z29Transfer_Blittable_ArrayFieldI14SafeBinaryReadjEvRT_R9ArrayInfoRK23StaticTransferFieldInfo
de:_emscripten_set_keydown_callback
rmg:_EncoderReplacementFallback__ctor_m1483565116
Hwg:_Interpreter_IsWordChar_m2858055765
vLg:_Hashtable_CopyTo_m2905447224
qqa:__ZN9Scripting11UnityEngine29CustomRenderTextureUpdateZone12CleanupProxyEv
oaa:__ZN12FileAccessorC2Ev
$Ua:__ZNK8Renderer29FlattenPerMaterialCustomPropsER22PerThreadPageAllocatorR10RenderNode
GA:__ZThn152_NK26AnimatorControllerPlayable25GetStateMachineBehavioursEv
Rbi:_EventFunction_1_Invoke_m2429482587_gshared
IKj:_CertificateHandler_Dispose_m2100863831
rXd:__ZL51Attribute_t861562559_CustomAttributesCacheGeneratorP21CustomAttributesCache
KNj:__ZN6il2cpp2vm7Runtime12GetConfigDirEv
PEh:_Enumerator_MoveNext_m1177880931_AdjustorThunk
NJf:_SendMouseEvents_SetMouseMoved_m2822596724
Qwj:_TextGenerator_Populate_m194003733
qTe:_DerivedType_get_FullName_m1025358827
oqf:_CryptoConfig_MapNameToOID_m2044758263
mma:__ZL50__ManagedRegistrationHelperFunction_SetupCoroutinePv
zr:__ZN13ConstraintJob23ConstraintComponentDataC2ERKS0_
JDe:__ZL70InputField_t3762917431_CustomAttributesCacheGenerator_m_OnValueChangedP21CustomAttributesCache
PFb:__Z39WriteQueueForTransferSignatureIntoCacheRK31TransferFunctionScriptingTraitsRK24TransferRequestSignature17ScriptingClassPtrR23CachedSerializationDataRb
U6a:__ZN13RenderManager18UpdateAllRenderersEv
Ymg:_Encoding_get_UTF8UnmarkedUnsafe_m320312322
xNh:_Thread_Thread_free_internal_m333849022
YNc:__Z35Transfer_Blittable_FixedBufferFieldI9JSONWritexEvRK29SerializationCommandArgumentsR31RuntimeSerializationCommandInfo
Haj:_CostDelegate_BeginInvoke_m2828452701
Vjd:__ZN22BaseUnityConnectClient30OnEnteringStatePausedOrStoppedEv
J2i:_Collection_1_ConvertItem_m1556170494_gshared
Mw:__ZN7mecanim5human12HumanPoseAddERNS0_9HumanPoseERKS1_S4_
Q1g:_DateTime_ToUniversalTime_m1945318289
WHg:_ArrayList_ToArray_m3827492363
A_f:_Slider_get_stepSize_m1423227661
MTh:_UInt64_Parse_m819899889
Udg:_SymmetricAlgorithm_set_IV_m3196220308
lVe:_GenericTypeParameterBuilder_GetHashCode_m852224381
m5g:_Convert_ToUInt32_m1453583008
yNg:_CompareInfo_Compare_m894311506
Vwa:__Z24MergeTransformComponentsR9TransformS0_b
xGj:__ZNK15dense_hashtableI10KeyWrapperIPK19Il2CppGenericMethodES4_N6il2cpp8metadata23Il2CppGenericMethodHashEN14dense_hash_setIS4_S7_NS4_14EqualsComparerINS6_26Il2CppGenericMethodCompareEEENSt3__29allocatorIS4_EEE8IdentityESB_SE_E10test_emptyEj
Dtd:_EventSystem_UpdateModules_m3643806022
Wyj:_AnimationOffsetPlayable__cctor_m1029460816
sdk:__ZN6il2cpp2vm13ComObjectBase19GetRuntimeClassNameEPP15Il2CppHString__
SDa:__Z37GetBarycentricCoordinatesForOuterCellPPK8Vector3fRK13dynamic_arrayIS_Lj0EERS0_RK11TetrahedronR8Vector4f
Pj:_emscripten_glVertexAttribPointer
CIb:__ZN14PreloadManager26UpdatePreloadingSingleStepENS_21UpdatePreloadingFlagsEi
oZf:_ScrollRect_SetLayoutHorizontal_m3078869633
g0g:_Console_OpenStandardInput_m3262421490
Ymh:_SimpleCollator__ctor_m1587210019
cmc:__Z57Register_UnityEngine_RectTransform_INTERNAL_set_anchorMinv
d5g:_Convert_ToUInt16_m1480956416
Cja:__ZN6prcoreL25inner_stretch_i8_bilinearEPKNS_9InnerInfoE
A8a:__ZL30RegisterFilteredObjectCallbackPP12Il2CppObjectiPv
d3h:_ReadOnlyCollection_1_System_Collections_Generic_IListU3CTU3E_RemoveAt_m3317217538_gshared
uve:__ZL54AudioSource_t3935305588_CustomAttributesCacheGeneratorP21CustomAttributesCache
YIb:__Z19InitializeGfxDevicev
GY:__ZN11UnityEngine15CloudWebService16SessionContainer24GetSessionHeaderJsonDataERKN4core12basic_stringIcNS2_20StringStorageDefaultIcEEEERNS2_13StringBuilderE
VSe:_DerivedType_GetEvent_m4157575360
Gba:__ZN13RuntimeStaticI21AssetReferenceStorageLb0EE13StaticDestroyEPv
spf:_SByte_System_IConvertible_ToType_m4075253447_AdjustorThunk
XXh:_Collection_1_ConvertItem_m618594517_gshared
Nwi:__Z72RuntimeInvoker_Bounds_t2266837910_RuntimeObject_Matrix4x4U26_t3606180965PFvvEPK10MethodInfoPvPS4_
$9j:__ZN6il2cpp6icalls8mscorlib6System9AppDomain22InternalGetProcessGuidEP12Il2CppString
st:__ZN9Scripting11UnityEngine10Animations16ConstraintSource9InitProxyEv
lEc:__Z34Quaternion_CUSTOM_Inverse_InjectedRK11QuaternionfRS_
Yub:__Z18Transfer_BlittableI24GenerateTypeTreeTransferLb1EjEvRK29SerializationCommandArgumentsR31RuntimeSerializationCommandInfo
bCj:__ZN6il2cpp2os12FastAutoLockD2Ev
FGa:__ZN11ColorRGBA328TransferI14SafeBinaryReadEEvRT_
U1c:_cff_vstore_done
Qhb:__ZN9GfxDevice33ScheduleComputeBufferJobsInternalEPFvP20ComputeBufferJobDataEPFvRK8JobFenceEPK27ComputeBufferJobInstructionj
jri:__Z68RuntimeInvoker_Void_t1185182177_UInt16_t2177724958_SByte_t1669577662PFvvEPK10MethodInfoPvPS4_
r5a:__ZN15ResourceManager10Dependency8TransferI24GenerateTypeTreeTransferEEvRT_
Hsf:_MACTripleDES_HashFinal_m3613553534
gTh:_UInt64_System_IConvertible_ToChar_m2074245892
KLh:_UTF8Encoding_InternalGetBytes_m1965760031
If:_emscripten_glClearDepth
Ytc:__ZNK8GUILayer22GetTypeVirtualInternalEv
DTa:__ZN14SafeBinaryRead21TransferSTLStyleArrayINSt3__26vectorIN15QualitySettings14QualitySettingENS1_9allocatorIS4_EEEEEEvRT_17TransferMetaFlags
Bcf:_KeyCollection__ctor_m2388548663_gshared
z3a:__ZNSt3__26vectorINS_4pairIPKN5Unity4TypeE7Hash128EENS_9allocatorIS7_EEE8__appendEj
YRc:__ZN8JSONRead21TransferSTLStyleArrayI13dynamic_arrayIaLj0EEEEvRT_17TransferMetaFlags
X1c:_cff_font_load
Gak:__GLOBAL__sub_I_LibraryLoader_cpp
rCc:__Z13IsPathCreatedRKN4core12basic_stringIcNS_20StringStorageDefaultIcEEEE
lxf:_Debug_LogWarningFormat_m2535776735
lPa:__ZL22stbir__encode_scanlineP11stbir__infoiPvPfiii
fQd:_ExternalException__ctor_m2877839282
LWc:__ZN20QuadTreeNodeRenderer13StaticDestroyEPv
CZ:__ZN11UnityEngine15CloudWebService20WebRequestRestClient5AbortEv
Fdj:_Regex_Matches_m2080913806
utc:__ZN9Transform12CleanupClassEv
KCe:__ZL57FontData_t746620069_CustomAttributesCacheGenerator_m_FontP21CustomAttributesCache
xBf:_Mathf_Sin_m3411839043
g$c:_UNITY_FT_Set_Pixel_Sizes
JPe:_OperatingSystem_Clone_m1122165140
LMi:_GameObject_AddComponent_TisRuntimeObject_m3469369570_gshared
UC:__ZN11UnityEngine9Animation33SetGenericTransformPropertyValuesERKNS0_30AnimatorGenericBindingConstantERKN7mecanim10ValueArrayEP9Transformy
KYj:__ZN6il2cpp2vmL24thread_cleanup_on_cancelEPv
NQi:_List_1_RemoveAll_m3165362277_gshared
gQh:_Type_type_is_subtype_of_m1406623598
qma:__ZL54__ManagedRegistrationHelperFunction_SpriteAtlasManagerPv
jMh:_Thread_get_CurrentThread_m4142136012
eDa:__Z30ProcessDynamicBatchGeometryJobP25DynamicVBOGeometryJobDataj
T_b:__ZNSt3__27__sort4IRNS_6__lessI11CulledLightS2_EEPS2_EEjT0_S6_S6_S6_T_
CVj:__ZN6il2cpp2vm14TypeNameParser26ParseArrayModifierOptionalEv
u7:__Z26scripting_object_get_class18ScriptingObjectPtr
q$j:__ZN6il2cpp6icalls8mscorlib6System10Reflection8Assembly13get_code_baseEP24Il2CppReflectionAssemblyb
s4a:__ZNSt3__26vectorIN4core12basic_stringIcNS1_20StringStorageDefaultIcEEEE13stl_allocatorIS5_L18MemLabelIdentifier13ELi16EEE7reserveEj
wrf:_DSASignatureDeformatter__ctor_m2889130126
Vuc:__ZNK28MonoBehaviourPropertyBinding15GenerateBindingERKN4core12basic_stringIcNS0_20StringStorageDefaultIcEEEEbRN11UnityEngine9Animation14GenericBindingE
KIf:_RectTransform_INTERNAL_set_pivot_m1160676233
EVi:_List_1_set_Item_m35836043_gshared
mug:_X509ChainElementCollection__ctor_m3424079155
uFc:__Z58Register_UnityEngine_Camera_ScreenToViewportPoint_Injectedv
Oaj:_LinkStack_Push_m3081279930
nbf:_Enumerator_MoveNext_m1107569389_gshared
xbk:__ZN6il2cpp6icalls8mscorlib6System11Environment15internalGetHomeEv
YBf:_Matrix4x4_GetHashCode_m4034747639_AdjustorThunk
iPd:_ResourceCacheItem_t51292791_marshal_pinvoke_cleanup
gsa:__ZNK5Unity9Component7GetNameEv
Z8b:__Z23FindMonoScriptFromClass17ScriptingClassPtr
bTf:_U3CDelayedSetDirtyU3Ec__Iterator0_Reset_m160466733
Llb:__ZN21ScalableBufferManager23UnregisterRenderSurfaceEP17RenderSurfaceBaseb
XTi:_List_1_System_Collections_IList_Remove_m1070694895_gshared
$hj:_LayoutCache__ctor_m3885940174
mE:__ZN7mecanim8skeleton26SkeletonPoseComputeGlobalQEPKNS0_8SkeletonEPKNS0_13SkeletonPoseTIN4math4trsXEEEPS7_ii
fTh:_UInt64_System_IConvertible_ToByte_m1501504925_AdjustorThunk
Cwj:_TextGenerator_Invalidate_m1072346986
_8f:_TlsClientHello_ProcessAsTls1_m2549285167
YEi:__Z74RuntimeInvoker_Boolean_t97287965_UIVertex_t4057497605_UIVertex_t4057497605PFvvEPK10MethodInfoPvPS4_
W0h:_ReadOnlyCollection_1_System_Collections_IList_Clear_m3591436538_gshared
OD:__ZN9BlobWrite8TransferI22OffsetPtrArrayTransferIiEEEvRT_PKc17TransferMetaFlags
gmg:_EncoderExceptionFallback_Equals_m2760188920
H6b:__ZNK15LODGroupManager17CalculateLODMasksERK13LODParametersfPhPf
tO:__ZN4FMOD6System7releaseEv
QEg:_Boolean_CompareTo_m3665076258
ajg:_String_Split_m3580120853
msh:_PrivateKeyInfo__ctor_m2811023496
L9:__Z18PathToAbsolutePathRKN4core12basic_stringIcNS_20StringStorageDefaultIcEEEE
qId:_PropertyBuilder_GetCustomAttributes_m2917594003
Xij:_GUILayoutUtility_LayoutFromEditorWindow_m2914699782
Dpa:__ZN9Scripting11UnityEngine12Experimental10PlayerLoop13PreLateUpdate9InitProxyEv
bid:__ZN21UnityAnalyticsManager15ThreadedCleanupEv
ROa:__ZL13BlitImageImplR14ImageReferenceiiRKS_NS_10ColorSpaceENS_8BlitModeEb
Fzc:__ZN15DirectorManager17AcquireOutputNodeEv
ZWa:__Z14resize_trimmedINSt3__26vectorI13dynamic_arrayI8Vector2fLj0EENS0_9allocatorIS4_EEEEEvRT_j
xHi:_Array_InternalArray__set_Item_TisColor32_t2600501292_m1891325855_gshared
OMi:_GameObject_GetComponentInChildren_TisRuntimeObject_m1310240902_gshared
ang:_Locale_GetText_m2640320736
Joe:__ZL69PersistentCall_t3407714124_CustomAttributesCacheGenerator_m_ArgumentsP21CustomAttributesCache
gHa:__ZN16ReflectionProbes28GetMinBakedCubemapResolutionEv
ddk:__GLOBAL__sub_I_String_cpp
aCj:__ZN15dense_hashtableINSt3__24pairIK10KeyWrapperIPK22Il2CppGenericParameterEP11Il2CppClassEES6_N6il2cpp5utils11PointerHashIS4_EEN14dense_hash_mapIS6_S9_SE_NS6_14EqualsComparerINS0_8equal_toIS5_EEEENS0_9allocatorISA_EEE9SelectKeyESJ_SL_E6insertERKSA_
bRf:_InputField_GenerateCaret_m1459647218
c8i:_X509CertificateEnumerator__ctor_m85694331
aOb:__ZN14DataBufferGLES16RecreateWithDataEjPKv
Esa:__Z29GetGlobalAllowNameConversionsv
Plh:_Array_InternalArray__Insert_TisTableRange_t3332867892_m558285859_gshared
P9b:__ZN8Material8SetColorEN9ShaderLab16FastPropertyNameERK10ColorRGBAf
vGh:_Enumerator_System_Collections_IEnumerator_Reset_m3754523291_gshared
Cmd:__ZN11UnityEngine7Connect20RemoteConfigSettings19ConfigUpdatedStaticEPS1_bbi
oQ:__ZN11AudioSource23VirtualRedirectTransferER18StreamedBinaryReadILb0EE
IGf:_RangeInt_get_end_m4128831787
mod:__Z25GetUnityConnectModuleSpecv
QSi:_List_1_set_Item_m2082115010_gshared
Pmg:_Encoding_GetBytes_m3735967069
rRb:__ZN14GfxContextGLES43AddRenderSurfaceToDeferredFBOInvalidateListEPK17RenderSurfaceGLES
S$j:__ZN6il2cpp6icalls8mscorlib6System9Threading6Thread15Thread_internalEP12Il2CppThreadP14Il2CppDelegate
Eua:__ZN11NamedObject23VirtualRedirectTransferER14SafeBinaryRead
u$f:_Text_get_resizeTextMinSize_m1002355407
W_c:__ZNSt3__26vectorIN20TextRenderingPrivate8FontImpl13CharacterInfoE13stl_allocatorIS3_L18MemLabelIdentifier1ELi16EEE6insertENS_11__wrap_iterIPKS3_EERS9_
A5a:__ZN23PreloadManagerOperation6IsDoneEv
ECg:_Array_CreateInstance_m1027597705
VNj:__ZN6il2cpp2vm7Runtime15InvokeWithThrowEPK10MethodInfoPvPS5_
tXf:_Selectable_get_navigation_m3508916916
Gck:__ZN6il2cpp5utils11StringUtils11Utf16ToUtf8ERKNSt3__212basic_stringIDsNS2_11char_traitsIDsEENS2_9allocatorIDsEEEE
U2f:_MD4Managed_Decode_m4273685594
G7a:__ZN21LightProbeProxyVolume18HasHardwareSupportEv
d2b:__ZN26LightProbeProxyVolumeCacheC2ER13BatchRendererR15RenderLoopStats
QUg:_IntPtr__ctor_m620280096
Bja:__ZN6prcoreL31inner_stretch_argb8888_bilinearEPKNS_9InnerInfoE
bzb:__Z18Transfer_BlittableI18StreamedBinaryReadILb1EELb1E8BitFieldEvRK29SerializationCommandArgumentsR31RuntimeSerializationCommandInfo
m6c:_UNITY_FT_Outline_Decompose
QTg:_Int64_System_IConvertible_ToChar_m1509243576_AdjustorThunk
xSb:__ZNK12GraphicsCaps24GetFallbackSampledFormatE14GraphicsFormat
o7i:_GeneralNames_get_IPAddresses_m4242915644
N2g:_Decimal_op_Implicit_m3873897383
xhk:_GC_init_size_map
Hza:__Z20scripting_object_new17ScriptingClassPtr
Cra:__ZN9Scripting5Unity11Collections39NativeMatchesParallelForLengthAttribute12CleanupProxyEv
zsh:_KeyGeneratedEventHandler_Invoke_m2527485594
K8g:_Decimal__ctor_m1925875020_AdjustorThunk
pnf:_SerializationCallbacks__ctor_m3863304525
VEa:__ZN18ShadowMapJobHeaderD0Ev
P:Math_exp
_uf:_Vector3_Min_m1803158933
Ao:FUNCTION_TABLE_iiifi
g8j:__ZN6il2cpp2os5posix13PosixAutoLockD2Ev
bkj:_SymmetricTransform_OFB_m3690147804
z$c:_cff_get_advances
jFb:__ZN13MonoBehaviour9SetScriptERK4PPtrI10MonoScriptE18ScriptingObjectPtr
sZj:_RaycastHit2D_get_collider_m1549426026
adb:__ZNK10FileSystem16LastErrorMessageEv
GGi:_Array_InternalArray__Insert_TisVector3_t3722313464_m3862657277_gshared
tXa:__ZN15SerializeTraitsI13dynamic_arrayI12SpriteVertexLj0EEE19ResizeSTLStyleArrayERS2_i
kgg:_SecurityException__ctor_m1631242336
bEj:__ZN15dense_hashtableINSt3__24pairIK10KeyWrapperIPK11Il2CppClassEPKcEES6_N6il2cpp5utils11PointerHashIS3_EEN14dense_hash_mapIS6_S9_SE_NS6_14EqualsComparerINS0_8equal_toIS5_EEEENS0_9allocatorISA_EEE9SelectKeyESJ_SL_E14squash_deletedEv
Eud:_EventSystem_Update_m1662072334
Iga:__ZN13sorted_vectorIN4core12basic_stringIcNS0_20StringStorageDefaultIcEEEENSt3__24lessIS4_EE13stl_allocatorIS4_L18MemLabelIdentifier81ELi16EEE21sort_clear_duplicatesEv
grd:__ZN22UnityWebRequestManager10InitializeEv
o5a:__ZNSt3__26__treeINS_12__value_typeIN4core12basic_stringIcNS2_20StringStorageDefaultIcEEEE4PPtrI6ObjectEEENS_19__map_value_compareIS6_SA_NS_4lessIS6_EELb1EEE13stl_allocatorISA_L18MemLabelIdentifier52ELi16EEE15__emplace_multiIJRNS_4pairIS6_S9_EEEEENS_15__tree_iteratorISA_PNS_11__tree_nodeISA_PvEEiEEDpOT_
r_c:_raccess_guess_darwin_newvfs
dtb:__ZL26Transfer_SimpleNativeClassI17RemapPPtrTransfer8GradientLb1EEvRK29SerializationCommandArgumentsR31RuntimeSerializationCommandInfo
gud:_RaycasterManager_RemoveRaycasters_m3057093063
Ckc:__ZN12CachedWriter9InitWriteER15CacheWriterBase
uzc:__Z21UnsignedInt64ToStringy
TVf:_GetRaycastNonAllocCallback_BeginInvoke_m3984885848
Qbj:_PatternCompiler_BeginLink_m1295557963
aGe:__ZL70CanvasScaler_t2767979955_CustomAttributesCacheGenerator_m_PhysicalUnitP21CustomAttributesCache
VQg:_GuidParser_ThrowFormatException_m3223388534
cfj:_Group_GetAnchorInfo_m3730312864
YCe:__ZL50Graphic_t1660335611_CustomAttributesCacheGeneratorP21CustomAttributesCache
cdf:_KeyCollection_System_Collections_Generic_ICollectionU3CTKeyU3E_Add_m454648927_gshared
zPh:_TimeSpan_op_LessThanOrEqual_m300470010
xue:__ZL139AnimatorOverrideController_t3582062219_CustomAttributesCacheGenerator_AnimatorOverrideController_OnInvalidateOverrideController_m3380737075P21CustomAttributesCache
Hqc:__Z66Register_UnityEngine_Transform_INTERNAL_CALL_InverseTransformPointv
aea:__ZZN15DirectorManager15InitializeClassEvEN41FixedUpdateDirectorFixedUpdateRegistrator7ForwardEv
LYg:_MemoryStream_get_Position_m3733941202
cdc:__ZL10KeyHandleriPK23EmscriptenKeyboardEventPv
iBk:_glLinkProgram__wrapper
ubb:__ZN18ScriptingArguments8AddInt64Ex
Mia:__ZN6prcoreL12RemapGenericI17TexFormatARGB888815TexFormatBGR888EEvPKNS_9InnerInfoE
hnb:__ZN26SinglePassStereoSupportExt19SaveStereoConstantsEv
Bfa:__ZNSt3__26vectorIP10MemoryPool13stl_allocatorIS2_L18MemLabelIdentifier76ELi16EEE21__push_back_slow_pathIRKS2_EEvOT_
CQg:_TextInfo_get_ListSeparator_m1628160079
PZf:_Selectable_OnCanvasGroupChanged_m472903475
sMh:_EventWaitHandle_Reset_m3348053200
kod:__ZN28UnityConnectScriptingClasses23CallSessionStateChangedEixxbP21ScriptingExceptionPtr
z2j:__ZN6il2cpp6icalls8mscorlib6System13Globalization11CultureInfo35construct_internal_locale_from_nameEP17Il2CppCultureInfoP12Il2CppString
lvb:__ZL22Transfer_ManagedObjectI24GenerateTypeTreeTransferLb1EEvRK29SerializationCommandArgumentsR31RuntimeSerializationCommandInfo
qYb:__ZN15RenderNodeQueueC2E10MemLabelId
ePd:_ResourceEnumerator_FillCache_m1661715061
l9d:__ZL72SecuritySafeCriticalAttribute_t3505979402_CustomAttributesCacheGeneratorP21CustomAttributesCache
Zj:_emscripten_set_main_loop_timing
Ouf:_Bounds_get_min_m3755135869
Y4g:_Convert_ToUInt16_m3523269149
qPb:__ZN14DataBufferGLES12RecordRenderEv
Dvd:_ExecuteEvents_get_endDragHandler_m2879610446
t9b:__ZN14ImageReference10FlipImageYEv
mya:__ZN21ScalableBufferManager20GetHeightScaleFactorEv
mL:__ZN4FMOD3DSP9setBypassEb
Vcc:__Z19NormalizeWheelInputf
EFd:_Graphic_DoMeshGeneration_m3548487693
LH:__ZN11KeyframeTplIfE8TransferI14SafeBinaryReadEEvRT_
bdj:_Repetition__ctor_m1672362629
kTc:__Z29Transfer_Blittable_ArrayFieldI8JSONReadhEvRT_R9ArrayInfoRK23StaticTransferFieldInfo
ohg:_SecurityFrame_ToString_m339310712_AdjustorThunk
dJd:_TypeBuilder_create_runtime_class_m2581270900
Yjc:__ZN11MonoManager25GetImageFromAssemblyIndexEi
C_e:_InternalEnumerator_1_get_Current_m3008260692_gshared
Vlk:__ZN6il2cpp2os20ThreadLocalValueImpl8SetValueEPv
oAa:__ZN22RenderingCommandBuffer20CleanupCommandBufferEv
P2g:_Decimal_op_Implicit_m2299919277
_Nc:__Z18Transfer_BlittableI9JSONWriteLb1EtEvRK29SerializationCommandArgumentsR31RuntimeSerializationCommandInfo
gKe:_UnexceptionalStreamReader_ReadToEnd_m920589220
E6g:_DateTime_System_IConvertible_ToType_m1242864300
zjg:_String_IndexOf_m1298810678
sk:___syscall85
nfd:__ZN2UI14CanvasRenderer18UpdateTRSHierarchyEb
vYb:__ZNSt3__26__sortIRPFbP10GUIElementS2_EPS2_EEvT0_S7_T_
Ktc:__ZN16GraphicsSettings12CleanupClassEv
JSe:_ConstructorBuilder_GetILGenerator_m1750792206
Okg:_EncoderFallback_get_ReplacementFallback_m818398284
Bak:__ZN6il2cpp2os6Thread19DetachCurrentThreadEv
Zud:_EventTrigger_OnBeginDrag_m4203438710
wCj:__ZN6il2cpp2vmL21SetupInterfacesLockedEP11Il2CppClassRKNS_2os12FastAutoLockE
Nnb:__ZN11MonoManager23VirtualRedirectTransferER24GenerateTypeTreeTransfer
LB:__ZN23AnimationPlayableOutput17SetSourcePlayableEP8Playable
Lwf:_CullingGroup_Dispose_m782801025
cra:__ZN9Scripting11UnityEngine9Component12CleanupProxyEv
CY:__ZN11UnityEngine15CloudWebService14DataDispatcher15SetupWebRequestEv
vld:__ZN11UnityEngine15PlatformWrapper13GetShaderCapsEv
E4b:__ZNSt3__211__sift_downIR26RenderDeferredObjectSorterP16RenderObjectDataEEvT0_S5_T_NS_15iterator_traitsIS5_E15difference_typeES5_
VUe:_GenericTypeParameterBuilder_IsDefined_m98179866
wrh:_KeyPairPersistence_get_MachinePath_m3812267291
X$g:_Stack_Peek_m2216191248
r6g:_DateTime_System_IConvertible_ToDecimal_m1044850612_AdjustorThunk
nuc:__ZN21FixedBehaviourManager6UpdateEv
bqc:__ZN9Transform9SetParentEPS_NS_15SetParentOptionE
pCa:__ZN19ShaderPropertySheet8SetFloatEN9ShaderLab16FastPropertyNameEfNS_8SetFlagsE
c6a:__ZN19RuntimeSceneManager24BeginIntegrateMainThreadEP10UnityScene
obk:__ZNSt3__2plIcNS_11char_traitsIcEENS_9allocatorIcEEEENS_12basic_stringIT_T0_T1_EERKS9_S6_
eJe:_StringReader_CheckObjectDisposedException_m3796163530
vSh:_UInt32_System_IConvertible_ToInt16_m1659441601
mgc:__ZN9ShaderLab20SerializedSubProgramaSERKS0_
Vrk:_roundf
BFg:_Byte_System_IConvertible_ToSingle_m324484566_AdjustorThunk
N0g:_Decimal_op_Explicit_m2848387298
bDh:_KeyValuePair_2_ToString_m1238786018_gshared
ev:__ZN8Animator15SetPrepareStageEv
fJ:__ZN8AnimatorC2E10MemLabelId18ObjectCreationMode
xCj:__ZN6il2cpp2vmL24SetupTypeHierarchyLockedEP11Il2CppClassRKNS_2os12FastAutoLockE
ddc:__ZL11TextHandleriPK23EmscriptenKeyboardEventPv
i_c:_destroy_face
wxk:_glBlendEquationSeparate__wrapper
Wik:__ZN6il2cpp6icalls8mscorlib6System8Security12Cryptography24RNGCryptoServiceProvider13RngInitializeEP11Il2CppArray
xQ:__ZN20SoundChannelInstance7setMuteEb
G6g:_DateTimeUtils_ToString_m1782212840
qPe:_NumberFormatter_NumberToString_m3906556024
cAb:__Z19TransferField_ArrayI18StreamedBinaryReadILb1EE27Converter_SimpleNativeClassI17AnimationCurveTplIfEEEvRK23StaticTransferFieldInfoR31RuntimeSerializationCommandInfoRT0_
IPb:__ZN18GfxFramebufferGLES22MakeCurrentFramebufferENS_7BuiltinE
cGa:__ZN12CachedReader4ReadEPvj
kyd:_StandaloneInputModule_ProcessMouseEvent_m2923582521
PMd:_MonoMethod_ShouldPrintFullName_m1607666412
$0b:__Z24CalculateLightShadowFadeRK6CamerafffR8Vector4f
k6:__ZN19RuntimeSceneManagerD2Ev
TMg:_CCGregorianCalendar_GetMonth_m1547203696
SZ:__ZN11UnityEngine15CloudWebService25WebRequestDownloadHandler17OnCompleteContentEv
yPa:__ZN6prcore17GetIntegerBlitterE13TextureFormatS0_N14ImageReference8BlitModeE
Ygk:_GC_print_block_descr
gma:__ZL51__ManagedRegistrationHelperFunction_ResourceRequestPv
FDc:__ZN9BlobWrite14ReduceCopyImplERK14ReduceCopyDataj
ujh:_Array_LastIndexOf_TisRuntimeObject_m1677937501_gshared
rU:__ZN11AudioSource18IsPlayingScriptingEv
orh:_KeyBuilder_IV_m2230195376
lwk:_glShaderSource__wrapper
Qeb:__ZN25MultiBlocksMemoryFileData17AdjustBlocksCountEj
C$j:__ZNSt3__214__split_bufferIN6il2cpp2vm22EmbeddedResourceRecordERNS_9allocatorIS3_EEED2Ev
pYc:__ZN13TextRendering4Font8TransferI24GenerateTypeTreeTransferEEvRT_
Fmc:__Z27CullingGroup_CUSTOM_DisposeP12Il2CppObject
Am:_glStencilMask
abk:__ZN6il2cpp2os10ThreadImpl16GetCurrentThreadEv
Xcc:__ZN15GUIEventManager10QueueEventERK10InputEvent
pKj:_AnalyticsEvent_OnValidationFailed_m2609604624
Zve:__ZL62EventType_t3528516131_CustomAttributesCacheGenerator_mouseMoveP21CustomAttributesCache
PPd:_DecimalConstantAttribute__ctor_m3583301917
ygk:_GC_push_conditional_with_exclusions
aWd:_MethodCallDictionary__ctor_m2167303393
y7c:_Compute_Point_Displacement
cgk:_GC_make_disappearing_links_disappear
_ok:_strrchr
vwf:_Component_GetComponentInParent_m779177818
Myd:_UIBehaviour_IsDestroyed_m3033055982
Vpi:__Z109RuntimeInvoker_Void_t1185182177_RuntimeObject_RuntimeObject_SByte_t1669577662_Int32_t2950945753_RuntimeObjectPFvvEPK10MethodInfoPvPS4_
CPf:_InputField_get_readOnly_m3111985574
tHa:__ZN14RenderSettings27UpdateIndirectSpecularColorEv
gne:__ZL59RectOffset_t1369453676_CustomAttributesCacheGenerator_m_PtrP21CustomAttributesCache
I2a:__ZN14PlayerSettings8TransferI18StreamedBinaryReadILb0EEEEvRT_
NMj:__ZN6il2cpp6icalls8mscorlib6System8MonoType16GetMethodsByNameEP20Il2CppReflectionTypeP12Il2CppStringibS5_
M3i:_RijndaelTransform__cctor_m2439033240
OJb:__ZNSt3__27__sort3IRNS_4lessIN22BuiltinResourceManager8ResourceEEEPS3_EEjT0_S7_S7_T_
U8c:_ps_hints_t2mask
Ueh:_Array_InternalArray__ICollection_Remove_TisMonoResource_t4103430009_m238733686_gshared
K_f:_Slider_Set_m1476104429
qHd:_Image_set_fillClockwise_m2210525152
x0a:__ZN10BlendShape8TransferI19StreamedBinaryWriteILb0EEEEvRT_
nmb:__ZNSt3__26vectorIN20GpuProgramParameters14ConstantBufferENS_9allocatorIS2_EEE21__push_back_slow_pathIRKS2_EEvOT_
iEf:_PlayerConnection_DisconnectedCallback_m1697017309
x1a:__Z19GetTimeSinceStartupv
QHd:_Image_AddQuad_m2161647989
jGh:_Enumerator_System_Collections_IEnumerator_Reset_m2953002685_gshared
o8c:_TT_Load_Composite_Glyph
vs:__ZL51__ManagedRegistrationHelperFunction_ScaleConstraintPv
JLa:__ZN9ShaderLab11shaderprops9GetTexEnvEPK19ShaderPropertySheetS3_NS_16FastPropertyNameE16TextureDimensionb
l$b:__ZN29RenderNodeQueuePrepareContextC2Ev
OXj:_il2cpp_gc_disable
Jwg:_IntStack_t2189327687_marshal_pinvoke_back
vhc:__ZN9ShaderLab20SerializedSubProgram16TextureParameter8TransferI24GenerateTypeTreeTransferEEvRT_
Ira:__ZN9Scripting5Unity11Collections8LowLevel6Unsafe29NativeSetThreadIndexAttribute12CleanupProxyEv
ujk:__ZN6il2cpp2os11MutexHandle4WaitEb
uhb:__ZN9GfxDevice19SaveStereoConstantsEv
tjk:__ZN6il2cpp2os11MutexHandle4WaitEj
Qmc:__ZL34GetComponentsImplementationRecurseILb1ELi1ELi1EEbR10GameObjectbRK17CompareParametersRK39GetComponentsImplementation_ReturnValue
bii:__Z114RuntimeInvoker_Boolean_t97287965_RuntimeObject_RuntimeObject_Int32_t2950945753_Int32_t2950945753_Int32_t2950945753PFvvEPK10MethodInfoPvPS4_
dSe:_AssemblyBuilder_GetTypes_m3415680380
_ha:__ZN6prcoreL17RemapGenericFloatI15TexFormatRGHalf18TexFormatARGBFloatEEvPKNS_9InnerInfoE
oHc:__ZN18CrashReportManager23VirtualRedirectTransferER14SafeBinaryRead
KHb:__Z18SimulateMouseInputi
hXb:__ZN13RenderManager23AddRemoveCamerasDelayedEv
fid:__ZN11UnityEngine9Analytics15AnalyticsConfigC2Ev
CMc:__ZN5Unity9rapidjson6WriterI16TempBufferWriterNS0_4UTF8IcEES4_13JSONAllocatorE11WriteUint64Ey
cEg:_BitConverter__cctor_m3841343255
u0g:_Decimal_Compare_m3062820418
taj:_IntervalCollection_GetMetaCollection_m4029522214
Uud:_EventTrigger_OnDeselect_m1919608102
Xwj:_TextGenerator_get_characterCount_m864136654
BOh:_TimeSpan__ctor_m2047388489_AdjustorThunk
$7b:__ZN13RenderTexture8SetWidthEi
Jba:__ZN22BuiltinResourceManager16StaticInitializeEPv
s$i:_Collection_1_System_Collections_ICollection_CopyTo_m1516601228_gshared
tca:__ZN23DefaultMeshVertexFormatC2E18VertexChannelsInfo
PRg:_Int16_System_IConvertible_ToDouble_m1661805412
X3:__ZN9ShaderLab16FastPropertyName4InitEPKc
RKa:__ZN6ObjectC2E10MemLabelId18ObjectCreationMode
r2e:_InternalEnumerator_1_get_Current_m3911557813_AdjustorThunk
_kd:__ZN11UnityEngine15PlatformWrapper19GetPhysicalMemoryMBEv
Vx:__ZN17AnimationPlayable17GetAnimationClipsER13dynamic_arrayIP13AnimationClipLj0EE
gGg:_Char_System_IConvertible_ToByte_m2347554595_AdjustorThunk
oJa:__ZN13RenderTexture9SetMipMapEb
jVc:__ZN9Scripting11UnityEngine14ContactPoint2D9InitProxyEv
Ukg:_String_CreateString_m860434552
Bea:__Z18GetDirectorManagerv
Upc:__Z38Transform_CUSTOM_INTERNAL_get_rotationP12Il2CppObjectP11Quaternionf
PQj:__ZNK15dense_hashtableINSt3__24pairIK10KeyWrapperINS1_IPK10MethodInfoP11Il2CppClassEEEjEES9_17ReflectionMapHashIS8_EN14dense_hash_mapIS9_jSD_NS9_14EqualsComparerINS0_8equal_toIS8_EEEENS0_9allocatorISB_EEE9SelectKeyESI_SK_E5beginEv
bOb:__ZN7ApiGLES19UploadBufferSubDataEjN2gl12BufferTargetEllPKv
je:_glFramebufferTextureLayer
Uga:__ZNSt3__216__rotate_forwardINS_11__wrap_iterIPN4core12basic_stringIcNS2_20StringStorageDefaultIcEEEEEEEET_S9_S9_S9_
NMf:_Vector2_GetHashCode_m3916089713
Izg:_SmallXmlParserException__ctor_m1976648878
mNe:_MulticastDelegate_Equals_m2502840627
Ydg:_SymmetricAlgorithm_set_KeySize_m3805756466
FFg:_Byte_System_IConvertible_ToUInt32_m1049546902_AdjustorThunk
Zqi:__Z53RuntimeInvoker_Double_t594665363_Interval_t1802865632PFvvEPK10MethodInfoPvPS4_
YJb:__Z21InitializeBatchedJobsv
Fxj:_CanvasGroup_get_blocksRaycasts_m1805542303
Gcg:_SHA1Internal_ProcessBlock_m1991889327
dqb:__Z19TransferField_ArrayI14SafeBinaryRead27Converter_SimpleNativeClassI8GUIStyleEEvRK23StaticTransferFieldInfoR31RuntimeSerializationCommandInfoRT0_
_Db:__ZN9TextAsset23VirtualRedirectTransferER19StreamedBinaryWriteILb0EE
WIi:_Array_Sort_TisRuntimeObject_TisRuntimeObject_m1685639929_gshared
djk:__ZN6il2cpp5utils10MemoryPoolC2Ev
OGa:__ZN14RenderSettings5ResetEv
qkc:__ZN6Sprite9BindAtlasERK4PPtrI11SpriteAtlasE
UMc:__ZN5Unity9rapidjson12GenericValueINS0_4UTF8IcEE13JSONAllocatorE10FindMemberIS4_EENS0_21GenericMemberIteratorILb0ES3_S4_EERKNS1_IS3_T_EE
n2e:_InternalEnumerator_1_System_Collections_IEnumerator_get_Current_m3892960115_AdjustorThunk
Ojc:__ZN9ShaderLabL18AddPropertyToArrayERK19ShaderPropertySheetR13dynamic_arrayIiLj0EERKNS_8FloatValE
b1j:__ZNSt3__212basic_stringIDsNS_11char_traitsIDsEENS_9allocatorIDsEEE6appendEPKDsj
YHg:_ArrayList_Clone_m2682741233
csf:_HMAC_HashCore_m3684104066
nod:__Z13RegisterClassI20UnityConnectSettingsEvPKc
o5h:__ZN28GenericInterfaceFuncInvoker2Ii20UIVertex_t4057497605S0_E6InvokeEPK10MethodInfoP12Il2CppObjectS0_S0_
jMc:__ZN5Unity9rapidjson13GenericReaderINS0_4UTF8IcEES3_13JSONAllocatorE11ParseNumberILj1ENS0_25GenericInsituStringStreamIS3_EENS0_15GenericDocumentIS3_S4_S4_EEEEvRT0_RT1_
Mak:__ZN6il2cpp2os10ThreadImplD2Ev
hNc:__ZN8Gradient8TransferI9JSONWriteEEvRT_
X6a:__ZN21RendererUpdateManager18OncePerFrameUpdateER13RendererScene
opj:_AudioSource_set_clip_m31653938
Mua:__ZNK12TLSAllocatorI14StackAllocatorE22GetAllocatedMemorySizeEv
Ysa:__ZN17RemapPPtrTransfer12PushMetaFlagE17TransferMetaFlags
Bzh:_EqualityComparer_1_System_Collections_IEqualityComparer_GetHashCode_m2138064395_gshared
Mbb:__ZN12HandlerChain4NameEv
aSg:_Int16_System_IConvertible_ToType_m3672347013_AdjustorThunk
Urb:__Z29Transfer_Blittable_ArrayFieldI14SafeBinaryReadN4math12int3_storageEEvRT_R9ArrayInfoRK23StaticTransferFieldInfo
hTg:_Int32_System_IConvertible_ToType_m3009233912_AdjustorThunk
HSg:_Int16_ToString_m2013897809
$gg:_String_Substring_m2848979100
Ffd:__Z44Register_UnityEngine_CanvasRenderer_get_cullv
Ckd:__ZN11UnityEngine7Connect17XRDeviceInfoEvent12XRDeviceInfoD2Ev
gob:__Z44InitializeTransferFunctionScriptingTraitsForI17RemapPPtrTransferEvR31TransferFunctionScriptingTraits
htc:__ZNSt3__26vectorI16MessageForwarder13stl_allocatorIS1_L18MemLabelIdentifier7ELi8EEE6resizeEj
Jtg:_X509Chain_SelectBestFromCollection_m1068759221
ekj:_SymmetricTransform_TransformBlock_m851059707
SYd:__ZL68IntPtr_t_CustomAttributesCacheGenerator_IntPtr_ToPointer_m4157623054P21CustomAttributesCache
IHb:__Z11StringToKeyRKN4core12basic_stringIcNS_20StringStorageDefaultIcEEEE
JXi:_Enumerator_System_Collections_IEnumerator_Reset_m2261065994_AdjustorThunk
AYf:_ScrollRect_get_verticalNormalizedPosition_m3693218937
b6a:__ZN18LoadSceneOperation21MustCompleteNextFrameEv
M_f:_Slider_UpdateDrag_m1102107039
_Md:_MonoMethodInfo_get_method_info_m88651774
XT:__ZNK12AudioManager16GetAudioListenerEv
TSg:_Int32_System_IConvertible_ToDateTime_m1824716955
Tof:_RuntimeTypeHandle__ctor_m3315980708_AdjustorThunk
kxj:_Canvas_set_overrideSorting_m4088794420
E7b:__ZNSt3__26vectorI11CameraStackNS_9allocatorIS1_EEE8__appendEj
Ew:__ZN7mecanim9animation12GetHumanPoseERKNS0_18ClipMuscleConstantEPKNS0_10ValueDeltaERNS_5human9HumanPoseE
Eid:__ZN11UnityEngine9Analytics15UserCustomEvent12CustomParams6InsertEPKcRNS1_11CustomValueE
yy:__ZN22AnimationMixerPlayable17ProcessRootMotionEP35AnimationPlayableEvaluationConstantP32AnimationPlayableEvaluationInputP33AnimationPlayableEvaluationOutput
R9:__Z13GetFileSystemv
nca:__ZN13RuntimeStaticI15GUIEventManagerLb0EE16StaticInitializeEPv
lDf:_MonoBehaviour_IsObjectMonoBehaviour_m2134950949
oma:__ZL45__ManagedRegistrationHelperFunction_Texture2DPv
PUh:_Version_CompareTo_m3146217210
L8f:_TlsClientCertificate_FindParentCertificate_m3844441401
Tfj:_Uri_ParseAsUnixAbsoluteFilePath_m1476768041
Rkh:_Array_InternalArray__ICollection_CopyTo_TisKeyValuePair_2_t71524366_m1056941380_gshared
VPh:_Type_get_IsClass_m589177581
yhe:__ZL62NativeTypeAttribute_t2250406315_CustomAttributesCacheGeneratorP21CustomAttributesCache
tnb:__ZN19ShaderPropertySheet9SetMatrixEN9ShaderLab16FastPropertyNameERK10Matrix4x4fNS_8SetFlagsE
IRa:__Z29GetTextureSizeAllowedMultiple13TextureFormat
t9g:_Decimal_Subtract_m835601464
zOh:_TimeSpan__ctor_m3689759052_AdjustorThunk
ZWj:_il2cpp_array_element_size
zXd:__ZL62ComVisibleAttribute_t1362837655_CustomAttributesCacheGeneratorP21CustomAttributesCache
Gva:__ZNSt3__26__treeINS_12__value_typeIN4core12basic_stringIcNS2_20StringStorageDefaultIcEEEEjEENS_19__map_value_compareIS6_S7_NS_4lessIS6_EELb1EEE13stl_allocatorIS7_L18MemLabelIdentifier7ELi16EEE25__emplace_unique_key_argsIS6_JNS_4pairIS6_jEEEEENSH_INS_15__tree_iteratorIS7_PNS_11__tree_nodeIS7_PvEEiEEbEERKT_DpOT0_
GIf:_RectTransform_INTERNAL_set_sizeDelta_m188783163
Vf:_glCheckFramebufferStatus
Aik:__ZN6il2cpp2os11EventHandle4WaitEv
X5:__Z43scripting_class_get_method_from_name_filter17ScriptingClassPtrPKciN24ScriptingMethodFiltering18MethodSearchFilterEPK16ScriptingTypePtr
Vfd:__Z13RegisterClassIN2UI6CanvasEEvPKc
E$:__ZN19CloudServiceHandler20StartEventDispatcherERKN11UnityEngine15CloudWebService18CloudServiceConfigERNS1_23WebRequestRestHeaderMapE
cGd:_GraphicRaycaster__ctor_m646559428
TJg:_BitArrayEnumerator_get_Current_m4220391712
CQe:__Z37il2cpp_codegen_get_executing_assemblyPK10MethodInfo
iJf:_Transform_get_parent_m835071599
Ppg:_IPAddress_get_ScopeId_m4237202723
Cpa:__ZN9Scripting11UnityEngine12Experimental10PlayerLoop9PreUpdate12CleanupProxyEv
fdj:_ExpressionCollection_get_Item_m3510736379
QCe:__ZL62FontData_t746620069_CustomAttributesCacheGenerator_m_AlignmentP21CustomAttributesCache
Lxd:_StandaloneInputModule_get_inputActionsPerSecond_m3946624274
PLh:_UTF8Encoding_InternalGetCharCount_m82458470
$Mf:_Vector2__cctor_m2108982652
jEf:_U3CBlockUntilRecvMsgU3Ec__AnonStorey2_U3CU3Em__0_m2225790220
tna:__ZN9Scripting11UnityEngine9Rendering20SphericalHarmonicsL29InitProxyEv
P2j:__ZN14dense_hash_mapI10KeyWrapperIP14Il2CppIUnknownEjN6il2cpp5utils11PointerHashIS1_EENS3_14EqualsComparerINSt3__28equal_toIS2_EEEENS9_9allocatorINS9_4pairIKS3_jEEEEE15set_deleted_keyERSF_
sTj:__ZN13Il2CppHashMapIPK14Il2CppAssemblyPK22Il2CppMonoAssemblyNameN6il2cpp5utils11PointerHashIS1_EENSt3__28equal_toIS2_EENSA_9allocatorINSA_4pairIK10KeyWrapperIS2_ES5_EEEEEC2EjRKS9_RKSC_
cBg:_DelegatePInvokeWrapper_AppDomainInitializer_t682969308
W8:__ZN8Remapper6RemoveEi
Omg:_Encoding_GetBytes_m3148649984
FCc:__ZN9Scripting27CreateArgumentNullExceptionEPKc
c$c:__ZL36CleanupTextRenderingScriptingClassesv
Y7b:__ZN15ReflectionProbe17UseRendererResultEP13ProbeRenderer
EFc:__Z34Mesh_CUSTOM_SetArrayForChannelImplP12Il2CppObject30InternalScriptingShaderChannel34InternalScriptingVertexChannelTypeiP11Il2CppArrayi
Nxj:_CanvasRenderer_INTERNAL_CALL_EnableRectClipping_m3318097918
lTh:_UInt64_System_IConvertible_ToDecimal_m806594027_AdjustorThunk
Uka:__ZL58__ManagedRegistrationHelperFunction_MaterialEffectPlayablePv
Cod:__ZN11UnityEngine7Connect20RemoteConfigSettings18StaticCallOnUpdateEPS1_
Naf:_Enumerator_get_CurrentValue_m3103267885_gshared
kOi:_List_1__ctor_m3395838871_gshared
_Xh:_Collection_1_IsFixedSize_m3698021882_gshared
eK:__ZN9Scripting11UnityEngine18AssetBundleRequest9InitProxyEv
E7i:_PKCS12__ctor_m1854440921
vIi:_Array_Resize_TisCustomAttributeNamedArgument_t287865710_m885566878_gshared
Waa:__ZN17TransformInternal19FreeTransformThreadER18TransformHierarchyjj
Ns:__ZN9Scripting11UnityEngine12SkeletonBone12CleanupProxyEv
bu:__ZN11UnityEngine9Animation28GenericAnimationBindingCache25RegisterIAnimationBindingEPKN5Unity4TypeEiP17IAnimationBinding
TSd:_FormatterData__ctor_m3990517908
Jfd:__Z70RectTransformUtility_CUSTOM_INTERNAL_CALL_RectangleContainsScreenPointP12Il2CppObjectRK13Vector2fIcallS0_
CWg:_DirectoryInfo__ctor_m481305441
oCj:__ZN6il2cpp2vm5Class15GetElementClassEP11Il2CppClass
W3:__ZN10MemoryPoolC2E10MemLabelIdbPKciii
Ihd:__ZN14UnityAnalytics25UnregisterGlobalCallbacksEv
Uyi:__Z80RuntimeInvoker_Boolean_t97287965_ColorBlockU26_t337120346_ColorBlock_t2139031574PFvvEPK10MethodInfoPvPS4_
o6b:__Z40ProcessCameraIndexListIsNodeVisibleInOutRK22SceneCullingParametersPK9SceneNodePK4AABBR9IndexList
$ij:_GUIScrollGroup_SetHorizontal_m291416666
TFa:__ZN16GraphicsSettings8TransferI17RemapPPtrTransferEEvRT_
Cgd:__ZN2UI6Canvas13UpdateBatchesEb
Frg:_X509BasicConstraintsExtension_Decode_m120598446
IB:__ZNK23AnimationPlayableOutput11DerivesFromE17ScriptingClassPtr
snf:_ObjectReader_ReadObjectGraph_m340866276
ewe:__ZL64EventType_t3528516131_CustomAttributesCacheGenerator_dragUpdatedP21CustomAttributesCache
Uld:__ZN11UnityEngine7Connect13ConfigHandler12GetListenersERKN4core12basic_stringIcNS2_20StringStorageDefaultIcEEEE
uib:__ZN9GfxDevice18AllocRenderSurfaceEb
$Fg:_Char__cctor_m2787437263
Fxc:__ZN10TagManager32GetSortingLayerUniqueIDFromValueEi
_yd:_AspectRatioFitter_get_rectTransform_m2996235303
P5:__ZL27CleanupCoreScriptingClassesv
$Fd:_Graphic_UnregisterDirtyMaterialCallback_m2707090617
h9e:_Comparer_1_System_Collections_IComparer_Compare_m1313384821_gshared
Xqc:__Z26AnimationCurve_CUSTOM_InitP12Il2CppObjectP11Il2CppArray
Qzk:_glUniform1uiv__wrapper
dTj:__ZN6il2cpp2vm10Reflection7IsEventEP12Il2CppObject
X8:__ZN17PersistentManager26GetStreamNameSpaceInternalEi
nR:__ZN4FMOD6System11createSoundEPKcjP22FMOD_CREATESOUNDEXINFOPPNS_5SoundE
Wn:FUNCTION_TABLE_iiifiiii
TWc:__ZN13SpeedTreeWind20AdvanceWithoutUpdateEd
aYh:_ReadOnlyCollection_1_System_Collections_Generic_ICollectionU3CTU3E_Add_m1422506275_gshared
q6g:_DateTime_System_IConvertible_ToDecimal_m1044850612
V4:__ZN9ShaderLab19CommonPropertyNames13StaticCleanupEPv
k8:__Z31scripting_method_get_returntype18ScriptingMethodPtr
kWa:__ZN15SerializeTraitsI12LightmapDataE8TransferI24GenerateTypeTreeTransferEEvRS0_RT_
ufg:_SecurityElement_AddAttribute_m311510562
Gra:__ZN9Scripting5Unity11Collections44NativeDisableParallelForRestrictionAttribute12CleanupProxyEv
nwk:_glStencilOpSeparate__wrapper
RAc:__ZN4Mesh5SetUvEiPKfjj
WTa:__ZN7Texture13SetAnisoLimitENS_20AnisotropicFilteringE
qqd:__ZN20UnityWebRequestProtoI24UnityWebRequestTransport16AtomicRefCounter14RedirectHelper14ResponseHelper15DownloadHandler13UploadHandler18CertificateHandler12HeaderHelper14AsyncOperationED2Ev
cw:__ZN21AnimationClipPlayable22PrepareAnimationEventsEfR13dynamic_arrayI22AnimationClipEventInfoLj0EE
UDg:_Attribute_IsDefined_m4069052474
Ph:_emscripten_glCompressedTexSubImage2D
gRb:__ZN13GfxDeviceGLES22MemoryBarrierImmediateEyN2gl17MemoryBarrierTypeE
Cia:__ZN6prcoreL26RemapGenericFloatToIntegerI18TexFormatARGBFloat17TexFormatARGB8888EEvPKNS_9InnerInfoE
xWi:_List_1_set_Capacity_m1977188119_gshared
dCc:__Z46GetShaderModelNumericValueFromRequirementsMask18ShaderRequirements
E2c:_cff_ps_has_glyph_names
Pvh:_Dictionary_2_Resize_m3287623642_gshared
afk:_GC_write
Zsf:_RC2_Create_m2516417038
LFd:_Graphic_OnPopulateMesh_m767318148
or:__ZN17ConstraintManagerD2Ev
Tif:_Dictionary_2_Remove_m4193450060_gshared
BUg:_Int64_TryParse_m3606398488
qHi:_Array_InternalArray__set_Item_TisMark_t3471605523_m1299772331_gshared
OKc:__Z44Register_UnityEngine_GUIStyle_SetDefaultFontv
jyb:__Z18Transfer_BlittableI18StreamedBinaryReadILb1EELb1EiEvRK29SerializationCommandArgumentsR31RuntimeSerializationCommandInfo
MD:__ZN9BlobWrite8TransferI22OffsetPtrArrayTransferIKN4math7_float3EEEEvRT_PKc17TransferMetaFlags
hii:__Z173RuntimeInvoker_Int32_t2950945753_RuntimeObject_Int32_t2950945753_Int32_t2950945753_Int32_t2950945753_RuntimeObject_Int32_t2950945753_SByte_t1669577662_ContextU26_t3937453398PFvvEPK10MethodInfoPvPS4_
cQi:_List_1__ctor_m2576108087_gshared
URj:__ZN15dense_hashtableINSt3__24pairIK10KeyWrapperINS1_IPK12PropertyInfoP11Il2CppClassEEEjEES9_17ReflectionMapHashIS8_EN14dense_hash_mapIS9_jSD_NS9_14EqualsComparerINS0_8equal_toIS8_EEEENS0_9allocatorISB_EEE9SelectKeyESI_SK_E12maybe_shrinkEv
Lsj:__ZL25UnresolvedVirtualCall_150P12Il2CppObject19Vector2_t2156229523S1_fiPK10MethodInfo
$7i:_X509Certificate_get_DSA_m565099499
Kyb:__Z18Transfer_BlittableI18StreamedBinaryReadILb1EELb1EsEvRK29SerializationCommandArgumentsR31RuntimeSerializationCommandInfo
ZJh:_StringBuilder_Remove_m940064945
x2a:__ZN14SafeBinaryRead21TransferSTLStyleArrayI13dynamic_arrayI16SplashScreenLogoLj0EEEEvRT_17TransferMetaFlags
$lb:__ZN13dynamic_arrayIN16GeometryJobTasks15GeometryJobTaskELj0EE18resize_initializedEjRKS1_12ResizePolicy
Tqf:_DESCryptoServiceProvider_GenerateIV_m683687014
aUa:__ZL21SetAnisoLimitEnumImplN7Texture20AnisotropicFilteringEb
Pld:__ZN22BaseUnityConnectClient17OnEnterStateReadyEv
C$f:_Text_get_fontSize_m1677872538
NIh:_List_1_System_Collections_IList_get_Item_m995551621_gshared
jpa:__ZN9Scripting11UnityEngine12Experimental9Rendering15ShadowSplitData9InitProxyEv
w0a:__ZN16BlendShapeVertex8TransferI19StreamedBinaryWriteILb0EEEEvRT_
irc:__Z29Input_CUSTOM_GetMouseButtonUpi
rSg:_Int16_Parse_m138525169
lNj:__ZN6il2cpp6icalls8mscorlib6System8MonoType16InternalGetEventEP20Il2CppReflectionTypeP12Il2CppStringi
Mgj:_UriScheme_t722425697_marshal_pinvoke_back
w4c:_UNITY_tt_face_load_maxp
yrc:__Z46Input_CUSTOM_INTERNAL_set_compositionCursorPosRK13Vector2fIcall
Iv:__ZN7mecanim5human12FullBodyMaskEv
h_b:__ZN13BatchRenderer15ApplyShaderPassER17ShaderPassContextPK18SharedMaterialDataP6ShaderPN9ShaderLab4PassEi13BatchingFlagsbbPKNS7_10GrabPassesEPK22DeviceRenderStateBlock
__a:__ZN19ShaderPropertySheet11ComputeHashEv
yGj:__ZN30dense_hashtable_const_iteratorI10KeyWrapperIPK19Il2CppGenericMethodES4_N6il2cpp8metadata23Il2CppGenericMethodHashEN14dense_hash_setIS4_S7_NS4_14EqualsComparerINS6_26Il2CppGenericMethodCompareEEENSt3__29allocatorIS4_EEE8IdentityESB_SE_EppEv
BZ:__ZN11UnityEngine15CloudWebService20WebRequestRestClient6IsDoneEv
a5i:_X509CertificateCollection_get_Item_m1033426577
Mi:_llvm_fabs_f32
eZ:__ZN11UnityEngine15CloudWebService16SessionContainer16GetJsonDataBlockEjRKN4core12basic_stringIcNS2_20StringStorageDefaultIcEEEERS6_PjSA_
dqh:_ASN1_Decode_m1695284166
hch:_Enum_ToString_m3248653065
FRd:_ChannelServices__cctor_m2475086854
o7:__ZN14SafeBinaryReadD2Ev
qGh:_Enumerator_MoveNext_m3859993671_gshared
UXc:__ZN14SafeBinaryRead21TransferSTLStyleArrayI13dynamic_arrayIN20TextRenderingPrivate8FontImpl13CharacterInfoELj0EEEEvRT_17TransferMetaFlags
_zb:__ZN8Gradient8TransferI18StreamedBinaryReadILb1EEEEvRT_
qvg:_Capture__ctor_m3103117740
fhi:__Z113RuntimeInvoker_Void_t1185182177_RuntimeObject_Int64_t3736567304_RuntimeObject_Int64_t3736567304_Int64_t3736567304PFvvEPK10MethodInfoPvPS4_
JGf:_RangeInt_get_end_m4128831787_AdjustorThunk
l2j:__ZN6il2cpp6icalls8mscorlib6System4Type15MakeGenericTypeEP20Il2CppReflectionTypeP11Il2CppArray
mj:_SDL_PauseAudio
DLg:_Hashtable_Clone_m3078962909
uXj:_il2cpp_class_from_type
eOj:__ZN6il2cpp2os4File11GetStdErrorEv
PAj:_NativeHeaderAttribute__ctor_m457462113
U4:__ZN9ShaderLab19CommonPropertyNames16StaticInitializeEPv
i8e:_Comparer_1__cctor_m2517796511_gshared
nu:__ZN7mecanim9animation18CreateAvatarOutputEPKNS0_14AvatarConstantEbbRNS_6memory9AllocatorE
l9f:_TlsServerCertificateRequest_Update_m2763887540
s_f:_Slider_set_maxValue_m2251404465
qQ:__ZN11AudioSource23VirtualRedirectTransferER24GenerateTypeTreeTransfer
CAc:__ZN7Texture11SetWrapModeE15TextureWrapMode
FOa:__ZN14Texture2DArray23VirtualRedirectTransferER14SafeBinaryRead
kLe:_MissingMemberException__ctor_m1220732369
W0b:__ZNK6Camera21CalculateCanDoShadowsEv
uak:__ZN6il2cpp2os6Thread12SetStackSizeEj
JUf:_MaskableGraphic_RecalculateMasking_m183336762
WLi:_Array_InternalArray__get_Item_TisRuntimeObject_m3347010206_gshared
KJd:_TypeBuilder_IsSubclassOf_m3458909121
Dsk:dynCall_viffii
hBb:__Z18Transfer_BlittableI18StreamedBinaryReadILb0EELb1EhEvRK29SerializationCommandArgumentsR31RuntimeSerializationCommandInfo
Zyg:_X509Certificate__cctor_m198658613
sFf:_PlayableHandle_Equals_m1666612586_AdjustorThunk
iia:__ZN6prcoreL27StretchGenericFloatBilinearI15TexFormatRFloatEEvPKNS_9InnerInfoE
Cfe:__ZL139ServicePointManager_t170559685_CustomAttributesCacheGenerator_ServicePointManager_t170559685____CheckCertificateRevocationList_PropertyInfoP21CustomAttributesCache
tch:_Enum_ToObject_m1628250250
By:__Z24ProcessAnimationMixBeginP35AnimationPlayableEvaluationConstantP32AnimationPlayableEvaluationInputP33AnimationPlayableEvaluationOutput
IUi:_List_1_set_Item_m2057272351_gshared
YXa:__ZN19StreamedBinaryWriteILb0EE21TransferSTLStyleArrayI13dynamic_arrayI8Vector2fLj0EEEEvRT_17TransferMetaFlags
qSa:__Z14PadImageBorderR14ImageReferenceii
uQj:__ZN15dense_hashtableINSt3__24pairIK10KeyWrapperINS1_IPK10MethodInfoP11Il2CppClassEEEjEES9_17ReflectionMapHashIS8_EN14dense_hash_mapIS9_jSD_NS9_14EqualsComparerINS0_8equal_toIS8_EEEENS0_9allocatorISB_EEE9SelectKeyESI_SK_E4findERSA_
IJj:__ZN6il2cpp2vm13MetadataCache28GetFieldDefaultValueForFieldEPK9FieldInfo
kih:_Array_IndexOf_TisUIVertex_t4057497605_m3336763564_gshared
dz:__ZN27AnimationLayerMixerPlayableD2Ev
kBd:_ColorBlock_Equals_m518833916_AdjustorThunk
D_e:_InternalEnumerator_1_System_Collections_IEnumerator_get_Current_m1514266661_AdjustorThunk
pM:__ZN12AudioManager39HandlePendingAudioConfigurationCallbackEv
vma:__ZL43__ManagedRegistrationHelperFunction_Vector3Pv
lk:_emscripten_glIsFramebuffer
Esh:_RSAManaged_EncryptValue_m799827583
i7b:__ZN12_GLOBAL__N_16qAtan2Eff
pk:_JS_Sound_SetLoopPoints
Jjk:__ZN6il2cpp2vm26MetadataAllocGenericMethodEv
dfh:_Array_InternalArray__ICollection_Remove_TisUInt16_t2177724958_m1766181761_gshared
wTb:__ZN19ConstantBuffersGLES12RecordRenderEv
ZOc:__ZN9JSONWrite8TransferI10RectOffsetEEvRT_PKc17TransferMetaFlags
hSa:__ZN4crnd12symbol_codec11decode_bitsEj
E0c:_cf2_doFlex
xkj:_AesManaged_GenerateIV_m1368817386
BL:__ZN4FMOD6System12createReverbEPPNS_6ReverbE
edk:__ZN6il2cpp2vm6String21InitializeEmptyStringEP11Il2CppClass
Wy:__ZN7mecanim19ValueArrayBlendNodeILb1EEEvRKNS_10ValueArrayERKNS_14ValueArrayMaskERS1_RS4_RNS_16ValueArrayWeightEf
G8a:__Z16MarkDependenciesR27GarbageCollectorThreadStatej
pdi:_ObjectPool_1_get_countInactive_m526975942_gshared
lkf:_RemotingServices_DisposeIdentity_m2605848806
fha:__ZNK9Transform11GetPositionEv
Kuf:_Bounds_set_size_m4127623202
TQg:_GuidParser_Reset_m2640004655
ezc:__ZN31CanvasBatchIntermediateRenderer11AddSubBatchERK16DrawBuffersRangePK19ShaderPropertySheet
rvc:__ZN19RenderEventsContextC2Ei
cX:__Z6simd4fRKf
Tk:_emscripten_glEnable
j0e:_InternalEnumerator_1_System_Collections_IEnumerator_get_Current_m2982675020_gshared
vva:__ZN10TagManager23VirtualRedirectTransferER14SafeBinaryRead
uEe:__ZL51RawImage_t3182918964_CustomAttributesCacheGeneratorP21CustomAttributesCache
Dea:__ZN14PlayableOutput26ClearInvalidSourcePlayableEv
S3b:__Z15InitLightMeshesv
JLd:_MonoCMethod_ToString_m3992577062
GYj:_RaycastHit_get_collider_m1464180279
RTa:__ZN15QualitySettings8TransferI19StreamedBinaryWriteILb0EEEEvRT_
jOc:__Z18Transfer_BlittableI9JSONWriteLb1E11ColorRGBA32EvRK29SerializationCommandArgumentsR31RuntimeSerializationCommandInfo
xQg:_SortKey_GetHashCode_m3547067087
STf:_LayoutUtility_U3CGetFlexibleHeightU3Em__7_m2991026842
g0c:_cf2_arrstack_init
dMi:_Array_InternalArray__get_Item_TisResourceCacheItem_t51292791_m1306056717_gshared
nvi:__Z157RuntimeInvoker_Void_t1185182177_RuntimeObject_RuntimeObject_RuntimeObject_RuntimeObject_RuntimeObject_RuntimeObject_RuntimeObject_RuntimeObject_RuntimeObjectPFvvEPK10MethodInfoPvPS4_
f2:__Z15CleanLogHandler7LogTypePKcz
xOe:_NumberFormatter_NumberToString_m2481532188
_hc:__ZN9ShaderLab19SerializedSubShader8TransferI19StreamedBinaryWriteILb0EEEEvRT_
DYf:_ScrollRect_InternalGetBounds_m599803667
Zra:__ZN9Scripting5Unity11Collections8LowLevel6Unsafe41NativeContainerIsAtomicWriteOnlyAttribute9InitProxyEv
VEb:__ZN6Camera17RemoveImageFilterERK11ImageFilter
Fmb:__ZNSt3__218__insertion_sort_3IR25ValueParameterArraySorterPN20GpuProgramParameters14ValueParameterEEEvT0_S6_T_
qfe:__ZL67EditorBrowsableAttribute_t1475454531_CustomAttributesCacheGeneratorP21CustomAttributesCache
JKg:_Comparer__cctor_m3311686689
N$e:_InternalEnumerator_1_get_Current_m3500427238_AdjustorThunk
ohd:__ZN2UI26InitializeDeviceForOverlayEi
B3:__Z27LogRepeatingStringWithFlagsRKN4core12basic_stringIcNS_20StringStorageDefaultIcEEEE15LogMessageFlagsi
wTh:_UInt64_System_IConvertible_ToSingle_m925613075
uch:_Enum_IsDefined_m1442314461
dNh:_Thread__cctor_m817723615
roj:_AudioExtensionManager_RegisterBuiltinDefinitions_m2742744104
iw:__ZN17AnimationPlayable28ComputeNeedsBindingRebuildedEv
nv:__ZN17AnimationPlayable23RequestAllocateBindingsEv
$lg:_DecoderReplacementFallbackBuffer_Fallback_m1261056214
sMe:_Binder_get_DefaultBinder_m950908649
TWg:_StreamReader__ctor_m1616861391
M5c:_tt_cmap6_char_index
Mmd:__ZN18UnityConnectClient33OnPlayerSessionStateChangedStaticEPS_jyy
Pbg:_RSA_ToXmlString_m2922661427
l_:__ZNK11UnityEngine15CloudWebService23WebRequestUploadHandler11GetProgressEv
NOb:__ZN7ApiGLES4LoadE16GfxDeviceLevelGL
bSa:__ZN4crnd12crn_unpacker22decode_color_endpointsEv
V5j:__ZN15dense_hashtableI10KeyWrapperIP18Il2CppGenericClassES3_N6il2cpp8metadata22Il2CppGenericClassHashEN14dense_hash_setIS3_S6_NS3_14EqualsComparerINS5_25Il2CppGenericClassCompareEEENSt3__29allocatorIS3_EEE8IdentityESA_SD_E15insert_noresizeERKS3_
Vwc:__ZZL31RegisterOtherRendererPropertiesR22GenericPropertyBindingEN30Wrapper_RendererReceiveShadows13GetFloatValueEPv
Bdh:_Array_InternalArray__ICollection_Contains_TisSlot_t384495010_m688761886_gshared
GRa:__ZN17SharedTextureDataC2E10MemLabelIdii13TextureFormatjiibb
$wi:__Z114RuntimeInvoker_RuntimeObject_RuntimeObject_Int32_t2950945753_Int32_t2950945753_Int32_t2950945753_Int32_t2950945753PFvvEPK10MethodInfoPvPS4_
YHb:__ZN8Material11SetPassFastEPN9ShaderLab4PassER17ShaderPassContextP6Shaderib
vmd:__ZN11UnityEngine7Connect20BasePersistentValues10SaveValuesER9JSONWrite
v3i:_Collection_1_IsFixedSize_m3748602684_gshared
s6g:_DateTime_System_IConvertible_ToDouble_m2116720007
_1f:_BitConverterLE_GetUIntBytes_m795219058
Bxf:_Display_GetSystemExtImpl_m2808197389
sOh:_WaitHandle_WaitOne_m2577152516
Ipf:_SByte_Parse_m2899090751
Aoa:__ZN9Scripting11UnityEngine20ManagedStreamHelpers12CleanupProxyEv
CXe:_ArrayReadOnlyList_1_GetEnumerator_m1835926958_gshared
EBc:__Z14ScaleCurveTimeR17AnimationCurveTplIfEf
aca:__ZN20GlobalCachingManager7DisposeEv
BZb:__Z12SetupLODFadeR9GfxDeviceR17ShaderPassContextf
dOa:__ZNK14PlayableOutput7GetTypeEv
PPc:__ZN9JSONWrite8TransferI13dynamic_arrayI4AABBLj0EEEEvRT_PKc17TransferMetaFlags
F3b:__ZL24CollectForwardObjectsJobP27CollectForwardObjectsHeader
PRc:__ZN8JSONRead21TransferSTLStyleArrayI13dynamic_arrayIdLj0EEEEvRT_17TransferMetaFlags
$5b:__Z13IsNodeVisibleRK9SceneNodeRK4AABBRK22SceneCullingParameters
Nih:_Array_InternalArray__IndexOf_TisLabelFixup_t858502054_m1491765395_gshared
ynh:_SortKeyBuffer_AppendCJKExtension_m2591091991
Pfd:__Z57RectTransformUtility_CUSTOM_INTERNAL_CALL_PixelAdjustRectP12Il2CppObjectS0_R5RectTIfE
JLh:_UTF8Encoding_GetByteCount_m4153686982
MBk:_emscripten_glStencilMask__wrapper
Wfi:__Z49RuntimeInvoker_Void_t1185182177_Double_t594665363PFvvEPK10MethodInfoPvPS4_
oGj:__ZN15dense_hashtableI10KeyWrapperIPK19Il2CppGenericMethodES4_N6il2cpp8metadata23Il2CppGenericMethodHashEN14dense_hash_setIS4_S7_NS4_14EqualsComparerINS6_26Il2CppGenericMethodCompareEEENSt3__29allocatorIS4_EEE8IdentityESB_SE_EC2ERKSH_j
eAa:__ZN15RenderNodeQueue7CleanupEv
vie:__ZL66RuntimePlatform_t4159857903_CustomAttributesCacheGenerator_XBOX360P21CustomAttributesCache
QVc:__ZN16NovodexAllocator8allocateEjPKcS1_i
$2b:__Z17PrepareShadowMapsRK11CullResultsRK11ActiveLightRK10MinMaxAABB
S7i:_DeriveBytes_DeriveIV_m973925711
cTg:_Int32_System_IConvertible_ToSByte_m3133688512
Hsd:__ZN9Scripting11UnityEngine12Experimental23SubsystemDescriptorBase9InitProxyEv
B3b:__ZN9ShaderLab10GrabPassesD2Ev
GPa:__ZN14Texture2DArray13UploadTextureEv
tUf:_MaskableGraphic_UpdateCull_m2805101913
c5c:_tt_cmap14_done
G6a:__ZN18AwakeFromLoadQueue25RegisterObjectInstanceIDsEv
vOf:_InputField_UpdateLabel_m1837760870
fEa:__ZN14VertexDataInfo12UpdateFormatEj17ShaderChannelMaskS0_RK19VertexStreamsLayoutRK20VertexChannelsLayout
iz:__ZNK27AnimationLayerMixerPlayable11DerivesFromE17ScriptingClassPtr
$Yc:__ZN20TextRenderingPrivate19NativeTextGenerator15InsertCharacterEiPj
mMe:_MonoType_get_attributes_m1332507727
oij:_GUIContent_ClearStaticCache_m1205116045
Bgg:_WindowsIdentity_Dispose_m3466258450
mmf:_BinaryCommon__cctor_m2978407547
n0:__GLOBAL__sub_I_Runtime_Burst_0_cpp
E1b:__Z19GetReflectionSampleRK23ReflectionProbesContextRK22ActiveReflectionProbesRK27PerObjectLightCullingOutputRK10RenderNodejP16ReflectionSample
Gwc:__ZN28ReflectionProbeAnchorManager23HandleAnchorDestructionEPK15TransformAccessj
vpd:__ZL65__ManagedRegistrationHelperFunction_UnityWebRequestAsyncOperationPv
Zbi:_IndexedSet_1__ctor_m2250384602_gshared
_Rh:_UInt16_TryParse_m4139137016
qEc:__Z41MonoBehaviour_Set_Custom_PropUseGUILayoutP12Il2CppObjecth
qna:__ZN9Scripting11UnityEngine15ResourceRequest12CleanupProxyEv
T9j:__ZN6il2cpp2gc16GarbageCollector9FreeFixedEPv
Fmg:_Encoding__ctor_m2997749867
jBf:_ManagedStreamHelpers_ManagedStreamSeek_m3158782053
Yej:_ExpressionAssertion_Compile_m2166597834
Dnb:__ZN16ScriptingManagerD0Ev
Phg:_Single_System_IConvertible_ToSByte_m1208276900_AdjustorThunk
Xdk:__ZN6il2cpp6icalls8mscorlib6System7Convert24InternalFromBase64StringEP12Il2CppStringb
j4j:__ZN30dense_hashtable_const_iteratorINSt3__24pairIK10KeyWrapperINS1_IPKcS4_EEEiEES6_24NamespaceAndNamePairHashN14dense_hash_mapIS6_iS9_NS6_14EqualsComparerI26NamespaceAndNamePairEqualsEENS0_9allocatorIS8_EEE9SelectKeyESD_SF_EppEv
SGc:__Z44Register_UnityEngine_Component_get_transformv
RE:__ZN12_GLOBAL__N_120ProcessPlayableGraphERN8Animator11AnimatorJobER35AnimationPlayableEvaluationConstantR32AnimationPlayableEvaluationInputR33AnimationPlayableEvaluationOutputPFvS4_R17AnimationPlayableEPFvS4_S6_S8_EPFvS8_S4_S6_S8_fESE_MS9_FvPS3_PS5_PS7_E
gyj:_CanvasRenderer_get_absoluteDepth_m2703237819
GQg:_TextInfo_ToLower_m2744057472
QUb:__ZN17ArchiveFileSystem12MountArchiveEPKcS1_
XEj:__ZN14dense_hash_mapI10KeyWrapperIP9FieldInfoEiN6il2cpp5utils11PointerHashIS1_EENS3_14EqualsComparerINSt3__28equal_toIS2_EEEENS9_9allocatorINS9_4pairIKS3_iEEEEE15set_deleted_keyERSF_
XAh:_EqualityComparer_1_System_Collections_IEqualityComparer_Equals_m3977314386_gshared
bOc:__Z18Transfer_BlittableI9JSONWriteLb1E8Vector4fEvRK29SerializationCommandArgumentsR31RuntimeSerializationCommandInfo
S5:__Z11RequireTypePKcS0_S0_
MMg:_CCGregorianCalendar_year_from_fixed_m463929682
Mbd:__ZN2UI13CanvasManagerD0Ev
t9f:_TlsServerHello_Update_m3935081401
ytf:_Debug_get_unityLogger_m2239795986
jYh:_ReadOnlyCollection_1_System_Collections_IEnumerable_GetEnumerator_m2123446296_gshared
J2f:_MD2Managed_Initialize_m2341076836
H2h:_ReadOnlyCollection_1_System_Collections_IList_Add_m4240023232_gshared
bjb:__ZN9GfxDevice15ImmediateVertexEfff
IVa:__ZNK16LightmapSettings22GetTypeVirtualInternalEv
hLb:__ZN13GfxDeviceGLES15SetStencilStateEPK18DeviceStencilStatei
eFg:_Buffer_BlockCopyInternal_m418318694
bok:_cycle
Ndk:__ZN6il2cpp2vm8Profiler7GCEventE13Il2CppGCEvent
Hhi:__Z76RuntimeInvoker_Void_t1185182177_RuntimeObject_RuntimeFieldHandle_t1871169219PFvvEPK10MethodInfoPvPS4_
Cd:_emscripten_glUniform1iv
Nlb:__ZN13ComputeShader14SetBufferParamEjRKN9ShaderLab16FastPropertyNameE15ComputeBufferIDb
BNh:_Thread_get_ManagedThreadId_m1068113671
Ufb:__ZN16MemoryFileSystemD2Ev
Yhi:__Z150RuntimeInvoker_Int32_t2950945753_RuntimeObject_Int32_t2950945753_Int32_t2950945753_RuntimeObject_Int32_t2950945753_Int32_t2950945753_Int32_t2950945753PFvvEPK10MethodInfoPvPS4_
fEg:_BitConverter_DoubleToInt64Bits_m3574395137
p1g:_DateTime_Parse_m3729096069
hQi:_List_1_System_Collections_IList_Add_m1540114404_gshared
mFa:__ZN16GraphicsSettings27SetLightsUseLinearIntensityEb
nFc:__Z37Register_UnityEngine_Camera_get_depthv
BKf:_StackTraceUtility_ExtractStringFromExceptionInternal_m2686726792
Qwc:__ZZN8Renderer15InitializeClassEvEN32FunctorImpl_146kCullSceneChanged4CallEPviR11MessageData
fJe:_StringReader_Read_m3322058819
URd:_CrossAppDomainChannel_get_ChannelPriority_m3418073750
pRf:_Selectable_StartColorTween_m3618813981
Ltd:_BaseInputModule_HandlePointerExitAndEnter_m1705532066
wcc:__Z23ConvertIntegerToTypePtrItEbPvR14SafeBinaryRead
qah:_Delegate_CombineImpl_m3572135514
Txc:__Z13RegisterClassI15EditorExtensionEvPKc
yOe:_NumberFormatter_IntegerToString_m1679294587
Q$h:_ReadOnlyCollection_1_System_Collections_IList_RemoveAt_m422909114_gshared
DF:__ZN7mecanim5human29HumanGetGoalOrientationOffsetENS0_4GoalE
Td:_emscripten_glStencilFunc
njc:__ZN9ShaderLab20SerializedSubProgram14AddMatrixParamEPKcii15ShaderParamTypei
_d:_glGetActiveUniformBlockName
rfj:_Parser_IsIgnoreCase_m2210120858
yJj:__ZN6il2cpp2vm13MetadataCache28GetGenericContainerFromIndexEi
u8a:__ZN27UnloadUnusedAssetsOperationD0Ev
mN:__ZN4FMOD7Channel20set3DConeOrientationEP11FMOD_VECTOR
mn:FUNCTION_TABLE_iiifii
cSe:_AssemblyBuilder_not_supported_m1735277432
L7j:__ZN6il2cpp2vm12GenericClass11SetupEventsEP11Il2CppClass
UZc:_ft_open_face_internal
A5c:_tt_cmap12_get_info
r3j:__ZN6il2cpp2vm15ReboxIReferenceEP14Il2CppIUnknownP11Il2CppClass
Hzj:__ZN6il2cpp6icalls8mscorlib6System7Decimal14decimalCompareEP19il2cpp_decimal_reprS5_
Sif:_Dictionary_2_OnDeserialization_m4209543208_gshared
vek:__ZThn4_N6il2cpp2vm13CachedCCWBaseINS0_13ManagedObjectEE7ReleaseEv
Ibg:_RNGCryptoServiceProvider_GetNonZeroBytes_m1918423726
mri:__Z100RuntimeInvoker_Void_t1185182177_RuntimeObject_Int32_t2950945753_Int32_t2950945753_UInt16_t2177724958PFvvEPK10MethodInfoPvPS4_
Ryk:_glCopyTexImage2D__wrapper
hIb:__Z18ClearByDrawingQuad13GfxClearFlagsRK10ColorRGBAffjR17ShaderPassContext
Pha:__ZN6prcoreL17RemapGenericFloatI14TexFormatRHalf15TexFormatRFloatEEvPKNS_9InnerInfoE
n1c:_cf2_getBlueValues
pli:__Z155RuntimeInvoker_Void_t1185182177_RuntimeObject_SByte_t1669577662_SByte_t1669577662_Int64U26_t200113976_ObjectU26_t2146539884_SerializationInfoU26_t419328957PFvvEPK10MethodInfoPvPS4_
wea:__ZN15DirectorManager21RebuildStageCallbacksEv
zIb:__ZN19RuntimeSceneManager9LoadSceneERKN4core12basic_stringIcNS0_20StringStorageDefaultIcEEEES6_S6_RK9UnityGUIDiNS_11LoadingModeE
Atf:_Application_Internal_ApplicationQuit_m2936209313
RNb:__ZN7ApiGLES10DrawArraysE16GfxPrimitiveTypejjj
gR:__ZN10SampleClip13LoadBaseSoundEv
Qzg:_SmallXmlParser_SkipWhitespaces_m4243606597
GNg:_CompareInfo_IndexOf_m2631915198
nrb:__ZN14SafeBinaryRead21TransferSTLStyleArrayI13dynamic_arrayI10Matrix4x4fLj0EEEEvRT_17TransferMetaFlags
IFg:_Byte_CompareTo_m4285128861
cvd:_TriggerEvent__ctor_m87299207
Msd:__ZN9Scripting11UnityEngine12Experimental27Internal_SubsystemInstances12CleanupProxyEv
CU:__Z57AudioSource_CUSTOM_INTERNAL_CALL_ClearExtensionPropertiesP12Il2CppObjectRK12PropertyName
E7j:__ZN15dense_hashtableINSt3__24pairIK10KeyWrapperIP12Il2CppObjectEN6il2cpp2gc9CachedCCWEEES5_NS7_5utils11PointerHashIS3_EEN14dense_hash_mapIS5_S9_SD_NS5_14EqualsComparerINS0_8equal_toIS4_EEEENS0_9allocatorISA_EEE9SelectKeyESI_SK_E15insert_noresizeERKSA_
kyh:_EqualityComparer_1__cctor_m3962593840_gshared
$Na:__ZN22DeviceMVPMatricesStateC2ER9GfxDevice
obg:_SslClientStream_Finalize_m1251363641
jZb:__ZNK6Camera32ResolveLastTargetToCurrentTargetEv
aKg:_Comparer_Compare_m3984347512
sVj:__ZN6il2cpp2vm10Reflection12HasAttributeEP9FieldInfoP11Il2CppClass
rpa:__ZN9Scripting11UnityEngine12Experimental9Rendering11CullResults9InitProxyEv
ec:invoke_viiifi
gsc:__Z13RegisterClassI6SpriteEvPKc
sNd:_MonoProperty_GetCustomAttributes_m3619796755
eWd:_MethodDictionary_System_Collections_IEnumerable_GetEnumerator_m4169036899
pPh:_TimeSpan_Subtract_m1264203589
qwh:_DefaultComparer_Equals_m3257444875_gshared
hf:_JS_Sound_SetPosition
TIa:__ZN19RenderBufferManager13GetTempBufferEii17DepthBufferFormat19RenderTextureFormatj22RenderTextureReadWrite14VRTextureUsagei23RenderTextureMemoryless
jJj:__ZL13GetSharedInstPK17Il2CppGenericInst
_Da:__Z27ConvertSubMeshesToTrianglesIjEvR13dynamic_arrayI7SubMeshLj0EERS0_IhLj0EE
qkd:__ZN22BaseUnityConnectClient17SaveSessionValuesEv
QZe:_InternalEnumerator_1_get_Current_m476140818_gshared
I3b:__Z24SetupActiveLightsContextR21ActiveLightingContextRK12ActiveLightsRK11CullResultsP14ShadowMapCacheRK10MinMaxAABB
qlc:__Z38Sprite_CUSTOM_INTERNAL_get_textureRectP12Il2CppObjectP5RectTIfE
eUj:__ZNK15dense_hashtableINSt3__24pairIK10KeyWrapperIPK22Il2CppGenericParameterEPK24MonoGenericParameterInfoEES6_N6il2cpp5utils11PointerHashIS4_EEN14dense_hash_mapIS6_SA_SF_NS6_14EqualsComparerINS0_8equal_toIS5_EEEENS0_9allocatorISB_EEE9SelectKeyESK_SM_E3endEv
Bnc:__ZN9TextAsset7SetTextERKN4core12basic_stringIcNS0_20StringStorageDefaultIcEEEE
Sya:__ZN6Camera8TransferI24GenerateTypeTreeTransferEEvRT_
Ga:invoke_iiiiiiif
Ea:invoke_iiiiiiii
LGi:_Array_InternalArray__set_Item_TisByte_t1134296376_m3104140039_gshared
LEc:__Z56Register_UnityEngine_MonoBehaviour_IsObjectMonoBehaviourv
WHf:_Rect_ToString_m447614148
u8i:_PKCS12_GetBytes_m415958948
wXb:__ZN8Renderer17PendingAddToSceneEv
NCk:b122
YCk:b125
UCk:b124
ZCk:b126
amc:__Z52Register_UnityEngine_RectTransform_INTERNAL_get_rectv
wCf:_Mesh_SetSizedArrayForChannel_m2565120436
C5:__Z21PostprocessStacktracePKcRN4core12basic_stringIcNS1_20StringStorageDefaultIcEEEE
kBf:_ManagedStreamHelpers_ManagedStreamLength_m2930872960
Mlc:__Z43RectTransform_CUSTOM_INTERNAL_get_anchorMinP12Il2CppObjectP13Vector2fIcall
e7i:_BasicConstraintsExtension_Encode_m2009213240
Koc:__Z47Register_UnityEngine_Camera_get_allCamerasCountv
vAd:___clang_call_terminate
ukd:__ZN22BaseUnityConnectClient20StartEventDispatcherEv
WAc:__ZNSt3__26vectorIj13stl_allocatorIjL18MemLabelIdentifier1ELi16EEE6assignIPKtEENS_9enable_ifIXaasr21__is_forward_iteratorIT_EE5valuesr16is_constructibleIjNS_15iterator_traitsIS9_E9referenceEEE5valueEvE4typeES9_S9_
gE:__ZN7mecanim9animation16EvaluateAvatarIKEPKNS0_14AvatarConstantEPKNS0_11AvatarInputEPNS0_12AvatarOutputEPNS0_12AvatarMemoryEPNS0_15AvatarWorkspaceEb
uA:__ZN26AnimatorControllerPlayable10GetIntegerEiRi
IWb:__ZN12InputManager13InputEndFrameEv
LCf:_Object_get_name_m4211327027
SYj:__ZN6il2cpp2vm6Thread5SetupEP12Il2CppThread
hbf:_Enumerator_System_Collections_IDictionaryEnumerator_get_Key_m2500634048_gshared
tQg:_SortKey_Compare_m1705990888
VAj:_NativeNameAttribute__ctor_m3296876808
gpk:___munmap
$f:_localtime_r
XXb:__ZN22RenderingCommandBuffer13GetAndCheckRTE24BuiltinRenderTextureTypeRKN9ShaderLab16FastPropertyNameEPKcPP13RenderTexture
d1:__Z19free_alloc_internalPv10MemLabelId
ot:__ZN9Scripting11UnityEngine10Animations18PositionConstraint9InitProxyEv
cg:_strftime
iJa:__ZN7Texture33SetStoredColorSpaceNoDirtyNoApplyE17TextureColorSpace
xPd:_ResourceSet__ctor_m3618395942
$8g:_Decimal_System_IConvertible_ToDouble_m3125524987_AdjustorThunk
paa:__ZN12FileAccessorD2Ev
nEa:__ZN14VertexDataInfoC2Ev
D9j:__ZN6il2cpp2gc16GarbageCollector14CollectALittleEv
wzc:__ZNK9HPlayable15GetPlayableTypeEv
xzb:__ZL17Transfer_GUIStyleI18StreamedBinaryReadILb1EELb1EEvRK29SerializationCommandArgumentsR31RuntimeSerializationCommandInfo
GVf:_RectMask2D_IsRaycastLocationValid_m1652308696
C3:__ZNSt3__26__treeINS_12__value_typeIPKciEENS_19__map_value_compareIS3_S4_15compare_tstringIS3_ELb1EEENS_9allocatorIS4_EEE21__emplace_unique_implIJNS_4pairIPciEEEEENSD_INS_15__tree_iteratorIS4_PNS_11__tree_nodeIS4_PvEEiEEbEEDpOT_
bNj:__ZN6il2cpp6icalls8mscorlib6SystemL9IsPrivateEPK12PropertyInfo
D8i:_X501_ToString_m1148552872
LIf:_RectTransform_add_reapplyDrivenProperties_m1374850920
Q4:__ZN9shadertag10InitializeEv
FWc:__GLOBAL__sub_I_Modules_Terrain_Public_1_cpp
OTa:__ZN15QualitySettings14QualitySetting8TransferI24GenerateTypeTreeTransferEEvRT_
FGc:__Z44Register_UnityEngine_Object_DestroyImmediatev
G4g:_Convert_ToSingle_m835189399
Kkc:__ZN22BlockMemoryCacheWriter14LockCacheBlockEjPPhS1_
UTh:_UInt64_ToString_m2177233542
Ks:__ZN9Scripting11UnityEngine21StateMachineBehaviour9InitProxyEv
ORc:__Z22TransferField_NonArrayI8JSONRead27Converter_SimpleNativeClassI8GUIStyleEEvRK23StaticTransferFieldInfoR31RuntimeSerializationCommandInfoRT0_
$pa:__ZN9Scripting11UnityEngine26ExcludeFromPresetAttribute9InitProxyEv
Jg:_llvm_eh_typeid_for
mlf:_RemotingServices_FindInterfaceMethod_m2125212568
HB:__ZNK23AnimationPlayableOutput7GetTypeEv
m_g:_StreamWriter__cctor_m1229272693
dch:_Enum_System_IConvertible_ToSByte_m779472798
WPh:_Type_get_IsInterface_m3284996719
OBb:__Z18Transfer_BlittableI18StreamedBinaryReadILb0EELb1E8Vector4fEvRK29SerializationCommandArgumentsR31RuntimeSerializationCommandInfo
YXc:__ZN14SafeBinaryRead21TransferSTLStyleArrayI13dynamic_arrayIN4core17string_with_labelILi35EEELj0EEEEvRT_17TransferMetaFlags
Dsj:__ZL25UnresolvedVirtualCall_142P12Il2CppObject17Color_t2555686324faaaPK10MethodInfo
bwh:_Dictionary_2_U3CCopyToU3Em__0_m2023886030_gshared
mBk:_glBindVertexArray__wrapper
hnf:_SerializationInfo__ctor_m2923079689
rMa:__ZN8Material8TransferI14SafeBinaryReadEEvRT_
IQa:__ZN12CubemapArray17UploadToGfxDeviceEv
wSg:_Int32_JumpOverWhite_m208298144
XAi:__Z53RuntimeInvoker_Int32_t2950945753_UIVertex_t4057497605PFvvEPK10MethodInfoPvPS4_
nAk:_emscripten_glGetUniformiv__wrapper
oek:__ZN6il2cpp2vm13ManagedObject14QueryInterfaceERK10Il2CppGuidPPv
VN:__ZN11AudioSource4StopEb
Knk:_frexp
Nok:_fscanf
dnb:__ZN18GlslGpuProgramGLESD2Ev
Y9b:__ZN13RenderTexture14SetVolumeDepthEi
IY:__ZN11UnityEngine15CloudWebService14DataErrorEvent12ToJsonStringERN4core12basic_stringIcNS2_20StringStorageDefaultIcEEEEjPKc
Eqi:__Z86RuntimeInvoker_Void_t1185182177_UInt16_t2177724958_SByte_t1669577662_SByte_t1669577662PFvvEPK10MethodInfoPvPS4_
ajc:__Z22LoadGpuProgramFromDataPKhS0_Rj
sSc:__ZN10Matrix4x4f8TransferI8JSONReadEEvRT_
pVf:_PositionAsUV1_ModifyMesh_m4231919476
cLg:_Hashtable__ctor_m1941859523
a1b:__Z26FindForwardLightsForObjectR13dynamic_arrayIhLj0EEPK11CulledLightjRK12ActiveLightsRK10RenderNodePK19ShaderPropertySheetbRK23FindForwardLightsParamsf
bma:__ZL44__ManagedRegistrationHelperFunction_GPUFencePv
lYf:_ScrollRect_set_horizontalScrollbarSpacing_m2209919081
TRb:__ZN25TransformFeedbackSkinning31CleanupTransformFeedbackShadersEv
sQh:_Type_GetTypeCodeInternal_m1968182887
zza:__Z22scripting_object_unbox18ScriptingObjectPtr
bZc:__ZNK20TextRenderingPrivate8FontImpl19GetCharacterAdvanceEjijfPj
skh:_Array_InternalArray__ICollection_Add_TisUriScheme_t722425697_m3142345403_gshared
Enk:_fmt_u
QXa:__ZN10VertexData8TransferI18StreamedBinaryReadILb0EEEEvRT_
Gmk:__ZN6il2cpp8metadata25Il2CppGenericClassCompare7CompareEPK18Il2CppGenericClassS4_
lgd:__ZN2UI29ResetVRScreenSpaceWarningFlagEv
UMe:_MonoType_get_Assembly_m4290914179
Ljc:__ZN9ShaderLab7ProgramC2E10MemLabelIdi10ShaderType
Hra:__ZN9Scripting5Unity11Collections8LowLevel6Unsafe29NativeSetThreadIndexAttribute9InitProxyEv
Axa:__ZN12BaseRendererD2Ev
Anc:__ZNSt3__26vectorI4PPtrI10MonoScriptE13stl_allocatorIS3_L18MemLabelIdentifier79ELi16EEE6insertENS_11__wrap_iterIPKS3_EERS9_
Qjg:_String_LastIndexOf_m95398196
HHi:_Array_InternalArray__set_Item_TisUILineInfo_t4195266810_m2313892078_gshared
tdc:__ZNK21UnityDefaultAllocatorI17LowLevelAllocatorE8ContainsEPKv
Vof:_RuntimeTypeHandle_Equals_m2857439487
Th:_emscripten_get_main_loop_timing
UQd:_SafeHandle_Finalize_m3866180675
NTa:__ZN24GenerateTypeTreeTransfer21TransferSTLStyleArrayINSt3__26vectorIN15QualitySettings14QualitySettingENS1_9allocatorIS4_EEEEEEvRT_17TransferMetaFlags
VYg:_MemoryStream_ToArray_m3911744835
Iaf:_Enumerator_System_Collections_IDictionaryEnumerator_get_Entry_m859540448_AdjustorThunk
k9b:__ZN23ManagedAttributeManager52CallManagedGetParentTypeDisallowingMultipleInclusionE17ScriptingClassPtr
N1a:__Z10AddGUIAxesR13dynamic_arrayI9InputAxisLj0EE
zQh:_Type_GetHashCode_m1947148725
Nli:__Z91RuntimeInvoker_Void_t1185182177_RuntimeObject_RuntimeObject_RuntimeObject_SByte_t1669577662PFvvEPK10MethodInfoPvPS4_
Q9a:__ZNK2UI13RectTransform22GetTypeVirtualInternalEv
cp:getTempRet0
dud:_BaseRaycaster_OnEnable_m2678466030
Myf:_UnityEventBase__ctor_m1851535676
MJi:_Array_Sort_TisVector4_t3319028937_m2797285308_gshared
H8f:_HandshakeMessage_Update_m2417837686
X$j:__ZN6il2cpp6icalls8mscorlib6System9ThreadingL21lookup_cached_cultureEP12Il2CppThreadi
hyf:_NetFxCoreExtensions_CreateDelegate_m751211712
F4b:__ZN18DeferredRenderLoopD2Ev
Kyj:_AnimationLayerMixerPlayable__cctor_m4086299972
Asa:__ZNK16TypeTreeIterator4NameEv
P9:__ZN15FileSystemEntry3SetEPKc
zSe:_ConstructorBuilder_Invoke_m3010446651
Fpc:__Z52Register_UnityEngine_Application_set_targetFrameRatev
Upg:_IPv6Address_set_ScopeId_m3907190992
GYh:_ReadOnlyCollection_1_System_Collections_Generic_IListU3CTU3E_Insert_m568455025_gshared
VM:__ZN20SoundChannelInstance15ParameterBuffer5ApplyEPN4FMOD7ChannelE
Ipg:_IPv6Address__ctor_m4117281080
a4g:_Convert_ToInt64_m2075293963
_Yc:__ZN20TextRenderingPrivate19NativeTextGenerator9InsertTabEv
Xrk:_sbrk
yuf:_Bounds_GetHashCode_m1844059663
XK:__ZL49__ManagedRegistrationHelperFunction_AudioSettingsPv
Qld:__ZN11UnityEngine15PlatformWrapper24GetRuntimePlatformStringEv
Di:_glIsEnabled
hSe:_DerivedType__ctor_m1853298054
$pb:__Z25scripting_class_get_image17ScriptingClassPtr
Qgg:_SecurityException__ctor_m836898292
iJh:_List_1_RemoveAt_m2730968292_gshared
v4a:__ZNSt3__26vectorIN4core12basic_stringIcNS1_20StringStorageDefaultIcEEEE13stl_allocatorIS5_L18MemLabelIdentifier13ELi16EEEC2INS_11__wrap_iterIPS5_EEEET_SE_RKS8_PNS_9enable_ifIXaasr21__is_forward_iteratorISE_EE5valuesr16is_constructibleIS5_NS_15iterator_traitsISE_E9referenceEEE5valueEvE4typeE
Hi:_emscripten_glDrawElementsInstanced
qA:__ZN26AnimatorControllerPlayable27SetupStateMachineBehavioursEv
Lie:__ZL79Camera_t4157153871_CustomAttributesCacheGenerator_Camera_RaycastTry_m3913529496P21CustomAttributesCache
DSf:_LayoutGroup_get_preferredWidth_m3816902260
ZHa:__ZN18JobBatchDispatcherD2Ev
L9a:__ZN9Transform17MainThreadCleanupEv
chk:_GC_clear_hdr_marks
hCk:_emscripten_glCreateShader__wrapper
F$c:_cff_fd_select_get
t$f:_Text_set_resizeTextForBestFit_m4095249125
yod:__ZN11UnityEngine15PlatformWrapper23GetApplicationBuildGUIDEv
Rrg:_OidEnumerator_MoveNext_m3138911739
Gzi:__Z53RuntimeInvoker_Boolean_t97287965_Keyframe_t4206410242PFvvEPK10MethodInfoPvPS4_
Si:_emscripten_glGetShaderiv
mO:__ZN4FMOD6System10getVersionEPj
Fcd:__ZN2UI6Canvas23VirtualRedirectTransferER24GenerateTypeTreeTransfer
CZf:_Selectable_set_animationTriggers_m2970345687
WPc:__ZN9JSONWrite8TransferIN4math12int2_storageEEEvRT_PKc17TransferMetaFlags
KXc:__ZN13TextRendering4Font13AwakeFromLoadE17AwakeFromLoadMode
MNg:_CompareInfo_LastIndexOf_m2688553706
Zhb:__ZN9GfxDevice21ReleaseSharedMeshDataEP14SharedMeshData
Vwd:_MouseState__ctor_m1467839005
hgj:_Uri_IsDomainAddress_m2867513594
w3a:__ZNSt3__27__sort5IRNS_6__lessINS_4pairIPKN5Unity4TypeE7Hash128EES8_EEPS8_EEjT0_SC_SC_SC_SC_T_
VDd:_Dropdown_CreateItem_m2954407740
Xih:_Array_InternalArray__IndexOf_TisSingle_t1397266774_m2563096608_gshared
jgk:_GC_unreachable_finalize_mark_proc
QFf:_PlayerConnectionInternal_PollInternal_m3759016321
mtg:_X509Chain_ProcessCrlExtensions_m236234529
Hhk:_maybe_finalize
NDj:__ZN6il2cpp2vm5Class40GetInterfaceInvokeDataFromVTableSlowPathEPK12Il2CppObjectPK11Il2CppClassj
Plc:__Z43RectTransform_CUSTOM_INTERNAL_get_anchorMaxP12Il2CppObjectP13Vector2fIcall
Pwj:_TextGenerator_INTERNAL_CALL_Populate_Internal_cpp_m4171649399
Wkf:_RemotingConfiguration_RegisterChannelTemplate_m3105688054
t2g:_Decimal_Parse_m942471224
YBa:__ZN8Material28UpdateHashesOnPropertyChangeEN9ShaderLab16FastPropertyNameE
zoc:__Z53Register_UnityEngine_SortingLayer_GetLayerValueFromIDv
U1f:_ASN1_GetBytes_m1968380955
Uob:__Z18Transfer_BlittableI14SafeBinaryReadLb1E8Vector4fEvRK29SerializationCommandArgumentsR31RuntimeSerializationCommandInfo
Nrd:__ZN13RuntimeStaticINSt3__26vectorI23UnityVRDeviceDefinition13stl_allocatorIS2_L18MemLabelIdentifier90ELi16EEEELb0EE13StaticDestroyEPv
uQ:__ZN11AudioSource12AddToManagerEv
Xu:__ZN8Animator23VirtualRedirectTransferER19StreamedBinaryWriteILb0EE
bC:__ZN11UnityEngine9Animation32CreateAnimatorGenericBindingsOptERKNS0_20AnimationSetBindingsER9TransformPKN7mecanim9animation14AvatarConstantEPKNS0_21AvatarBindingConstantEbRNS6_6memory9AllocatorER8Animator
o4j:__ZN6il2cpp2vm5Image13ClassFromNameEPK11Il2CppImagePKcS6_
Ask:dynCall_vdddddd
ihc:__ZN24GenerateTypeTreeTransfer21TransferSTLStyleArrayINSt3__26vectorIN9ShaderLab14SerializedPassENS1_9allocatorIS4_EEEEEEvRT_17TransferMetaFlags
q5:__ZL32MarkLevelGameManagerDependenciesR27GarbageCollectorThreadState
ZMb:__ZNK13GfxDeviceGLES26HasActiveRandomWriteTargetEv
V_d:__ZL54_MemberInfo_t3922476713_CustomAttributesCacheGeneratorP21CustomAttributesCache
cxk:_glGetActiveUniformsiv__wrapper
FMa:__ZN14SafeBinaryRead8TransferINSt3__24pairIN9ShaderLab16FastPropertyNameE10ColorRGBAfEEEEvRT_PKc17TransferMetaFlags
QCf:_Mesh_GetIndices_m2873123901
L7:__ZN13MonoBehaviour19SetupScriptingCacheE17ScriptingClassPtrP10MonoScript
lF:__Z20AnimationEventToMonoRK14AnimationEventR18MonoAnimationEvent
Pwc:__ZZN8Renderer15InitializeClassEvEN28FunctorImpl_145kLayerChanged4CallEPviR11MessageData
Jwd:_PointerEventData_get_dragging_m746831934
G2h:_ReadOnlyCollection_1_System_Collections_IEnumerable_GetEnumerator_m2781605075_gshared
kpa:__ZN9Scripting11UnityEngine12Experimental9Rendering15ShadowSplitData12CleanupProxyEv
gea:__ZZN15DirectorManager15InitializeClassEvEN52PreLateUpdateDirectorUpdateAnimationBeginRegistrator7ForwardEv
cdh:_Array_get_swapper_TisCustomAttributeNamedArgument_t287865710_m4254011335_gshared
_Fd:_Graphic_RegisterDirtyMaterialCallback_m106898453
tij:_GUILayoutEntry_get_margin_m3174861737
S3j:__ZNK15dense_hashtableINSt3__24pairIK10KeyWrapperINS1_IPKcS4_EEEiEES6_24NamespaceAndNamePairHashN14dense_hash_mapIS6_iS9_NS6_14EqualsComparerI26NamespaceAndNamePairEqualsEENS0_9allocatorIS8_EEE9SelectKeyESD_SF_E13find_positionERS7_
zgc:__ZNSt3__26vectorIN9ShaderLab14SerializedPassENS_9allocatorIS2_EEE8__appendEj
Ofc:__ZNSt3__26vectorIN9ShaderLab20SerializedSubProgram13BufferBindingENS_9allocatorIS3_EEEC2INS_11__wrap_iterIPS3_EEEET_SB_RKS5_PNS_9enable_ifIXaasr21__is_forward_iteratorISB_EE5valuesr16is_constructibleIS3_NS_15iterator_traitsISB_E9referenceEEE5valueEvE4typeE
Jkg:_Encoding_get_ISOLatin1_m2107621369
h1f:_BigInteger_op_Inequality_m2697143438
Zje:__ZL89Mathf_t3464937446_CustomAttributesCacheGenerator_Mathf_SmoothDamp_m394423605____maxSpeed4P21CustomAttributesCache
mGb:__ZNK25PathNamePersistentManager30PathIDToFileIdentifierInternalEi
TSa:__ZN9Texture2D23VirtualRedirectTransferER18StreamedBinaryReadILb0EE
t6g:_DateTime_System_IConvertible_ToDouble_m2116720007_AdjustorThunk
RJg:_BitArrayEnumerator__ctor_m2359341397
OEh:_Enumerator_MoveNext_m1177880931_gshared
Bte:__ZL73g_UnityEngine_TextRenderingModule_Assembly_CustomAttributesCacheGeneratorP21CustomAttributesCache
q8:__ZN16ScriptingManager27NativeTypeForScriptingClassE17ScriptingClassPtr
iTh:_UInt64_System_IConvertible_ToDateTime_m3434604642
eQh:_Type_get_IsSerializable_m1040556850
m4c:_get_sfnt_table
Jcj:_Parser_ResolveReferences_m1518052352
DUa:__ZN8Renderer20RendererAddedToSceneEv
h6b:__ZL22ScheduleSceneNodesJobsP25ScheduleSceneNodesJobDataj
Kk:_emscripten_set_canvas_size
lNa:__ZN18StreamedBinaryReadILb0EE19TransferSTLStyleMapINSt3__23mapIN9ShaderLab16FastPropertyNameEfNS2_4lessIS5_EENS2_9allocatorINS2_4pairIKS5_fEEEEEEEEvRT_17TransferMetaFlags
bFd:_Graphic_SetVerticesDirty_m2124914069
PNg:_CultureInfo__ctor_m3285927757
sUf:_MaskableGraphic_get_rootCanvasRect_m3492154629
hVc:__ZN9Scripting11UnityEngine9Physics2D9InitProxyEv
DIi:_Array_Resize_TisRaycastResult_t3360306849_m1811054291_gshared
ivc:__ZN12MeshRenderer27PrepareSingleRendererUpdateER13RendererSceneRS_10MemLabelId
fgc:__ZNSt3__26vectorIN9ShaderLab20SerializedSubProgramENS_9allocatorIS2_EEE8__appendEj
q1:__ZN20DynamicHeapAllocatorI17LowLevelAllocatorE8AllocateEji
iid:__ZN11UnityEngine9Analytics15UserCustomEvent12ToJsonStringER9JSONWrite
Rjj:_Locale_GetText_m2427493201
k_b:__ZN20DynamicPropertySheet15SetVectorQueuedERKN9ShaderLab16FastPropertyNameERK8Vector4fN19ShaderPropertySheet8SetFlagsE
rD:__ZN7mecanim9animation22EvaluateAvatarRetargetEPKNS0_14AvatarConstantEPKNS0_11AvatarInputEPNS0_12AvatarOutputEPNS0_12AvatarMemoryEPNS0_15AvatarWorkspaceEb
QGa:__ZN14RenderSettings23VirtualRedirectTransferER19StreamedBinaryWriteILb0EE
sOc:__ZL26Transfer_SimpleNativeClassI9JSONWrite10RectOffsetLb0EEvRK29SerializationCommandArgumentsR31RuntimeSerializationCommandInfo
Dgk:_GC_push_conditional
$hd:__ZN21UnityAnalyticsManager23VirtualRedirectTransferER24GenerateTypeTreeTransfer
u_a:__ZN17GenericDynamicVBO10AllocateVBEjR21DynamicVBOChunkHandle
D8g:_DBNull_ToString_m3638608738
I5j:__ZN30dense_hashtable_const_iteratorI10KeyWrapperIP18Il2CppGenericClassES3_N6il2cpp8metadata22Il2CppGenericClassHashEN14dense_hash_setIS3_S6_NS3_14EqualsComparerINS5_25Il2CppGenericClassCompareEEENSt3__29allocatorIS3_EEE8IdentityESA_SD_EppEv
OJg:_BitArray_Clone_m3537018332
Lmf:_ObjectRecord_UnchainFixup_m3191243952
B6i:_TlsStream_get_CanWrite_m16389328
Ufd:__Z15GetUIModuleSpecv
wXc:__ZN9Scripting11UnityEngine8UIVertex9InitProxyEv
hl:_glMapBufferRange
LSa:__ZN9Texture2D8TransferI18StreamedBinaryReadILb0EEEEvRT_
hrc:__Z31Input_CUSTOM_GetMouseButtonDowni
Lzc:__ZN13PlayableGraph4PlayEv
wab:__ZNK9Transform16GetLocalPositionEv
XMe:_MonoType_get_BaseType_m1098640416
D5a:__ZN13LoadOperation19IntegrateTimeSlicedEi
U6i:_TlsStream_Read_m3392972801
hNb:__ZN13GfxDeviceGLES22DispatchComputeProgramE12ObjectHandleI18ComputeProgram_TagPvE15ComputeBufferIDj
VIf:_Transform_get_localToWorldMatrix_m4155710351
HJh:_Latin1Encoding_GetString_m254210343
F7a:__Z17TransformAABBSlowRK4AABBRK10Matrix4x4fRS_
$Cg:_Array_combsort_m4052486289
yGg:_Char_System_IConvertible_ToUInt16_m2449138174
jP:__ZN24AudioScriptBufferManager27InitialCompleteDomainReloadEv
Fec:__ZN9ShaderLab21SerializedShaderState8TransferI14SafeBinaryReadEEvRT_
Vch:_Environment_GetWindowsFolderPath_m1738399646
F0c:_cf2_stack_pushInt
jD:__ZN8Animator19FireAnimationEventsERNS_11AnimatorJobE
hLd:_Module_GetCustomAttributes_m76573271
pqf:_CryptoConfig_EncodeOID_m2635914623
gNa:__ZN15SerializeTraitsINSt3__24pairIN4core12basic_stringIcNS2_20StringStorageDefaultIcEEEES6_EEE8TransferI24GenerateTypeTreeTransferEEvRS7_RT_
LAk:b89
KAk:b88
lzk:b81
kzk:b80
tSb:__ZN7ApiGLES19CreateSparseTextureEjj14GraphicsFormatiiiiRiS1_S1_
e9:__ZN18ResourceImageGroup7CleanupEv
yzk:b85
xzk:b84
JAk:b87
Ykg:_String_CharCopy_m3838781968
VWd:_RemotingSurrogateSelector_GetSurrogate_m3900875713
P4f:_CertificateValidationCallback_Invoke_m1014111289
GIa:__ZN8Playable19SetOutputConnectionEPS_i
HCa:__Z20RenderMultipleMeshesRK15RenderNodeQueueRK18RenderMultipleData16VertexInputMasks
Xl:_glDeleteShader
Xha:__ZN6prcoreL17RemapGenericFloatI15TexFormatRGHalf16TexFormatRGFloatEEvPKNS_9InnerInfoE
xJi:_Array_Sort_TisUICharInfo_t75501106_m128665067_gshared
S2c:_otv_GSUB_validate
qcg:_RSAPKCS1SignatureDeformatter_SetHashAlgorithm_m1602190713
Xbh:_Enum_System_IConvertible_ToByte_m1219166845
Hif:_Dictionary_2_CopyToCheck_m45332585_gshared
Sjc:__Z27scripting_add_internal_callPKcPKv
MUj:__ZN13Il2CppHashMapINSt3__24pairIPK9EventInfoP11Il2CppClassEEj17ReflectionMapHashIS7_ENS0_8equal_toIS7_EENS0_9allocatorINS1_IK10KeyWrapperIS7_EjEEEEEC2EjRKS9_RKSB_
CAf:_Input_get_inputString_m1307069105
MIc:__ZN9Scripting11UnityEngine3GUI9InitProxyEv
Qaf:_Enumerator_MoveNext_m1556953412_AdjustorThunk
rv:__ZN26AnimatorControllerPlayable18SetLayerAutoWeightEv
ced:__Z44Register_UnityEngine_Canvas_get_pixelPerfectv
gfj:_Literal_GetAnchorInfo_m810577400
hhd:__ZN2UI14CanvasRenderer12SyncMaterialENS0_8SyncFlagE
x_g:_StreamWriter_Write_m1660535366
Dkk:__ZN6il2cpp2vm9Parameter30GetDefaultParameterValueObjectEPK10MethodInfoPK13ParameterInfoPb
ILh:_UTF8Encoding_GetByteCount_m4152118078
Mrh:_KeyPairPersistence__CanSecure_m3516574278
rc:invoke_iiiiiiiii
wmi:__Z95RuntimeInvoker_Void_t1185182177_RuntimeObject_RuntimeObject_Int32_t2950945753_SByte_t1669577662PFvvEPK10MethodInfoPvPS4_
Psf:_MD5CryptoServiceProvider_Dispose_m3502499818
X0i:_Collection_1_System_Collections_IList_get_Item_m2422562729_gshared
EHa:__ZN12LightManager28IsLightTransformDataUpToDateEPK5Light
_4c:_UNITY_tt_face_done_kern
GXe:_ArrayReadOnlyList_1_RemoveAt_m2104218585_gshared
GXa:__ZN12BoneWeights48TransferI24GenerateTypeTreeTransferEEvRT_
$ka:__ZL49__ManagedRegistrationHelperFunction_PreLateUpdatePv
cHb:__Z19scripting_gc_enablev
S4e:_InternalEnumerator_1_get_Current_m2907722321_gshared
AVb:__ZZ23InitPlayerLoopCallbacksvEN41InitializationPlayerUpdateTimeRegistrator7ForwardEv
uCc:__ZN11UTF16StringC2ERKS_10MemLabelId
b6e:_InternalEnumerator_1_get_Current_m3792939945_AdjustorThunk
rfd:__Z55Register_UnityEngine_CanvasRenderer_DisableRectClippingv
tt:__ZN9Scripting11UnityEngine10Animations16ConstraintSource12CleanupProxyEv
qPh:_TimeSpan_Subtract_m1264203589_AdjustorThunk
x$e:_InternalEnumerator_1_System_Collections_IEnumerator_get_Current_m888718134_gshared
rii:__Z175RuntimeInvoker_Void_t1185182177_SByte_t1669577662_SByte_t1669577662_SByte_t1669577662_SByte_t1669577662_SByte_t1669577662_SByte_t1669577662_SByte_t1669577662_SByte_t1669577662PFvvEPK10MethodInfoPvPS4_
Ghh:_Array_compare_TisRaycastResult_t3360306849_m822404090_gshared
DEf:_Object_Destroy_m3118546832
gYh:_ReadOnlyCollection_1_System_Collections_Generic_IListU3CTU3E_set_Item_m519295790_gshared
R6g:_DateTime_FromTicks_m4059645178_AdjustorThunk
CLi:_Array_InternalArray__get_Item_TisClientCertificateType_t1004704908_m2297379651_gshared
KSd:_ConfigHandler_ParseTime_m1787834288
Uic:__ZN9ShaderLab7Program27CreateFromSerializedProgramERKNS_17SerializedProgramE10ShaderTypeiP16PropertyNamesSetPK6Shader
$eh:_Array_InternalArray__ICollection_Remove_TisX509ChainStatus_t133602714_m3635989134_gshared
AQe:_Assembly_Load_m3487507613
AK:__ZNSt3__27__sort4IRNS_6__lessIN4core12basic_stringIcNS2_20StringStorageDefaultIcEEEES6_EEPS6_EEjT0_SA_SA_SA_T_
btk:dynCall_viiiifii
oTj:__ZN6il2cpp2gc19AppendOnlyGCHashMapINSt3__24pairIPK11Il2CppImageP11Il2CppClassEEP22Il2CppReflectionModule17ReflectionMapHashIS9_ENS2_8equal_toIS9_EEEC2Ev
w6:__Z20GetPersistentManagerv
i8c:_UNITY_TT_Set_Var_Design
O2:__ZN21SystemInfoStringCache16StaticInitializeEPv
fog:_NameObjectCollectionBase_FindFirstMatchedItem_m840305173
HYh:_ReadOnlyCollection_1_System_Collections_Generic_ICollectionU3CTU3E_Remove_m1100818788_gshared
Ifc:__ZNSt3__26vectorIN9ShaderLab20SerializedSubProgram15StructParameterENS_9allocatorIS3_EEE6assignIPS3_EENS_9enable_ifIXaasr21__is_forward_iteratorIT_EE5valuesr16is_constructibleIS3_NS_15iterator_traitsISA_E9referenceEEE5valueEvE4typeESA_SA_
lXh:_Collection_1_IsSynchronized_m2291009199_gshared
zjd:__ZN9Scripting11UnityEngine9Analytics21AnalyticsSessionState12CleanupProxyEv
DEb:__ZNK13MonoBehaviour7GetNameEv
M8a:__ZN19ScriptingInvocation28AdjustArgumentsToMatchMethodEv
eci:_IndexedSet_1_Contains_m1525966688_gshared
vM:__Z15_CheckFMODError11FMOD_RESULTPKciS1_
O0j:__ZN6il2cpp6icalls8mscorlib6SystemL16ThrowInvalidCastEPK11Il2CppClassS5_
$rf:_HMAC_KeySetup_m661741544
c5j:__ZN6il2cpp2vm5Field11SetValueRawEPK10Il2CppTypePvS5_b
vJh:_Latin1Encoding__ctor_m498920120
tWj:__ZN6il2cpp2vm4Type19GetGenericParameterEPK10Il2CppType
_Zg:_StreamReader_Peek_m2272511193
gPg:_DateTimeFormatInfo_FillAllDateTimePatterns_m2683124783
Aed:__Z51Register_UnityEngine_CanvasGroup_get_blocksRaycastsv
lOe:_NumberFormatter_get_IsFloatingSource_m3714711779
PQh:_Type_GetConstructor_m1195697116
rd:_glBeginQuery
lla:__ZL48__ManagedRegistrationHelperFunction_VisibleLightPv
dxj:_Canvas_get_scaleFactor_m3314757802
pXb:__ZN6Camera12RenderStereoENS_10RenderFlagE8CullFlagPNS_24PerformEyeRenderFunctionE
vcb:__ZN20LocalFileSystemPosix10ToAbsoluteEPKc
iGa:__ZN20TierGraphicsSettings8TransferI19StreamedBinaryWriteILb0EEEEvRT_
CCk:b111
L7a:__Z23CollectSceneGameObjectsR13dynamic_arrayIiLj0EE
Adk:__ZN6il2cpp2vm13ComObjectBase16DisconnectObjectEj
Cm:f0
Eok:_getcwd
Tua:__ZN25ThreadsafeLinearAllocatorD2Ev
L6a:__Z21SendMessageToEveryoneRK17MessageIdentifier11MessageData
Kca:__ZN21BillboardBatchManager16StaticInitializeEPv
Y1g:_DateTime_AbsoluteDays_m4235097773
j4:__ZN12_GLOBAL__N_138ArchiveRedirectFileSystemStaticDestroyEPv
Cdi:__Z74RuntimeInvoker_RuntimeObject_RuntimeObject_RuntimeObject_SByte_t1669577662PFvvEPK10MethodInfoPvPS4_
VCd:_DefaultControls_CreateScrollView_m3842770629
bVc:__ZL55__ManagedRegistrationHelperFunction_PhysicsJobOptions2DPv
FQa:__ZN12CubemapArray34UpdateFileTextureUploadInstructionEP26FileAssetUploadInstructionj
sSb:__Z23CreateSparseTextureGLES9TextureIDii14GraphicsFormati
y3c:_otv_Anchor_validate
SR:__ZN13dynamic_arrayI12SoundChannelLj0EE9push_backERKS0_
uJg:_SynchronizedArrayListWrapper_CopyTo_m4207791406
IMg:_CCMath_mod_m3631663509
oPh:_TimeSpan_Negate_m1889505500_AdjustorThunk
m0h:_ReadOnlyCollection_1_System_Collections_ICollection_CopyTo_m2715087453_gshared
Vfb:__ZN16MemoryFileSystemD0Ev
Jmd:__ZN11UnityEngine7Connect20RemoteConfigSettings7SetJSONER8JSONReadb
zXj:_il2cpp_class_get_assemblyname
pCj:__ZN6il2cpp2vm5Class15GetEnumBaseTypeEP11Il2CppClass
a8f:_Context_set_WriteSequenceNumber_m942577065
Wd:_glVertexAttrib4fv
jug:_X509CertificateEnumerator_Reset_m4026698923
Wdk:__ZNK6il2cpp5utils13VmStringUtils23CaseInsensitiveComparerclERKNSt3__212basic_stringIcNS3_11char_traitsIcEENS3_9allocatorIcEEEEPKc
bAd:_CanvasScaler_SetScaleFactor_m3006968999
TEi:__Z78RuntimeInvoker_Boolean_t97287965_Navigation_t3049316579_Navigation_t3049316579PFvvEPK10MethodInfoPvPS4_
eRa:__ZNK9Texture2D16GetNpotTexelSizeEv
$Ne:_NumberFormatter_Init_m3576155222
tdb:__ZL33FileEntryInfoListToFolderContentsRKN4core12basic_stringIcNS_20StringStorageDefaultIcEEEERK19dynamic_block_arrayI13FileEntryInfoLj32EERNSt3__23setIS3_NSB_4lessIS3_EENSB_9allocatorIS3_EEEE
DTf:_LayoutUtility_GetLayoutProperty_m714717302
Yvj:_Terminal_NotifyCommandHandlers_m909296863
Mhb:__ZN9GfxDevice22GetDefaultVertexBufferE26GfxDefaultVertexBufferTypej
Hdh:_Array_InternalArray__ICollection_Contains_TisInt64_t3736567304_m2911357929_gshared
jIb:__Z17BeginSplashScreenb
h1i:_Collection_1_Remove_m3022471627_gshared
Wok:___fseeko_unlocked
Opa:__ZN9Scripting11UnityEngine12Experimental9Playables21TexturePlayableOutput12CleanupProxyEv
APe:_Object_ToString_m1740002499
Ook:_sscanf
Kvd:_ExecuteEvents_GetEventChain_m2404658789
HIi:_Array_Resize_TisUILineInfo_t4195266810_m3763058392_gshared
Lpf:_SByte_ToString_m3584531119_AdjustorThunk
Xhc:__ZN9ShaderLab16SerializedShader8TransferI19StreamedBinaryWriteILb0EEEEvRT_
xmj:_TrackableProperty_GetHashCode_m3407865350
ku:__ZN7mecanim9animation18CreateAvatarMemoryEPKNS0_14AvatarConstantERNS_6memory9AllocatorE
H0f:_ModulusRing__ctor_m2420310199
b2g:_Convert_ToDateTime_m626620011
jbf:_Enumerator_System_Collections_IDictionaryEnumerator_get_Key_m2500634048_AdjustorThunk
BE:__ZN7mecanim8skeleton16SkeletonPoseCopyIN4math4trsXENS2_7affineXEEEvPKNS0_13SkeletonPoseTIT_EEPNS5_IT0_EE
WPb:__ZN18GfxFramebufferGLES18GetFramebufferNameERK20GfxRenderTargetSetup
Fna:__ZN9Scripting11UnityEngine9Transform9InitProxyEv
NVj:__ZN6il2cpp2vm14TypeNameParser12ParseVersionERKNSt3__212basic_stringIcNS2_11char_traitsIcEENS2_9allocatorIcEEEERtSB_SB_SB_
RQf:_InputField_MoveDown_m1455948167
fJc:__Z30Event_Get_Custom_PropCharacterP12Il2CppObject
sea:__ZN13PlayableGraph27SchedulePlayableDestructionERK9HPlayable
J2c:_cff_get_mm_var
ewk:_glGetFramebufferAttachmentParameteriv__wrapper
DRd:_ChannelServices_GetCurrentChannelInfo_m3041604116
Ypb:__Z22scripting_array_length17ScriptingArrayPtr
lJe:_SynchronizedReader_Peek_m148942882
lhi:__Z95RuntimeInvoker_Void_t1185182177_RuntimeObject_Int32_t2950945753_Int32_t2950945753_RuntimeObjectPFvvEPK10MethodInfoPvPS4_
PPa:__ZN14SafeBinaryRead20TransferTypelessDataEjPvi
x9j:__ZN15dense_hashtableINSt3__24pairIK10KeyWrapperIPcES3_EES4_N6il2cpp5utils15PassThroughHashIS3_EEN14dense_hash_mapIS4_S3_SA_NS4_14EqualsComparerINS0_8equal_toIS3_EEEENS0_9allocatorIS6_EEE9SelectKeyESF_SH_E3endEv
aCa:__Z19GetActiveColorSpacev
B4c:_UNITY_tt_face_load_kern
DLd:_MonoMethodInfo_GetDeclaringType_m2924452727
A3:__Z6StrCmpPKcS0_
Kjc:__Z21CheckGpuProgramUsable20ShaderGpuProgramType
uuc:__ZN13ProduceHelperI14Texture2DArrayLb0EE7ProduceE10MemLabelId18ObjectCreationMode
lbk:__ZN6il2cpp2os9Directory20GetFileSystemEntriesERKNSt3__212basic_stringIcNS2_11char_traitsIcEENS2_9allocatorIcEEEESA_iiPi
NBg:_Array_System_Collections_IList_Add_m1063688101
RYc:__ZN20TextRenderingPrivate19NativeTextGenerator5SetupEv
d3b:__ZNK15SharedLightData24GetFinalShadowResolutionEv
L2a:__ZN12AspectRatios8TransferI18StreamedBinaryReadILb0EEEEvRT_
clc:__ZN10GameObject14CopyPropertiesERS_
JKc:__Z44Register_UnityEngine_GUIStyle_get_fixedWidthv
Eeh:_Array_InternalArray__ICollection_Remove_TisLink_t544317964_m1280781374_gshared
dEg:_BitConverter_DoubleWordsAreSwapped_m1474345095
IIg:_FixedSizeArrayListWrapper_set_Capacity_m4221053039
ppk:_rand
Iwk:_emscripten_glFramebufferRenderbuffer__wrapper
hBc:__ZN13MeshScripting10CreateMeshE21ScriptingObjectOfTypeI4MeshE
Wx:__ZN17AnimationPlayable22PrepareAnimationEventsEfR13dynamic_arrayI22AnimationClipEventInfoLj0EE
Xqb:__ZN14SafeBinaryRead21TransferSTLStyleArrayINSt3__26vectorI17AnimationCurveTplIfE13stl_allocatorIS4_L18MemLabelIdentifier1ELi16EEEEEEvRT_17TransferMetaFlags
lJg:_SynchronizedArrayListWrapper_Contains_m3809499313
r9f:_HandshakeMessage_Compare_m2214647946
Reh:_Array_InternalArray__ICollection_Remove_TisLabelData_t360167391_m3556246844_gshared
nsf:_HMACSHA256__ctor_m346174875
_vf:_Color_op_Multiply_m2887457390
C5b:__Z22PrepareOptimizedPlanesPK5PlaneiPKN4math7_float4E
$$:__ZN11UnityEngine15CloudWebService17WebFileDownloaderINS0_20WebRequestRestClientENS0_23WebRequestRestHeaderMapEE10InitializeERKN4core12basic_stringIcNS5_20StringStorageDefaultIcEEEE
Ica:__ZN17UniqueIDGenerator15CreatePureIndexEv
Jsc:__Z48InitializeRectTransformAnimationBindingInterfacev
i5a:__ZNSt3__26vectorIN15ResourceManager10DependencyE13stl_allocatorIS2_L18MemLabelIdentifier52ELi16EEE6assignINS_11__wrap_iterIPS2_EEEENS_9enable_ifIXaasr21__is_forward_iteratorIT_EE5valuesr16is_constructibleIS2_NS_15iterator_traitsISC_E9referenceEEE5valueEvE4typeESC_SC_
EBj:__ZN15dense_hashtableINSt3__24pairIK10KeyWrapperIPK22Il2CppGenericParameterEP11Il2CppClassEES6_N6il2cpp5utils11PointerHashIS4_EEN14dense_hash_mapIS6_S9_SE_NS6_14EqualsComparerINS0_8equal_toIS5_EEEENS0_9allocatorISA_EEE9SelectKeyESJ_SL_E14squash_deletedEv
uLa:__ZN9ShaderLabL27GetDesiredRenderTextureDescEPK6Camera
lGi:_Array_InternalArray__Insert_TisMark_t3471605523_m2854535880_gshared
MAc:__ZN4Mesh24UpdateSubMeshVertexRangeEi
HJc:__Z14GUIClipTextureP9Texture2DPhiiii
Fue:__ZL52HumanBone_t2465339518_CustomAttributesCacheGeneratorP21CustomAttributesCache
CWd:_MethodReturnDictionary__cctor_m278392388
$Yb:__ZNK9Transform18TransformDirectionERK8Vector3f
F5i:_SslStreamBase_get_CanWrite_m1622082918
XFe:__ZL80CanvasScaler_t2767979955_CustomAttributesCacheGenerator_m_ReferencePixelsPerUnitP21CustomAttributesCache
sph:_PrimalityTests_RabinMillerTest_m1471415870
qEh:_Enumerator_MoveNext_m2114485647_gshared
XUe:_GenericTypeParameterBuilder_GetCustomAttributes_m580748276
tIj:__ZN15dense_hashtableINSt3__24pairIK10KeyWrapperIPK11Il2CppClassEPKcEES6_N6il2cpp5utils11PointerHashIS3_EEN14dense_hash_mapIS6_S9_SE_NS6_14EqualsComparerINS0_8equal_toIS5_EEEENS0_9allocatorISA_EEE9SelectKeyESJ_SL_E12resize_deltaEjj
_qk:__ZNK10__cxxabiv120__si_class_type_info27has_unambiguous_public_baseEPNS_19__dynamic_cast_infoEPvi
M0f:_Kernel_LeftShift_m4140742987
nQe:_Assembly_GetManifestResourceInternal_m1224391897
PCa:__Z30AddDefaultStreamsToMeshBuffersR9GfxDeviceR11MeshBuffersj17ShaderChannelMaskS3_
M3:__ZL16GetInterfaceImpl18UnityInterfaceGUID
Jdk:__ZN6il2cpp6icalls8mscorlib6System15MonoCustomAttrs27GetCustomAttributesInternalEP12Il2CppObjectP20Il2CppReflectionTypeb
B2e:_InternalEnumerator_1_get_Current_m1408339225_AdjustorThunk
F8c:_UNITY_TT_Set_MM_Blend
pra:__ZN9Scripting11UnityEngine11Application9InitProxyEv
BIb:__ZN14PreloadManager35WaitForAllAsyncOperationsToCompleteEv
TDj:__ZN13Il2CppHashMapIP9FieldInfoiN6il2cpp5utils11PointerHashIS0_EENSt3__28equal_toIS1_EENS6_9allocatorINS6_4pairIK10KeyWrapperIS1_EiEEEEEC2EjRKS5_RKS8_
rM:__ZL31InitializeAudioScriptingClassesv
uYb:__Z14SortGUIByDepthP10GUIElementS0_
ODf:_PlayerConnection_OnEnable_m4286555589
tF:__ZN12_GLOBAL__N_120ProcessRootMotionMixER33AnimationPlayableEvaluationOutputR35AnimationPlayableEvaluationConstantR32AnimationPlayableEvaluationInputS1_f
Sgj:_UriParser__cctor_m3655686731
tTf:_LayoutRebuilder_U3Cs_RebuildersU3Em__0_m589488547
Xcb:__ZNK20LocalFileSystemPosix21GetAvailableDiskSpaceEPKcRy
wK:__ZNSt3__26__treeIiNS_4lessIiEENS_9allocatorIiEEE7destroyEPNS_11__tree_nodeIiPvEE
xhb:__ZNK9GfxDevice14GetWorldMatrixEv
SLf:_Transform_set_parent_m786917804
Apj:_AudioSampleProvider_InternalSetScriptingPtr_m3742743270
v_f:_Slider_get_value_m739683640
tbb:__Z19scripting_array_new17ScriptingClassPtrjj
O3g:_Convert_ToInt32_m2128774575
LR:__ZN11SoundHandle13CreateChannelEb
ngc:__ZNSt3__26vectorIN9ShaderLab20SerializedSubProgram16TextureParameterENS_9allocatorIS3_EEE6assignIPS3_EENS_9enable_ifIXaasr21__is_forward_iteratorIT_EE5valuesr16is_constructibleIS3_NS_15iterator_traitsISA_E9referenceEEE5valueEvE4typeESA_SA_
WGj:__ZN13Il2CppHashMapIN6il2cpp5utils13dynamic_arrayIPK10Il2CppTypeLj4EEEPFvvENS0_8metadata19Il2CppSignatureHashENS9_22Il2CppSignatureCompareENSt3__29allocatorINSC_4pairIK10KeyWrapperIS6_ES8_EEEEEC2EjRKSA_RKSB_
WTj:__ZN15dense_hashtableINSt3__24pairIK10KeyWrapperIPK22Il2CppGenericParameterEPK24MonoGenericParameterInfoEES6_N6il2cpp5utils11PointerHashIS4_EEN14dense_hash_mapIS6_SA_SF_NS6_14EqualsComparerINS0_8equal_toIS5_EEEENS0_9allocatorISB_EEE9SelectKeyESK_SM_E15set_deleted_keyERKSB_
Jpf:_SByte_TryParse_m2431806379
oIa:__ZN6prcoreL11inner_clearILj2EEEvPhjjj
$ra:__ZN9Scripting5Unity11Collections8LowLevel6Unsafe24NativeContainerAttribute9InitProxyEv
lrf:_DSACryptoServiceProvider_get_KeySize_m786836990
Hg:_emscripten_exit_fullscreen
NHi:_Array_qsort_TisBoolean_t97287965_TisBoolean_t97287965_m214793583_gshared
zDh:_Enumerator_System_Collections_IEnumerator_Reset_m1564381721_gshared
Psc:__ZZL31RegisterRectTransformPropertiesR22GenericPropertyBindingEN39Wrapper_RectTransformAnchoredPositiony113GetFloatValueEPv
uPe:_Object_MemberwiseClone_m1474068832
dak:__ZN6il2cpp6icalls8mscorlib6System6String19InternalAllocateStrEi
USc:__Z29Transfer_Blittable_ArrayFieldI8JSONRead11QuaternionfEvRT_R9ArrayInfoRK23StaticTransferFieldInfo
Joc:__Z45Register_UnityEngine_Camera_get_targetDisplayv
nxc:__ZNK24RendererAnimationBinding15GenerateBindingERKN4core12basic_stringIcNS0_20StringStorageDefaultIcEEEEbRN11UnityEngine9Animation14GenericBindingE
Ypg:_IPv6Address__ctor_m3704187391
CHa:__Z15GetFlareManagerv
ou:__ZN8Animator13GetAvatarRootEv
hkh:_Array_InternalArray__ICollection_Add_TisResourceCacheItem_t51292791_m3851804827_gshared
pnk:___toread
qGb:__ZNSt3__26vectorI10vector_mapIiiNS_4lessIiEE13stl_allocatorINS_4pairIiiEEL18MemLabelIdentifier38ELi16EEES4_IS9_LS7_38ELi16EEE26__swap_out_circular_bufferERNS_14__split_bufferIS9_RSA_EE
i0f:_BigInteger_get_Rng_m3283260184
Brk:___cxa_is_pointer_type
nJ:__ZN8Animator22ScriptingStringToCRC32ERK11ICallString
vF:__ZN7mecanim9animation16EvaluateAvatarDXEPKNS0_14AvatarConstantEPKNS0_11AvatarInputEPNS0_12AvatarMemoryEPNS0_15AvatarWorkspaceEPNS0_12AvatarOutputE
Exd:_RaycastResult_ToString_m2678663776_AdjustorThunk
LLi:_Array_InternalArray__get_Item_TisKeyValuePair_2_t2530217319_m2886833132_gshared
Mka:__ZL50__ManagedRegistrationHelperFunction_UnityEventBasePv
nqc:__Z34Transform_CUSTOM_SetAsFirstSiblingP12Il2CppObject
GQf:_InputField_Delete_m3471899192
Ikf:_RemotingConfiguration_get_ProcessId_m2180277012
xY:__ZN11UnityEngine15CloudWebService17SessionEventQueue14ParseEventDataERKN4core12basic_stringIcNS2_20StringStorageDefaultIcEEEE
Cqg:_WebHeaderCollection_Add_m183143026
POb:__ZN13TranslateGLES4InitERK12GraphicsCaps16GfxDeviceLevelGL
iUg:_Int64_System_IConvertible_ToUInt16_m848637338_AdjustorThunk
ajd:__Z32CustomEventData_CUSTOM_AddUInt32P12Il2CppObjectP12Il2CppStringj
zih:_Array_InternalArray__IndexOf_TisLink_t544317964_m455584088_gshared
QXi:_Enumerator_get_Current_m2282646120_AdjustorThunk
a0h:_ReadOnlyCollection_1_IndexOf_m2539022912_gshared
dFe:__ZL66Selectable_t3250028441_CustomAttributesCacheGenerator_m_TransitionP21CustomAttributesCache
hlk:__ZN6il2cpp2os6Memory12AlignedAllocEjj
YPc:__ZN9JSONWrite8TransferI13dynamic_arrayIN4math12int3_storageELj0EEEEvRT_PKc17TransferMetaFlags
B$f:_Text_set_alignByGeometry_m3828822280
Iek:__ZN6il2cpp8metadataL7CompareEPK10Il2CppTypeS3_
cng:_HybridDictionary__ctor_m1681134385
kya:__ZN21ScalableBufferManager11GetInstanceEv
zBb:__Z18Transfer_BlittableI18StreamedBinaryReadILb0EELb1E10ColorRGBAfEvRK29SerializationCommandArgumentsR31RuntimeSerializationCommandInfo
yPh:_TimeSpan_op_LessThan_m1594498345
Umc:__ZL27GetComponentsImplementationILb0ELi0EEbR10GameObjectbRK17CompareParametersRK39GetComponentsImplementation_ReturnValue
pFb:__ZN9Scripting36IsSystemCollectionsGenericDictionaryE17ScriptingClassPtr
ibi:_UnityEvent_1_FindMethod_Impl_m322741469_gshared
gMf:_Enumerator_get_Current_m2591725252
J9:__ZL16ReadTypeTreeImplILb0EEbR8TypeTreeRK16TypeTreeIteratorRPKhS6_i
qxg:_Interval_Contains_m110351300_AdjustorThunk
H3g:_Convert_ToInt32_m3048308591
Eu:__ZN25RuntimeAnimatorControllerD2Ev
KVf:_RectMask2D_OnCanvasHierarchyChanged_m3195492255
$7g:_DateTimeOffset_Equals_m3030958070
fHa:__ZNK22BuiltinResourceManager21GetResourceInstanceIDEPKN5Unity4TypeERKN4core12basic_stringIcNS4_20StringStorageDefaultIcEEEE
noc:__Z42Register_UnityEngine_RectOffset_set_bottomv
Plj:_AnalyticsTracker_BuildParameters_m43920649
MOg:_DateTimeFormatInfo_GetMonthName_m2034512315
z_b:__ZN28LightProbeProxyVolumeContext8CopyFromERKS_
N0h:_ReadOnlyCollection_1_System_Collections_Generic_IListU3CTU3E_Insert_m2489506856_gshared
qxa:__ZN23TransformChangeDispatch32QueueTransformChangeIfHasChangedER18TransformHierarchy
bCf:_Matrix4x4_MultiplyPoint_m1575665487
uRb:__ZN7ApiGLES18DeleteRenderbufferERj
GQb:__ZL23ProgramUniformMatrix4fvPK7ApiGLESjiihPKv
HKb:__ZN7ApiGLES13CreateTextureEjj14GraphicsFormatiiiii
eDg:_Array_new_gap_m262136975
Vfc:__ZN9ShaderLab20SerializedSubProgram15MatrixParameter8TransferI14SafeBinaryReadEEvRT_
Wmc:__ZL27GetComponentsImplementationILb0ELi1EEbR10GameObjectbRK17CompareParametersRK39GetComponentsImplementation_ReturnValue
rtg:_X509Store__ctor_m275383717
BLf:_Transform_INTERNAL_get_position_m1310184257
q7c:_Round_Down_To_Grid
PJj:__ZN6il2cpp2vm13MetadataCache40AddThreadLocalStaticOffsetForFieldLockedEP9FieldInfoiRKNS_2os12FastAutoLockE
Kza:__ZN13RenderTexture7ReleaseEv
rQc:__Z18Transfer_BlittableI8JSONReadLb1EN4math12int3_storageEEvRK29SerializationCommandArgumentsR31RuntimeSerializationCommandInfo
H_a:__ZN10MeshFilter23VirtualRedirectTransferER14SafeBinaryRead
W0a:__ZN12MeshRenderer17MainThreadCleanupEv
tCj:__ZN6il2cpp2vmL10InitLockedEP11Il2CppClassRKNS_2os12FastAutoLockE
gmb:__ZN22CreateGpuProgramOutput12CreateParamsEv
zN:__ZN10ObjectPoolIN4FMOD7ChannelENS0_8ChannelIEE7GetFreeEi
Bs:__ZL62__ManagedRegistrationHelperFunction_AnimatorOverrideControllerPv
_0h:_ReadOnlyCollection_1_System_Collections_IList_Insert_m177536056_gshared
$$e:_InternalEnumerator_1_System_Collections_IEnumerator_get_Current_m548105685_gshared
GOb:__ZNK14GfxContextGLES13GetDefaultFBOEv
fFg:_Byte_System_IConvertible_ToType_m2251112646
OEc:__Z55Register_UnityEngine_MonoBehaviour_StopCoroutineManagedv
ywi:__Z81RuntimeInvoker_Char_t3634460470_RuntimeObject_Int32_t2950945753_Int16_t2552820387PFvvEPK10MethodInfoPvPS4_
V6g:_DateTime_get_Hour_m4153505178_AdjustorThunk
Loj:_AudioExtensionManager_WriteExtensionProperties_m3028464154
Wfg:_Evidence_Equals_m1478353107
oAc:__Z13GetImagePixelI10ColorRGBAfET_PKhii13TextureFormat15TextureWrapModeS5_ii
oRi:_List_1_System_Collections_IList_set_Item_m1842844683_gshared
ldi:_ObjectPool_1__ctor_m2535233435_gshared
YYj:__ZN6il2cpp2vm6Thread49CheckCurrentThreadForInterruptAndThrowIfNecessaryEv
m1g:_Convert_ToChar_m3757390865
uCa:__ZNSt3__23mapIN9ShaderLab16FastPropertyNameEN18UnityPropertySheet11UnityTexEnvENS_4lessIS2_EENS_9allocatorINS_4pairIKS2_S4_EEEEEixERS9_
IKb:__ZNK13TranslateGLES25GetTextureTargetDimensionEj
_Zh:_ReadOnlyCollection_1_System_Collections_IList_Remove_m1842121503_gshared
RWg:_File_OpenRead_m2936789020
x5:__ZN9Scripting12LogExceptionE21ScriptingExceptionPtriPKcb
oti:__Z94RuntimeInvoker_Void_t1185182177_RuntimeObject_PlayableGraph_t3515989261_RuntimeObject_IntPtr_tPFvvEPK10MethodInfoPvPS4_
Ii:_emscripten_glVertexAttrib4f
Vrb:__ZN14SafeBinaryRead21TransferSTLStyleArrayI13dynamic_arrayIN4math12int3_storageELj0EEEEvRT_17TransferMetaFlags
hjc:__ZNSt3__26vectorIN20GpuProgramParameters14ConstantBufferENS_9allocatorIS2_EEE8__appendEj
$tg:_X509CertificateCollection_AddRange_m3683116910
dSd:_SinkProviderData__ctor_m1624738837
Uvi:__Z88RuntimeInvoker_RuntimeObject_RuntimeObject_SByte_t1669577662_RuntimeObject_RuntimeObjectPFvvEPK10MethodInfoPvPS4_
LRe:_CustomAttributeTypedArgument_Equals_m2261980307
Wz:__ZN7mecanim12statemachine24CreateStateMachineMemoryEPKNS0_20StateMachineConstantERNS_6memory9AllocatorE
sjb:__ZN9GfxDevice18SetGlobalDepthBiasEff
aMj:__ZN6il2cpp6icalls8mscorlib6System8MonoType12get_AssemblyEP20Il2CppReflectionType
Wi:_emscripten_glGetPointerv
BKi:_Dictionary_2_Do_CopyTo_TisKeyValuePair_2_t3842366416_TisRuntimeObject_m1564656153_gshared
cF:__ZN8Animator22ApplyBuiltinRootMotionEv
Sqc:__Z14BezierExtractUfff
ZHb:__Z26ApplyMaterialPassWithCacheRK18SharedMaterialDataR17ShaderPassContextP6ShaderPN9ShaderLab4PassEibPKNS6_10GrabPassesEPNS6_11SubProgramsEPK22DeviceRenderStateBlock
Mie:__ZL81Camera_t4157153871_CustomAttributesCacheGenerator_Camera_RaycastTry2D_m2460696262P21CustomAttributesCache
rNe:_MulticastDelegate_KPM_m22863605
H3e:_InternalEnumerator_1_get_Current_m1897120917_AdjustorThunk
QMe:_MonoType_ReorderParamArrayArguments_m2458683451
imf:_FormatterConverter_ToInt16_m4282804414
Bli:__Z81RuntimeInvoker_Void_t1185182177_Int64_t3736567304_RuntimeObject_Int64_t3736567304PFvvEPK10MethodInfoPvPS4_
iyd:_StandaloneInputModule_ProcessTouchPress_m4019232747
NWg:_FileStream__ctor_m3151488352
dDg:_Array_swap_m547389985
vUa:__ZN8Renderer23VirtualRedirectTransferER14SafeBinaryRead
$Sh:_UInt32_ToString_m2420423038
pOi:_List_1_System_Collections_IList_Add_m634558835_gshared
pXg:_FileStream_get_Length_m426703983
Xyc:__Z13RegisterClassI10TagManagerEvPKc
DCj:__ZN6il2cpp2vmL15GetBitmapNoInitEP11Il2CppClassPjRjj
YL:__ZN12AudioManager5ResetEv
hie:__ZL68DisallowMultipleComponent_t1422053217_CustomAttributesCacheGeneratorP21CustomAttributesCache
hia:__ZN6prcoreL17RemapGenericFloatI17TexFormatRGBAHalf15TexFormatRGHalfEEvPKNS_9InnerInfoE
wbk:__ZN6il2cpp6icalls8mscorlib6System11Environment20GetWindowsFolderPathEi
Ky:__ZN7mecanim5human18HumanPoseBlendNodeERNS0_9HumanPoseEPS1_f
J1c:_UNITY_FT_RoundFix
gVc:__ZN9Scripting11UnityEngine19PhysicsJobOptions2D12CleanupProxyEv
cik:_GC_is_heap_ptr
G9f:_HandshakeMessage_EncodeMessage_m3919107786
eqh:_ASN1_DecodeTLV_m1200977460
Tyf:_UnityEventBase_PrepareInvoke_m1785382128
Y0a:__ZNK12MeshRenderer22GetTypeVirtualInternalEv
AGg:_Char_System_IConvertible_ToUInt32_m3901815580
VWf:_Scrollbar_set_onValueChanged_m346467699
$ni:__Z157RuntimeInvoker_Int32_t2950945753_RuntimeObject_Int32_t2950945753_Int32_t2950945753_Int32_t2950945753_SByte_t1669577662_SByte_t1669577662_Int32U26_t1369213839PFvvEPK10MethodInfoPvPS4_
WO:__ZN4FMOD6System17setSoftwareFormatEi17FMOD_SOUND_FORMATii18FMOD_DSP_RESAMPLER
sMa:__ZN14SafeBinaryRead19TransferSTLStyleMapINSt3__23mapIN4core12basic_stringIcNS3_20StringStorageDefaultIcEEEES7_NS1_4lessIS7_EE13stl_allocatorINS1_4pairIKS7_S7_EEL18MemLabelIdentifier1ELi16EEEEEEvRT_17TransferMetaFlags
js:__ZL49__ManagedRegistrationHelperFunction_AimConstraintPv
lhd:__ZN2UI6Canvas27UpdateEventIndexesRecursiveERi
EY:__ZN11UnityEngine15CloudWebService16SessionContainer21PrepareDataErrorEventERN4core12basic_stringIcNS2_20StringStorageDefaultIcEEEE
yvd:_ExecuteEvents_get_pointerUpHandler_m3515704212
uHg:_ArrayList_set_Item_m2003485935
MPd:_SatelliteContractVersionAttribute__ctor_m3630863995
rxd:_MouseButtonEventData_PressedThisFrame_m1060658845
Axb:__Z19TransferField_ArrayI19StreamedBinaryWriteILb0EE27Converter_SimpleNativeClassI8GUIStyleEEvRK23StaticTransferFieldInfoR31RuntimeSerializationCommandInfoRT0_
hYb:__Z27SetClippingPlaneShaderPropsR9GfxDevice
s_h:_ReadOnlyCollection_1_System_Collections_Generic_IListU3CTU3E_RemoveAt_m3969985996_gshared
IEa:__Z28BuildSingleStreamChannelInfoP11ChannelInfo17ShaderChannelMaskS1_
MDf:_PlayerConnection_get_isConnected_m911966057
lGd:_GraphicRegistry_GetGraphicsForCanvas_m4219276355
LNe:_NumberFormatter_FastToDecHex_m699829267
Gbj:_PatternCompiler_MakeFlags_m1977119795
fQc:__Z35Transfer_Blittable_FixedBufferFieldI8JSONReadiEvRK29SerializationCommandArgumentsR31RuntimeSerializationCommandInfo
yKj:__ZNSt3__213__vector_baseIN6il2cpp2os19SocketHandleWrapperENS_9allocatorIS3_EEED2Ev
X_d:__ZL48_Type_t3588564251_CustomAttributesCacheGeneratorP21CustomAttributesCache
cVa:__ZN28ReflectionProbeAnchorManager18RemoveCachedAnchorERK4PPtrI9TransformE
$b:invoke_viiffi
Dac:__ZN13sorted_vectorINSt3__24pairIN4core12basic_stringIcNS2_20StringStorageDefaultIcEEEEPK17MessageIdentifierEEN10vector_mapIS6_S9_NS0_4lessIS6_EENS0_9allocatorISA_EEE13value_compareESF_E10insert_oneERKSA_
sTc:__ZN5Unity9rapidjson13GenericReaderINS0_4UTF8IcEES3_13JSONAllocatorE10ParseFalseILj0ENS0_19GenericStringStreamIS3_EENS0_15GenericDocumentIS3_S4_S4_EEEEvRT0_RT1_
VCa:__ZL13MeshExtractorPv16VertexInputMasksiR11MeshBuffersR16DrawBuffersRangeRiS5_
uQa:__ZNK12CubemapArray20GetRuntimeMemorySizeEv
hPh:_TimeSpan_FromHours_m1109641064
Rgc:__Z14resize_trimmedINSt3__26vectorIN9ShaderLab18SerializedPropertyENS0_9allocatorIS3_EEEEEvRT_j
aIj:__ZN6il2cpp2vm13MetadataCache38GetMethodInfoFromMethodDefinitionIndexEi
jud:_EventSystem_set_current_m38955169
BEc:__Z39MonoBehaviour_CUSTOM_GetScriptClassNameP12Il2CppObject
bFe:__ZL53Selectable_t3250028441_CustomAttributesCacheGeneratorP21CustomAttributesCache
Iaj:_CostDelegate_EndInvoke_m2797921932
EXa:__ZN10VertexData8TransferI24GenerateTypeTreeTransferEEvRT_
R0g:_Double_IsInfinity_m820013146
Mbk:__ZN13Il2CppHashMapIPK19Il2CppGenericMethodP10MethodInfoN6il2cpp8metadata23Il2CppGenericMethodHashENS6_26Il2CppGenericMethodCompareENSt3__29allocatorINS9_4pairIK10KeyWrapperIS2_ES4_EEEEEC2EjRKS7_RKS8_
GJf:_Screen_get_dpi_m495672463
HLh:_UTF8Encoding_InternalGetByteCount_m2120178851
a5b:__ZL10CullLightsRK22SceneCullingParametersR11CullResults
M5g:_Convert_ToUInt64_m3170916409
Csd:__ZN9Scripting11UnityEngine12Experimental2XR14ReferencePoint12CleanupProxyEv
YTg:_Int64_System_IConvertible_ToInt16_m4062196970_AdjustorThunk
lNe:_MonoType_GetGenericTypeDefinition_m3201894896
npc:__Z40GetTemporaryCachePathApplicationSpecificv
Uhb:__ZN9GfxDevice16EndAsyncJobFrameEv
Cxi:__Z99RuntimeInvoker_Int32_t2950945753_Ray_t3785851493_RuntimeObject_Single_t1397266774_Int32_t2950945753PFvvEPK10MethodInfoPvPS4_
u4c:_UNITY_tt_face_load_hhea
oTe:_DerivedType_get_Assembly_m2979298667
Uk:___syscall3
Xk:___syscall6
Zk:___syscall4
ZSe:_DerivedType_GetMethods_m3787404845
XWd:_ReturnMessage__ctor_m2352989078
Qgb:__ZNSt3__26__treeINS_12__value_typeIN4core12basic_stringIcNS2_20StringStorageDefaultIcEEEEPN16MemoryFileSystem4NodeEEENS_19__map_value_compareIS6_SA_NS_4lessIS6_EELb1EEE13stl_allocatorISA_L18MemLabelIdentifier55ELi16EEE7destroyEPNS_11__tree_nodeISA_PvEE
pui:__Z67RuntimeInvoker_Boolean_t97287965_TextGenerationSettings_t1351628751PFvvEPK10MethodInfoPvPS4_
A7j:__ZN6il2cpp2vm3RCW14QueryInterfaceILb1EEEP14Il2CppIUnknownP15Il2CppComObjectRK10Il2CppGuid
m7f:_TlsServerCertificateRequest__ctor_m1334974076
VTc:__ZN27PerformanceReportingManager23VirtualRedirectTransferER14SafeBinaryRead
K3g:_Convert_ToInt32_m1613163543
ooa:__ZN9Scripting11UnityEngine9Playables8Playable12CleanupProxyEv
SZh:_ReadOnlyCollection_1_System_Collections_ICollection_CopyTo_m3127175806_gshared
ml:_emscripten_glShaderBinary
ugg:_String_op_Inequality_m215368492
gSh:_UInt16_ToString_m760649087
Pcb:__ZNK20LocalFileSystemPosix6ExistsERK13FileEntryData
Jvf:_Camera_GetAllCameras_m668492922
ned:__Z58Register_UnityEngine_Canvas_GetETC1SupportedCanvasMaterialv
xPh:_TimeSpan_op_Inequality_m2467851530
dAb:__ZN17AnimationCurveTplIfE8TransferI18StreamedBinaryReadILb1EEEEvRT_
CJi:_Array_Sort_TisUIVertex_t4057497605_m3996333845_gshared
xDg:_Swapper_BeginInvoke_m1688449973
xxf:_Display_get_renderingWidth_m1970428952
ylj:_U3CTimedTriggerU3Ec__Iterator0_MoveNext_m825792986
Fpi:__Z81RuntimeInvoker_Void_t1185182177_RuntimeObject_Int32_t2950945753_Int64_t3736567304PFvvEPK10MethodInfoPvPS4_
lJ:__ZNSt3__26vectorIN4core12basic_stringIcNS1_20StringStorageDefaultIcEEEE13stl_allocatorIS5_L18MemLabelIdentifier1ELi16EEE21__push_back_slow_pathIS5_EEvOT_
dmi:__Z86RuntimeInvoker_Boolean_t97287965_Int16_t2552820387_Int16_t2552820387_Int32_t2950945753PFvvEPK10MethodInfoPvPS4_
ici:_IndexedSet_1_IndexOf_m241693686_gshared
uld:__ZN11UnityEngine15PlatformWrapper30GetGraphicsDriverLibraryStringEv
Pof:_RuntimeMethodHandle_Equals_m3301340296_AdjustorThunk
xTh:_UInt64_System_IConvertible_ToSingle_m925613075_AdjustorThunk
ABb:__Z18Transfer_BlittableI18StreamedBinaryReadILb0EELb0E4AABBEvRK29SerializationCommandArgumentsR31RuntimeSerializationCommandInfo
p5a:__ZN24GenerateTypeTreeTransfer19TransferSTLStyleMapINSt3__28multimapIN4core12basic_stringIcNS3_20StringStorageDefaultIcEEEE4PPtrI6ObjectENS1_4lessIS7_EE13stl_allocatorINS1_4pairIKS7_SA_EEL18MemLabelIdentifier52ELi16EEEEEEvRT_17TransferMetaFlags
Qt:__ZN16MecanimAnimation24DeleteAnimatedPropertiesERP26IAnimatedPropertyEvaluator
Sxj:_CanvasRenderer_SetMaterial_m824577244
XWb:__Z14DrawGUITextureRK5RectTIfEP7Texture11ColorRGBA32P8Materiali
iLa:__ZNK15PlayableMethods18InvokeProcessFrameER18ScriptingObjectPtrRK9HPlayableP18ScriptingFrameDataRK9FrameData
ND:__ZN9BlobWrite8TransferI22OffsetPtrArrayTransferIKN4math7_float4EEEEvRT_PKc17TransferMetaFlags
cMf:_Transform_IsChildOf_m224006092
kKa:__ZN15TextureSettings8TransferI24GenerateTypeTreeTransferEEvRT_
QPc:__ZN9JSONWrite8TransferI4AABBEEvRT_PKc17TransferMetaFlags
Uec:__ZN15dense_hashtableINSt3__24pairIKiN4core17string_with_labelILi1EEEEEi18SInt32HashFunctionN14dense_hash_mapIiS5_S7_NS0_8equal_toIiEE13stl_allocatorIS6_L18MemLabelIdentifier1ELi16EEE9SelectKeyESA_SD_E12expand_arrayEjN21dense_hash_map_traits17integral_constantIbLb0EEE
Src:__Z13RegisterClassI15QualitySettingsEvPKc
Ar:__ZN13ConstraintJob17ConstraintJobDataD2Ev
vkj:_Aes__ctor_m178909601
WQa:__ZNK9Texture2D20GetRuntimeMemorySizeEv
_Vd:_MethodCall_get_MethodSignature_m2407904958
rTc:__ZN5Unity9rapidjson13GenericReaderINS0_4UTF8IcEES3_13JSONAllocatorE9ParseTrueILj0ENS0_19GenericStringStreamIS3_EENS0_15GenericDocumentIS3_S4_S4_EEEEvRT0_RT1_
vm:_emscripten_glUniform2iv
zka:__ZL46__ManagedRegistrationHelperFunction_ColorGamutPv
zKh:_UnicodeEncoding_CopyChars_m785272451
DZc:_UNITY_FT_Outline_Transform
Jlc:__Z60Register_UnityEngine_Sprites_DataUtility_Internal_GetMinSizev
WCj:__ZN6il2cpp2vm5Class10GetMethodsEP11Il2CppClassPPv
H0b:__Z30AddDefaultStreamsToMeshBuffersR9GfxDeviceR11MeshBuffersRK16DrawBuffersRange17ShaderChannelMaskS6_
YQb:__ZN7ApiGLES17DeleteFramebufferERN2gl6HandleILNS0_10ObjectTypeE9EEES3_
oTb:__ZN15UniformTFMethod13MapBoneBufferEj
dcd:__ZN2UI14CanvasRendererD2Ev
cMi:_Array_InternalArray__get_Item_TisParameterModifier_t1461694466_m29553316_gshared
oUg:_Int64_CompareTo_m1928360444_AdjustorThunk
QUj:__ZN15dense_hashtableINSt3__24pairIK10KeyWrapperINS1_IPK9EventInfoP11Il2CppClassEEEjEES9_17ReflectionMapHashIS8_EN14dense_hash_mapIS9_jSD_NS9_14EqualsComparerINS0_8equal_toIS8_EEEENS0_9allocatorISB_EEE9SelectKeyESI_SK_E15set_deleted_keyERKSB_
PGb:__Z9SetupArgviPPKc
d4g:_Convert_ToInt64_m2075031821
ulj:_AnalyticsEventTracker_OnDisable_m1553012800
Mzk:_glTexParameteri__wrapper
yQa:__ZN12CubemapArray23VirtualRedirectTransferER24GenerateTypeTreeTransfer
Fka:__ZL49__ManagedRegistrationHelperFunction_RenderTexturePv
kbk:__ZN6il2cpp2os9Directory6CreateERKNSt3__212basic_stringIcNS2_11char_traitsIcEENS2_9allocatorIcEEEEPi
nxa:__ZN23TransformChangeDispatch32QueueTransformChangeIfHasChangedERK15TransformAccess
jQe:_Assembly_get_FullName_m293988418
lvf:_Camera_get_pixelRect_Injected_m2326986893
pUc:__ZN27PerformanceReportingManager18ActiveSceneChangedEPS_P10UnitySceneS2_
B:tempValue
Tlk:__ZN6il2cpp8metadata24Il2CppGenericContextHash4HashEPK20Il2CppGenericContext
P1e:_InternalEnumerator_1_get_Current_m356936020_AdjustorThunk
FXb:__ZN6Camera21RenderODSWorldTextureERK11CullResultsRK19SharedRendererSceneR17ShaderPassContextNS_10RenderFlagE
DTg:_Int32_ToString_m141394615_AdjustorThunk
_5:__Z29scripting_class_from_fullnamePKcS0_S0_
kWg:_Directory_GetCurrentDirectory_m219218555
Tzg:_SmallXmlParser_UnexpectedEndError_m1914362401
oA:__ZN26AnimatorControllerPlayable18DeallocateBindingsEv
Ilb:__ZN14DelayedDeletorI15dense_hashtableINSt3__24pairIK9TextureIDiEES3_14GfxGenericHashIS3_EN14GfxDoubleCacheIS3_iS7_NS1_8equal_toIS3_EEN31GfxDoubleCacheConcurrencyPolicy11LocklessGetE42GfxDoubleCacheDefaultEmptyDeletedGeneratorIS3_EE9SelectKeyESA_13stl_allocatorIS5_L18MemLabelIdentifier24ELi16EEEEclEv
XR:__ZN11AudioSource19CreateOpenALRolloffEfff
o4c:_UNITY_FT_Stream_ReadAt
zpj:_AudioSampleProvider_Dispose_m1993565764
wOh:_TimeSpan__ctor_m1896986612_AdjustorThunk
jHj:__ZN15dense_hashtableINSt3__24pairIK10KeyWrapperIN6il2cpp5utils13dynamic_arrayIPK10Il2CppTypeLj4EEEEPFvvEEESA_NS3_8metadata19Il2CppSignatureHashEN14dense_hash_mapISA_SD_SG_NSA_14EqualsComparerINSF_22Il2CppSignatureCompareEEENS0_9allocatorISE_EEE9SelectKeyESK_SM_E9set_valueEPSE_RKSE_
Vxg:_ArgumentException__ctor_m1216717135
SGf:_Ray_ToString_m1732834890_AdjustorThunk
EPc:__ZN9JSONWrite8TransferI13dynamic_arrayI5RectTIfELj0EEEEvRT_PKc17TransferMetaFlags
eRi:_List_1_System_Collections_IList_Contains_m3860993176_gshared
DV:__ZN11AudioModule22CreateAudioClipFromWWWEP10IWWWStreamPKcbbi
xuc:__ZN9Texture2DC2E10MemLabelId18ObjectCreationMode
gKb:__Z17DebugStringToFileIA59_cEvRKT_iPKci15LogMessageFlagsiiPFvRK11CppLogEntryE
Ri:_emscripten_glRotatef
kSh:_UInt32_System_IConvertible_ToBoolean_m1763673183_AdjustorThunk
Nyf:_UnityEvent_AddListener_m2276267359
hr:__Z9SetLocalR15TransformAccessRKN4math7_float4Ey
qIa:__ZN6prcoreL11inner_clearILj4EEEvPhjjj
bBj:_NativeTypeAttribute__ctor_m1677513894
N0:__GLOBAL__sub_I_Runtime_SceneManager_0_cpp
whk:_GC_initialize_offsets
rea:__ZNK8Playable6HandleEv
dPf:_SetPropertyUtility_SetColor_m2229203028
n8:__ZN14MessageHandler28MessageIDToMessageIdentifierEi
hYa:__ZNK11SpriteAtlas20GetRuntimeRenderDataEPK6Sprite
aWg:_FileSystemInfo__ctor_m3035148496
WSg:_Int32_System_IConvertible_ToDecimal_m2190376994_AdjustorThunk
xma:__ZL43__ManagedRegistrationHelperFunction_Vector4Pv
my:__ZN7mecanim14ValueArrayCopyILb0EEEvPKNS_10ValueArrayEPS1_
DJ:__Z51Register_UnityEngine_Animator_get_hasBoundPlayablesv
Dd:emscriptenWebGLGetUniform
ro:FUNCTION_TABLE_iiiiiiiiiii
Hhj:_GUI_CallWindowDelegate_m3309453386
H2c:_cff_set_mm_blend
U6b:__ZL10CleanUpJobP20CullingGroupsJobData
YVg:_DirectoryInfo_get_Exists_m3142069876
G_a:__ZN10MeshFilter23VirtualRedirectTransferER24GenerateTypeTreeTransfer
Trc:__Z13RegisterClassI16LightmapSettingsEvPKc
OWb:__ZN13RenderManager15BatchModeUpdateEv
otg:_X509Chain_get_CertificateAuthorities_m804805415
k1b:__Z14SetupLightmapsRK8Vector4fS1_R17ShaderPassContext
YIf:_Vector2_get_one_m738793577
tAc:__ZNK4Mesh14GetIndexFormatEv
yjd:__ZN9Scripting11UnityEngine9Analytics21AnalyticsSessionState9InitProxyEv
S6j:__ZN14dense_hash_mapI10KeyWrapperIP12Il2CppObjectEN6il2cpp2gc9CachedCCWENS4_5utils11PointerHashIS1_EENS3_14EqualsComparerINSt3__28equal_toIS2_EEEENSB_9allocatorINSB_4pairIKS3_S6_EEEEE13set_empty_keyERSH_
gd:_glVertexAttribIPointer
sAf:_Input_GetAxisRaw_m2316819917
ylc:__ZNK6Sprite10GetPaddingE20SpriteRenderDataMode
efh:_Array_InternalArray__ICollection_Remove_TisUInt32_t2560061978_m733727733_gshared
cqf:_CryptographicException__ctor_m503735289
JXg:_Stream_EndRead_m1896469262
Vdi:__Z93RuntimeInvoker_Boolean_t97287965_Int32_t2950945753_SByte_t1669577662_ExceptionU26_t3600731591PFvvEPK10MethodInfoPvPS4_
o_b:__ZN14qsort_internal5QSortIP15RODataDepthPassi17ROSorterDepthPassEEvT_S4_T0_T1_
Z4c:_UNITY_ft_glyphslot_alloc_bitmap
kYh:_ReadOnlyCollection_1_System_Collections_IList_Add_m3642938800_gshared
Mag:_RSASslSignatureDeformatter_SetHashAlgorithm_m895570787
w4:__ZL36TransformAccessArray_InitializeClassPv
M9i:_X509CrlEntry__ctor_m4013514048
Ori:__Z87RuntimeInvoker_Color_t2555686324_Color_t2555686324_Color_t2555686324_Single_t1397266774PFvvEPK10MethodInfoPvPS4_
N9c:_ft_raster1_render
UFc:__Z47Register_UnityEngine_Mesh_RecalculateBoundsImplv
fib:__ZN9GfxDevice27UpdateComputeSkinPoseBufferEP9GfxBufferP12SkinMeshInfo
iqk:__ZNKSt3__221__basic_string_commonILb1EE20__throw_length_errorEv
nzh:_EqualityComparer_1_System_Collections_IEqualityComparer_Equals_m245992594_gshared
Rih:_Array_InternalArray__IndexOf_TisParameterModifier_t1461694466_m1227120810_gshared
GRb:__ZN18GfxFramebufferGLES13ReadbackImageER14ImageReferenceiiiiii
uMc:__ZN5Unity9rapidjson6WriterI16TempBufferWriterNS0_4UTF8IcEES4_13JSONAllocatorE11WriteStringEPKcj
Iia:__ZN6prcoreL12RemapGenericI17TexFormatARGB888815TexFormatRGB565EEvPKNS_9InnerInfoE
iN:__ZN4FMOD7Channel19setReverbPropertiesEPK29FMOD_REVERB_CHANNELPROPERTIES
rmj:_StandardEventPayload_GetParameters_m2672427676
XZg:_StreamReader_Dispose_m156389394
O7:__ZN13MonoBehaviour22GetScriptFullClassNameEv
nyc:__ZN13ProduceHelperI11MonoManagerLb0EE7ProduceE10MemLabelId18ObjectCreationMode
f4i:_RIPEMD160Managed_JJ_m112143231
AZb:__ZN13BatchRendererC2ER15RenderLoopStatsRK15RenderNodeQueuebb
Egb:__ZNK16MemoryFileSystem9EnumerateEPKcP19dynamic_block_arrayI13FileEntryInfoLj32EEbPPv19FileEnumerationFlag
ZEb:__ZN13MonoBehaviour9CallAwakeEv
eIa:__ZN20SphericalHarmonicsL211AddWeightedERKS_f
Ygi:__Z82RuntimeInvoker_RuntimeObject_Int64_t3736567304_Int64_t3736567304_Int64_t3736567304PFvvEPK10MethodInfoPvPS4_
Etb:__Z19TransferField_ArrayI17RemapPPtrTransfer27Converter_SimpleNativeClassI8GUIStyleEEvRK23StaticTransferFieldInfoR31RuntimeSerializationCommandInfoRT0_
iNc:__ZN9JSONWrite8TransferI10ColorRGBAfEEvRT_PKc17TransferMetaFlags
Sod:__ZN11UnityEngine9Analytics22EventLimitResumedEventC2EjRKN4core12basic_stringIcNS2_20StringStorageDefaultIcEEEEb
h8:__Z25scripting_method_get_name18ScriptingMethodPtr
Xag:_SslCipherSuite_ComputeKeys_m661027754
BEf:_Object_set_name_m291480324
N9g:_Decimal_Equals_m2486655999
yhk:_GC_exit_check
R4h:__ZN16VirtFuncInvoker2Ii19Color32_t2600501292S0_E6InvokeEjP12Il2CppObjectS0_S0_
H1b:__Z34SetupObjectBakedOcclusionInForwardbRK15SharedLightDataRK26SharedLightmapSettingsDataRK15LightmapIndicesR17ShaderPassContext
$qh:_DSAManaged_get_Random_m923751780
A4:__ZL29TransformAccessChangeCallbackPK15TransformAccessj
hNf:_Vector3_set_Item_m1772472431_AdjustorThunk
hwg:_Interpreter_PopulateGroup_m4042796257
Dpd:__ZN9Scripting11UnityEngine10Networking18CertificateHandler9InitProxyEv
xsd:__ZN9Scripting11UnityEngine12Experimental2XR13TrackableType9InitProxyEv
FQh:_Type_GetProperty_m3414567179
U1j:__ZN6il2cpp2vm13LivenessState25FieldCanContainReferencesEP9FieldInfo
Xac:__ZNSt3__26vectorINS_4pairIN4core12basic_stringIcNS2_20StringStorageDefaultIcEEEES6_EE13stl_allocatorIS7_L18MemLabelIdentifier38ELi16EEE6insertENS_11__wrap_iterIPKS7_EERSD_
zzf:_RenderPipelineManager_DoRenderLoop_Internal_m3799666479
ED:__ZN9BlobWrite8TransferI22OffsetPtrArrayTransferI9OffsetPtrIN7mecanim12statemachine18StateMachineMemoryEEEEEvRT_PKc17TransferMetaFlags
_xc:__Z13RegisterClassI14PlayerSettingsEvPKc
df:_emscripten_glStencilOpSeparate
z1i:_Collection_1_System_Collections_IList_IndexOf_m3894953546_gshared
Y7i:_PKCS12_get_Certificates_m26161562
Rng:_NameObjectCollectionBase_Init_m2525481323
G0b:__ZN15SkyboxGenerator28GetCubemapSkyboxVertexFormatEv
Skb:__ZN19ShaderPropertySheet24SetTextureWithExplicitIDERK23FastTexturePropertyNameP7Texture9TextureID
mHh:_List_1_Insert_m1582252370_gshared
idk:__ZN6il2cpp2vm6String8NewUtf16EPKDsi
$of:_SByte_System_IConvertible_ToByte_m2268214252_AdjustorThunk
Tak:__ZN6il2cpp2os10ThreadImpl12QueueUserAPCEPFvPvES2_
lfj:_RegularExpression__ctor_m119502265
fpd:__ZN22BaseUnityConnectClient10QueueEventERN11UnityEngine15CloudWebService17CloudServiceEventEPKcjb
wWf:_DelegatePInvokeWrapper_RaycastAllCallback_t1884415901
p_h:_ReadOnlyCollection_1_System_Collections_Generic_ICollectionU3CTU3E_Clear_m522482168_gshared
kVd:_ConstructionCall_InitMethodProperty_m2021094586
VDc:__Z27Texture_CUSTOM_GetDataWidthP12Il2CppObject
L7c:_UNITY_FT_Hypot
cGe:__ZL74CanvasScaler_t2767979955_CustomAttributesCacheGenerator_m_DefaultSpriteDPIP21CustomAttributesCache
rXj:_il2cpp_class_is_abstract
xf:_emscripten_glGetError
zTj:__ZN15dense_hashtableINSt3__24pairIK10KeyWrapperIPK14Il2CppAssemblyEPK22Il2CppMonoAssemblyNameEES6_N6il2cpp5utils11PointerHashIS4_EEN14dense_hash_mapIS6_SA_SF_NS6_14EqualsComparerINS0_8equal_toIS5_EEEENS0_9allocatorISB_EEE9SelectKeyESK_SM_E14squash_deletedEv
yzg:_SmallXmlParser__ctor_m202236734
kO:__Z14FMOD_FILE_SeekPvjS_
EUf:_MaskableGraphic_OnDisable_m1757789159
rJa:__ZN7TextureC2E10MemLabelId18ObjectCreationMode
tSf:_LayoutGroup__ctor_m2162961217
hjd:__Z56Register_UnityEngine_Analytics_CustomEventData_AddStringv
qgd:__ZZN2UI6Canvas15InitializeClassEvEN39FunctorImpl_1449kCanvasHierarchyChanged4CallEPviR11MessageData
d8b:__ZNK13RenderTexture32CalculateNeedsInvertedProjectionEv
idc:__ZN10systeminfo18GetOperatingSystemEv
Ff:emscriptenWebGLGet
Caa:__Z19CanReplaceComponentRN5Unity9ComponentEPKNS_4TypeEPN4core12basic_stringIcNS5_20StringStorageDefaultIcEEEE
zKe:_UnmanagedMemoryStream_Flush_m1540584491
UQg:_GuidParser_ParseGuid2_m1914838819
iwc:__ZN12CubemapArray11InitTextureEiii13TextureFormatb
k4d:__ZL70ReliabilityContractAttribute_t502331440_CustomAttributesCacheGeneratorP21CustomAttributesCache
zYe:_InternalEnumerator_1_System_Collections_IEnumerator_get_Current_m55999184_gshared
mFd:_Graphic_get_depth_m815589653
hhj:_Event_set_displayIndex_m1342258734
SSf:_LayoutGroup_SetLayoutInputForAxis_m2458344630
lE:__ZN7mecanim5human13HumanFixTwistEPKNS0_5HumanEPNS_8skeleton13SkeletonPoseTIN4math4trsXEEES9_iiRKf
u1b:__ZL24AssignProjectorQueuesJobP30AssignProjectorQueuesJobHeader
fOd:_ParameterModifier_t1461694466_marshal_pinvoke
yjc:__ZNSt3__26vectorIN9ShaderLab20SerializedSubProgram15StructParameterENS_9allocatorIS3_EEE21__push_back_slow_pathIS3_EEvOT_
dSg:_Int16_System_IConvertible_ToUInt32_m3410279543
ljc:__ZN9ShaderLab20SerializedSubProgram14SetConstBufferEPKci
qOj:__ZN6il2cpp2os4File5CloseEPNS0_10FileHandleEPi
RGj:__ZNSt3__27__sort5IRN6il2cpp5utils11collections13ArrayValueMapIPK10Il2CppType17Il2CppInteropData26InteropDataToTypeConverterNS1_8metadata14Il2CppTypeLessENSA_26Il2CppTypeEqualityComparerEE12SortComparerEPS8_EEjT0_SH_SH_SH_SH_T_
X$c:_cf2_getStdVW
QRh:_UInt16_CompareTo_m2664746316_AdjustorThunk
bhb:__ZN9GfxDevice13SetActiveTierE12GraphicsTier
WRc:__Z29Transfer_Blittable_ArrayFieldI8JSONReadjEvRT_R9ArrayInfoRK23StaticTransferFieldInfo
Ehk:_GC_check_finalizer_nested
lg:__setLetterbox
LYf:_ScrollRect_OnScroll_m3861066534
Xif:_Dictionary_2_ToTKey_m224697230_gshared
Nqe:__ZL72FormerlySerializedAsAttribute_t2859083114_CustomAttributesCacheGeneratorP21CustomAttributesCache
sOf:_OnValidateInput_Invoke_m1009124904
acj:_PatternCompiler_EmitFastRepeat_m3012952683
O$a:__ZNSt3__26vectorI17BlendShapeChannelNS_9allocatorIS1_EEE6assignINS_11__wrap_iterIPS1_EEEENS_9enable_ifIXaasr21__is_forward_iteratorIT_EE5valuesr16is_constructibleIS1_NS_15iterator_traitsISA_E9referenceEEE5valueEvE4typeESA_SA_
hKb:__Z12SetGfxDeviceP9GfxDevice
bdc:__ZN11TimeManager11GetRealtimeEv
GO:__ZN29AudioEffectInternalDefinitionC2EP26UnityAudioEffectDefinitionb
o3h:_ReadOnlyCollection_1_System_Collections_IList_Remove_m2434650390_gshared
hSh:_UInt16_ToString_m3056878594_AdjustorThunk
exg:_Interval_get_IsSingleton_m3386290029
MWj:__ZNSt3__2plIcNS_11char_traitsIcEENS_9allocatorIcEEEENS_12basic_stringIT_T0_T1_EERKS9_PKS6_
XKf:_Time_get_unscaledDeltaTime_m4270080131
Nmd:__ZN18UnityConnectClient27OnPlayerSessionStateChangedEjyy
ePa:_stbir_resize
dih:_Array_IndexOf_TisCustomAttributeTypedArgument_t2723150157_m3158556463_gshared
Qch:_Environment_GetOSVersionString_m407782784
Jlg:_DecoderExceptionFallback_Equals_m1082173956
Q2d:__ZL69Assembly_t_CustomAttributesCacheGenerator_Assembly_GetName_m981771927P21CustomAttributesCache
cla:__ZL59__ManagedRegistrationHelperFunction_AsyncGPUReadbackRequestPv
hke:__ZL93Mesh_t3648964284_CustomAttributesCacheGenerator_Mesh_GetAllocArrayFromChannelImpl_m3084065604P21CustomAttributesCache
tHc:__ZNSt3__26__treeINS_12__value_typeI7Hash12816CrashReportEventEENS_19__map_value_compareIS2_S4_NS_4lessIS2_EELb1EEE13stl_allocatorIS4_L18MemLabelIdentifier6ELi16EEE7destroyEPNS_11__tree_nodeIS4_PvEE
Teb:__Z37ReadDirectoryInfo_UnityWebAndUnityRawR12FileAccessorRKN20ArchiveStorageHeader6HeaderERNS1_13DirectoryInfoE
O4:__ZNSt3__26__treeINS_12__value_typeIPKciEENS_19__map_value_compareIS3_S4_15compare_tstringIS3_ELb1EEENS_9allocatorIS4_EEE7destroyEPNS_11__tree_nodeIS4_PvEE
hmh:_Array_InternalArray__Insert_TisIntPtr_t_m189626842_gshared
tsg:_X509Certificate2_get_IssuerName_m1277209535
G3i:_RijndaelManaged_CreateEncryptor_m263736311
l_b:__ZN20DynamicPropertySheet14SetValueQueuedEN9ShaderLab16FastPropertyNameEN19ShaderPropertySheet12PropertyTypeEjNS2_8SetFlagsE
syf:_InvokableCallList_ClearPersistent_m1904264973
hGb:__ZN25PathNamePersistentManagerD2Ev
K5a:__ZN17PersistentManager48IntegrateObjectAndUnlockIntegrationMutexInternalEi
dha:__ZZ29InitializeSortingGroupManagerPvEN44PostLateUpdateSortingGroupsUpdateRegistrator7ForwardEv
Mze:__ZL55EventTrigger_t1076084509_CustomAttributesCacheGeneratorP21CustomAttributesCache
Ngg:_SecurityElement_SearchForChildByTag_m900466299
zp:__ZN6Object12SetHideFlagsENS_9HideFlagsE
F4g:_Convert_ToSingle_m3227075028
Jwk:_emscripten_glGetFramebufferAttachmentParameteriv__wrapper
t7b:__ZN13RendererScene15InitializeUmbraEv
rGa:__Z28CalculateGlobalMatrixInverse23TransformAccessReadOnly
UBh:_GenericEqualityComparer_1_Equals_m3457564127_gshared
C0f:_BigInteger_ModInverse_m2426215562
Flg:_DecoderExceptionFallback__ctor_m4044614564
EKe:_LocalDataStoreSlot__cctor_m644942532
Rlk:__ZN6il2cpp6icalls8mscorlib6System6Object7GetTypeEP12Il2CppObject
cNd:_MonoProperty_CachePropertyInfo_m2968057423
Lpd:__ZNK25UnityWebRequestJavaScript18GetDownloadedBytesEv
QGf:_Ray_GetPoint_m1852405345_AdjustorThunk
lIb:__Z21BeginSplashScreenFadev
Xpd:__ZN12HeaderHelper14SetUnvalidatedERKN4core12basic_stringIcNS0_20StringStorageDefaultIcEEEES6_b
OM:__ZN4FMOD6SoundI7releaseEv
y1c:_cff_parse_num
vfb:__ZN10MemoryFile9SetLengthEy
Kvb:__ZN5RectTIiE8TransferI24GenerateTypeTreeTransferEEvRT_
kMg:_Exception_get_ClassName_m2428844642
CFb:__Z28scripting_class_is_interface17ScriptingClassPtr
Ch:_glTexStorage2D
SNg:_CultureInfo_ConstructInternalLocaleFromName_m4012802696
VLa:__ZNK9ShaderLab10SubProgram14EnsureCompiledEv
WVe:_MethodBuilder_GetGenericArguments_m1765425737
k7g:_DateTime_CompareTo_m3687348273
tgk:_GC_push_marked
J7g:_DateTime_ToUniversalTime_m1945318289_AdjustorThunk
t3g:_Convert_ToInt16_m1336719169
Z7:__Z18BuildScriptClassId17ScriptingClassPtr
xwj:_TextGenerator_Init_m1168488231
ddb:__ZL31DeleteLastPathNameComponentImplRKN4core12basic_stringIcNS_20StringStorageDefaultIcEEEEPKc
C8g:_DBNull_System_IConvertible_ToUInt64_m4072736670
Qjd:__ZN18UnityConnectClient15GetCloudServiceEv
orb:__Z29Transfer_Blittable_ArrayFieldI14SafeBinaryRead5RectTIiEEvRT_R9ArrayInfoRK23StaticTransferFieldInfo
O0e:_InternalEnumerator_1_get_Current_m2698009637_gshared
sKj:__ZN6il2cpp2os19SocketHandleWrapperD2Ev
wFb:__ZL28SerializationCommandGroupForRK31TransferFunctionScriptingTraits17ScriptingClassPtr17ScriptingFieldPtrRK20CoreScriptingClasses
xva:__ZN10TagManager32RegisterDefaultTagsAndLayerMasksEv
qOh:_WaitHandle_Dispose_m738127030
$mi:__Z50RuntimeInvoker_Double_t594665363_Int32_t2950945753PFvvEPK10MethodInfoPvPS4_
Zvi:__Z104RuntimeInvoker_Void_t1185182177_Color_t2555686324_Single_t1397266774_SByte_t1669577662_SByte_t1669577662PFvvEPK10MethodInfoPvPS4_
aGh:_Enumerator_System_Collections_IEnumerator_get_Current_m1540440674_gshared
Jhg:_Single_System_IConvertible_ToInt16_m809233024_AdjustorThunk
jjd:__Z56Register_UnityEngine_Analytics_CustomEventData_AddUInt32v
vok:_fmodf
fla:__ZL47__ManagedRegistrationHelperFunction_CullResultsPv
OOb:__ZN4gles8InitCapsEP7ApiGLESP12GraphicsCapsR16GfxDeviceLevelGL
wPa:__ZN6prcore14BlitImageFloatERK14ImageReferenceRS0_NS0_8BlitModeE
MHa:__Z24CalculateVertexLightDataRK15SharedLightDataR14GfxVertexLight
ki:_glEnable
NRj:__ZN15dense_hashtableINSt3__24pairIK10KeyWrapperINS1_IPK12PropertyInfoP11Il2CppClassEEEjEES9_17ReflectionMapHashIS8_EN14dense_hash_mapIS9_jSD_NS9_14EqualsComparerINS0_8equal_toIS8_EEEENS0_9allocatorISB_EEE9SelectKeyESI_SK_E15insert_noresizeERKSB_
cqa:__ZN9Scripting11UnityEngine33ExcludeFromObjectFactoryAttribute12CleanupProxyEv
RLa:__ZNK9ShaderLab7Program28BeginReadUnsupportedVariantsEv
ita:__ZN12CachedWriter11Align4WriteEv
n4a:__ZNSt3__26vectorIN30RuntimeInitializeOnLoadManager9ClassInfoE13stl_allocatorIS2_L18MemLabelIdentifier13ELi16EEE7reserveEj
uNc:__Z35Transfer_Blittable_FixedBufferFieldI9JSONWriteiEvRK29SerializationCommandArgumentsR31RuntimeSerializationCommandInfo
iCh:_Enumerator__ctor_m1590062855_AdjustorThunk
xUj:__ZN14dense_hash_mapI10KeyWrapperINSt3__24pairIPK10MethodInfoP11Il2CppClassEEEj17ReflectionMapHashIS8_ENS9_14EqualsComparerINS1_8equal_toIS8_EEEENS1_9allocatorINS2_IKS9_jEEEEEC2EjRKSB_RKSF_
gA:__ZN26AnimatorControllerPlayable17ProcessRootMotionEP35AnimationPlayableEvaluationConstantP32AnimationPlayableEvaluationInputP33AnimationPlayableEvaluationOutput
bKe:_UnexceptionalStreamReader_Peek_m1842169584
Ukd:__ZN11UnityEngine7Connect15DeviceInfoEvent16CollectExtraInfoEv
Buf:_Bounds_GetHashCode_m1844059663_AdjustorThunk
tqf:_CryptographicException__ctor_m1422015889
FNf:_Vector4_Equals_m1779210055_AdjustorThunk
O5g:_Convert_ChangeType_m739676612
SUb:__ZN20ArchiveStorageReader10InitializeER15FileSystemEntryyb
xek:__ZThn8_N6il2cpp2vm13CachedCCWBaseINS0_13ManagedObjectEE6AddRefEv
gJd:_TypeBuilder_CreateType_m3375483507
fph:_ModulusRing_BarrettReduction_m167376748
bjf:_RemotingServices_GetRealProxy_m2081098851
Iqh:_BlockProcessor_Core_m189015002
Rwk:_emscripten_glScissor__wrapper
vo:FUNCTION_TABLE_viifi
wo:FUNCTION_TABLE_viiff
Xyg:_X501__cctor_m1166912714
M_d:__ZL37Type_t_CustomAttributesCacheGeneratorP21CustomAttributesCache
it:__ZN9Scripting11UnityEngine14AnimationState9InitProxyEv
bvf:_Bounds_ToString_m4208690781
wVj:__ZN6il2cpp2vm14TypeNameParser5ParseEb
aLe:_Math_Sqrt_m1297338011
l_g:_StreamWriter_Initialize_m3490883444
SQh:_Type_GetGenericArguments_m3500465462
SJj:__ZN15dense_hashtableINSt3__24pairIK10KeyWrapperIP9FieldInfoEiEES5_N6il2cpp5utils11PointerHashIS3_EEN14dense_hash_mapIS5_iSB_NS5_14EqualsComparerINS0_8equal_toIS4_EEEENS0_9allocatorIS7_EEE9SelectKeyESG_SI_E12resize_deltaEjj
vod:__ZN23UnityPurchasingSettingsC2Ev
kLd:_Module_IsDefined_m2423524910
SSe:_DerivedType_create_unmanaged_type_m747846525
cwe:__ZL60EventType_t3528516131_CustomAttributesCacheGenerator_repaintP21CustomAttributesCache
lAa:__ZN17GPUFenceInternals7ReleaseEv
cFe:__ZL66Selectable_t3250028441_CustomAttributesCacheGenerator_m_NavigationP21CustomAttributesCache
zAc:__ZN17MaterialScripting18CreateWithMaterialE21ScriptingObjectOfTypeI8MaterialEPS1_
e8b:__ZL10RenderFaceR9GfxDeviceR18MaterialStateCacheP13RenderTextureiif
cih:_Array_IndexOf_TisCustomAttributeNamedArgument_t287865710_m2817957199_gshared
wZh:_ReadOnlyCollection_1_System_Collections_IList_RemoveAt_m1980090087_gshared
l7i:_ExtendedKeyUsageExtension_ToString_m2116504780
R8a:__ZNK5Unity9Component38MarkGameObjectAndComponentDependenciesER27GarbageCollectorThreadState
BVg:_BinaryReader_Read_m3708759962
y8:__ZNK11TypeManager15ClassNameToRTTIEPKcb
Ika:__ZL57__ManagedRegistrationHelperFunction_DefaultExecutionOrderPv
tOb:__ZN9GfxDevice26CreateDefaultVertexBuffersEv
jyk:_emscripten_glVertexAttrib2fv__wrapper
nJe:_SynchronizedReader_ReadToEnd_m2160105378
ubh:_Double_System_IConvertible_ToUInt16_m4132603953_AdjustorThunk
gSa:__ZN4crnd12symbol_codec32decode_receive_static_data_modelERNS_25static_huffman_data_modelE
Xuc:__ZN18ScriptingArguments8AddFloatEf
sHd:_Image_set_fillOrigin_m469806249
Ikd:__ZN11UnityEngine15PlatformWrapper16GetVRRenderScaleEv
uOc:__Z18Transfer_BlittableI9JSONWriteLb0EaEvRK29SerializationCommandArgumentsR31RuntimeSerializationCommandInfo
ZX:__ZN11UnityEngine15CloudWebService14DataDispatcher34OnSessionContainerArchivedAndReadyERNS0_16SessionContainerE
HDf:_ConnectionChangeEvent__ctor_m764126802
EOd:_ResolveEventHandler_Invoke_m1337322179
UEh:_Enumerator_VerifyState_m2621680056_gshared
fgj:_UriParser_InternalRegister_m3643767086
Dec:__ZN14SafeBinaryRead19TransferSTLStyleMapINSt3__23mapIN4core12basic_stringIcNS3_20StringStorageDefaultIcEEEEiNS1_4lessIS7_EENS1_9allocatorINS1_4pairIKS7_iEEEEEEEEvRT_17TransferMetaFlags
n6c:_gray_move_to
y8g:_DBNull_System_IConvertible_ToSingle_m13713620
YGg:_Char_ToLowerInvariant_m1926695830
sZh:_ReadOnlyCollection_1_System_Collections_IList_Contains_m1327645028_gshared
FHd:_Image_GetDrawingDimensions_m3060965396
Vte:__ZL69FontTextureRebuildCallback_t2467502454_CustomAttributesCacheGeneratorP21CustomAttributesCache
jRh:_TypeLoadException__ctor_m1154572625
ZCc:__Z30RegisterValidateMethodCallbackiPF18ScriptingMethodPtrS_17ScriptingClassPtrP6ObjectEPKc
DNa:__ZNSt3__27__sort4IRPFbRKNS_4pairIN9ShaderLab16FastPropertyNameE10ColorRGBAfEES7_EPS5_EEjT0_SC_SC_SC_T_
$7f:_Context_get_WriteSequenceNumber_m1115956887
MKi:_Dictionary_2_Do_ICollectionCopyTo_TisKeyValuePair_2_t2401056908_m1169495264_gshared
zWe:_OpCodes__cctor_m3821715395
qBd:_ContentSizeFitter__ctor_m2349275633
D5c:_tt_cmap_init
NSc:__ZN8JSONRead8TransferI9BoundsIntEEvRT_PKc17TransferMetaFlagsb
mb:invoke_viidi
Ffb:__ZN25SingleBlockMemoryFileData9SetLengthEy
lJi:_Array_Sort_TisOrderBlock_t1585977831_m2922111197_gshared
dFd:_Graphic_OnRectTransformDimensionsChange_m3695755375
bpf:_SByte_System_IConvertible_ToChar_m1489191771_AdjustorThunk
EM:__ZN9AudioClip7CleanupEv
Vxc:__Z13RegisterClassI18DelayedCallManagerEvPKc
U_j:__ZNK15dense_hashtableINSt3__24pairIK10KeyWrapperIP11Il2CppClassES4_EES5_N6il2cpp8metadata16SZArrayClassHashEN14dense_hash_mapIS5_S4_SA_NS5_14EqualsComparerINS9_19SZArrayClassCompareEEENS0_9allocatorIS7_EEE9SelectKeyESE_SG_E12test_deletedEj
D3g:_Convert_ToInt16_m1223489986
oRc:__Z18Transfer_BlittableI8JSONReadLb0EdEvRK29SerializationCommandArgumentsR31RuntimeSerializationCommandInfo
tUd:_SynchronizationAttribute_EnterContext_m1660729920
fxj:_Canvas_get_referencePixelsPerUnit_m3420541976
fhj:_Event_get_current_m2393892120
ynj:_VertexHelper_Clear_m627349662
qLj:__ZN6il2cpp2vm21ThreadPoolCompartment13QueueWorkItemEP17Il2CppAsyncResult
yhb:__ZNK9GfxDevice13GetViewMatrixEv
AKe:_UnmanagedMemoryStream_Dispose_m2681886347
Q7a:__ZN17RemapPPtrTransferC2E24TransferInstructionFlagsb
M2g:_Convert_ToDecimal_m889385228
B9:__ZN8TypeTree8BlobReadERPKhS1_ib
XCg:_Array_Reverse_m3714848183
zDd:_Dropdown_ClearOptions_m4085591601
DAd:_CanvasUpdateRegistry_InternalRegisterCanvasElementForGraphicRebuild_m3522560454
X5a:__ZN18LoadSceneOperation23GetAllowSceneActivationEv
qya:__ZN6CameraD0Ev
yz:__ZN7mecanim12AndValueMaskILb0EEEvPKNS_14ValueArrayMaskEPS1_
b4a:__ZN14SafeBinaryRead21TransferSTLStyleArrayINSt3__26vectorIi13stl_allocatorIiL18MemLabelIdentifier13ELi16EEEEEEvRT_17TransferMetaFlags
pmg:_EncoderFallback__cctor_m3806755293
o_c:_raccess_guess_apple_double
mQb:__ZL18ProgramUniform1uivPK7ApiGLESjiihPKv
rwc:__ZN14Texture2DArray13RebuildMipMapEv
RDj:__ZN13Il2CppHashSetIPK17Il2CppGenericInstN6il2cpp8metadata21Il2CppGenericInstHashENS4_24Il2CppGenericInstCompareENSt3__29allocatorI10KeyWrapperIS2_EEEEC2EjRKS5_RKS6_
mpb:__Z18Transfer_BlittableI14SafeBinaryReadLb1EaEvRK29SerializationCommandArgumentsR31RuntimeSerializationCommandInfo
K9j:__ZN6il2cpp2gc16GarbageCollector14RemoveWeakLinkEPPv
mjc:__ZN9ShaderLab20SerializedSubProgram14AddVectorParamEPKcii15ShaderParamTypei
GQi:_List_1_GetEnumerator_m563931292_gshared
_fd:__ZN2UI14CanvasRenderer12CleanupClassEv
W$g:_Enumerator__ctor_m3362421874
h6j:__ZN6il2cpp2vm6Object3BoxEP11Il2CppClassPv
jZj:__ZN6il2cpp2vm6Thread7SetNameEP12Il2CppThreadP12Il2CppString
sZ:__ZN11UnityEngine15CloudWebService10RestClientINS0_23WebRequestRestHeaderMapEE16SetRequestHeaderERKN4core12basic_stringIcNS4_20StringStorageDefaultIcEEEESA_
g4a:__ZN30RuntimeInitializeOnLoadManager15ClassMethodInfo8TransferI14SafeBinaryReadEEvRT_
cVd:_ConstructionCall_InitDictionary_m2824447813
zW:__ZL22InitializeModule_Audiov
qgb:__ZN16MemoryFileSystem8IsLockedERK13FileEntryData
x0j:__ZN6il2cpp6icalls8mscorlib6System2IO6MonoIO5WriteEiP11Il2CppArrayiiPi
TBf:_Mathf_InverseLerp_m4155825980
ZJf:_HitInfo_SendMessage_m1343099429_AdjustorThunk
mki:__Z92RuntimeInvoker_RuntimeObject_RuntimeObject_RuntimeObject_SByte_t1669577662_SByte_t1669577662PFvvEPK10MethodInfoPvPS4_
_k:_emscripten_glBindRenderbuffer
sOi:_List_1_System_Collections_IList_Insert_m1011775503_gshared
thk:_GC_dirty_init
Q4j:__ZN6il2cpp2vm5Image33GetCachedMemoryMappedResourceFileEP24Il2CppReflectionAssembly
d5j:__ZN6il2cpp2vm5Field14GetValueObjectEP9FieldInfoP12Il2CppObject
Ldd:__ZNK2UI6Canvas16GetTargetDisplayEv
gjd:__Z63Register_UnityEngine_Analytics_CustomEventData_Internal_Destroyv
_Oh:_TimeSpan_CompareTo_m3633415627_AdjustorThunk
TEb:__ZN13MonoBehaviour17RemoveFromManagerEv
fNf:_Vector3_get_Item_m668685504_AdjustorThunk
eza:__ZN12ImageFilters14AddImageFilterERK11ImageFilter
qTd:_Context_NotifyDynamicSinks_m1841702879
Phj:_GUIUtility_get_pixelsPerPoint_m2369948084
zgg:_WindowsIdentity_System_Runtime_Serialization_IDeserializationCallback_OnDeserialization_m3428853631
e1:__ZN13MemoryManagerC2Ev
K0a:__ZN12SkinMeshInfo10DeallocateEPS_
mYf:_ScrollRect_SetDirty_m214267968
mEi:__Z74RuntimeInvoker_Int32_t2950945753_UIVertex_t4057497605_UIVertex_t4057497605PFvvEPK10MethodInfoPvPS4_
Kfb:__ZN20ArchiveStorageReader28AcquireAndPrefillUnusedBlockEjPNS_11CacheResultE
uEg:_Boolean_System_IConvertible_ToDateTime_m603510836
mwc:__Z12NHxRoughnessIA4_tEvP9Texture2DPT_iiii
jqh:_ASN1_get_Value_m1857007406
fX:__Z6simd4iiiii
Dab:__ZN9Transform5ResetEv
I3g:_Decimal_op_Explicit_m1842265407
_vb:__Z22TransferField_NonArrayI24GenerateTypeTreeTransfer16Converter_StringEvRK23StaticTransferFieldInfoR31RuntimeSerializationCommandInfoRT0_
Yka:__ZL47__ManagedRegistrationHelperFunction_FixedUpdatePv
Xxj:_CanvasRenderer_SetAlphaTexture_m2009567627
b2c:_UNITY_FT_CMap_New
LZe:_InternalEnumerator_1_get_Current_m4241643334_AdjustorThunk
oHb:__Z17MainLoopKeepalivePv
vHc:__ZN18CrashReportHandler25UnregisterGlobalCallbacksEv
R3e:_InternalEnumerator_1_get_Current_m1588647567_AdjustorThunk
Ank:_printf_core
w4d:__ZL51GCHandle_t3351438187_CustomAttributesCacheGeneratorP21CustomAttributesCache
UOf:_InputField_get_caretBlinkRate_m3620074524
ucg:_RSAPKCS1SignatureFormatter_CreateSignature_m3191980616
KLa:__ZN10builtintex16GetDefaultTexEnvE16TextureDimensionb
uSb:__ZL25CheckCopyTextureArgumentsRK7ApiGLESP11GLESTextureS3_
_Ak:_glDeleteShader__wrapper
dfa:__ZNK15PlayableMethods18InvokeOnGraphStartER18ScriptingObjectPtrRK9HPlayable
wvb:__Z29Transfer_Blittable_ArrayFieldI24GenerateTypeTreeTransferyEvRT_R9ArrayInfoRK23StaticTransferFieldInfo
yN:__ZN4FMOD7SystemI9playSoundE17FMOD_CHANNELINDEXPNS_5SoundEbPPNS_7ChannelE
rUg:_Int64_GetHashCode_m703091690
dma:__ZL60__ManagedRegistrationHelperFunction_ReflectionProbeBlendInfoPv
shj:_Event_get_commandName_m4275147343
xz:__ZN27AnimationLayerMixerPlayable17LayerMixerProcessEP35AnimationPlayableEvaluationConstantP32AnimationPlayableEvaluationInputP33AnimationPlayableEvaluationOutputM17AnimationPlayableFvS1_S3_S5_EMS_FvS1_S3_S5_ESA_MS_FvS5_S1_S3_S5_ifE
R2g:_Decimal_op_Implicit_m4256234411
$L:__ZN12AudioManager23VirtualRedirectTransferER18StreamedBinaryReadILb0EE
Qgi:__Z60RuntimeInvoker_RuntimeObject_RuntimeObject_Int16_t2552820387PFvvEPK10MethodInfoPvPS4_
TZg:_StreamReader__ctor_m3941437302
xqc:__Z57Register_UnityEngine_Transform_INTERNAL_get_localRotationv
Jtk:dynCall_viif
Bu:__ZN7mecanim4hand8HandPoseC2Ev
Rrc:__Z13RegisterClassIN5Unity9ComponentEEvPKc
hJe:_StringReader_ReadLine_m2337102945
ctb:__ZL26Transfer_SimpleNativeClassI17RemapPPtrTransfer8GradientLb0EEvRK29SerializationCommandArgumentsR31RuntimeSerializationCommandInfo
Fje:__ZL49Shader_t4151988712_CustomAttributesCacheGeneratorP21CustomAttributesCache
iB:__ZN17AnimationPlayable26DisconnectNoTopologyChangeEPS_i
TEg:_Boolean_Equals_m2410333903_AdjustorThunk
QUi:_List_1_System_Collections_IList_Contains_m2131605266_gshared
n_:__ZN13UploadHandlerD2Ev
_J:__GLOBAL__sub_I_Modules_AssetBundle_Public_1_cpp
isk:dynCall_viiiiiffi
pvj:_Hacker__ctor_m518604791
wc:_emscripten_glBlendFuncSeparate
I1i:_Collection_1_Add_m809543251_gshared
H5:__Z20scripting_string_newPKc
qfj:_Parser_IsSingleline_m326238187
uKg:_CollectionBase_get_Count_m1708965601
Qrf:_HMAC__ctor_m97939284
yUh:_ValueType_DefaultEquals_m2927252100
$Mc:__ZN9JSONWrite12AppendToNodeEPN5Unity9rapidjson12GenericValueINS1_4UTF8IcEE13JSONAllocatorEEPKcRS6_
qqh:_ASN1_ToString_m1340204511
Ssg:_X509ChainElementEnumerator_get_Current_m1301774989
utg:_X509Store_get_Certificates_m2149701265
yQh:_Type_GetField_m2961003358
BBe:__ZL144StandaloneInputModule_t2760469101_CustomAttributesCacheGenerator_StandaloneInputModule_t2760469101____allowActivationOnMobileDevice_PropertyInfoP21CustomAttributesCache
Eqa:__ZN9Scripting11UnityEngine13ComputeBuffer12CleanupProxyEv
WJh:_StringBuilder_set_Chars_m3548656617
iOj:__ZN6il2cpp2os4File17GetFileAttributesERKNSt3__212basic_stringIcNS2_11char_traitsIcEENS2_9allocatorIcEEEEPi
WE:__ZNSt3__26__sortIRPFbPKN8Animator11AnimatorJobES4_EPS4_EEvT0_S9_T_
wT:__ZN17AudioCustomFilterD2Ev
oBi:__Z56RuntimeInvoker_Void_t1185182177_MonoResource_t4103430009PFvvEPK10MethodInfoPvPS4_
mfk:_GC_unpromote_black_lists
VJ:__ZN9Scripting11UnityEngine2XR5Tango9GridIndex9InitProxyEv
qRb:__ZN18GfxFramebufferGLES18ReleaseFramebufferEP17RenderSurfaceBaseP14GfxContextGLES
eQc:__Z18Transfer_BlittableI8JSONReadLb1EiEvRK29SerializationCommandArgumentsR31RuntimeSerializationCommandInfo
R_:__ZN19CloudServiceHandler34HandleSaveFileWebRequestPlayerLoopEv
WA:__ZN7mecanim21ValueArrayReverseCopyEPKNS_18ValueArrayConstantEPKNS_10ValueArrayES2_PS3_PKi
Urd:__ZL47__ManagedRegistrationHelperFunction_XRNodeStatePv
PS:__Z31GetParentSampleClipFromInstancePN11SoundHandle8InstanceE
usc:__ZNK28RectTransformPropertyBinding13GetFloatValueERKN11UnityEngine9Animation10BoundCurveE
B8b:__ZN6Camera22StandaloneCustomRenderENS_10RenderFlagEP6ShaderRKN4core12basic_stringIcNS3_20StringStorageDefaultIcEEEEPNS_21PerformRenderFunctionE
xih:_Array_InternalArray__IndexOf_TisKeyValuePair_2_t2401056908_m4118889689_gshared
f5a:__ZNSt3__26vectorI4PPtrI6ObjectE13stl_allocatorIS3_L18MemLabelIdentifier52ELi16EEE6assignINS_11__wrap_iterIPS3_EEEENS_9enable_ifIXaasr21__is_forward_iteratorIT_EE5valuesr16is_constructibleIS3_NS_15iterator_traitsISD_E9referenceEEE5valueEvE4typeESD_SD_
kmk:__ZN6il2cpp2os16ThreadLocalValue8GetValueEPPv
xsg:_X509Certificate2_get_PublicKey_m370665820
IIj:__ZN6il2cpp2vm13MetadataCache14GetGenericInstEPKPK10Il2CppTypej
fU:__ZN13AudioListener17ReadExtensionNameEi
Zc:_glUniform1uiv
Dmd:__ZN11UnityEngine7Connect20RemoteConfigSettings35CallConfigUpdatedOnMainThreadStaticEPS1_
ap:setThrew
zbg:_SslClientStream_OnLocalPrivateKeySelection_m1934775249
ewc:__ZL21BuildEmptyCubeTexturePKci11ColorRGBA3217TextureColorSpace
UFg:_Byte_ToString_m721125428
Gec:__ZN14SafeBinaryRead21TransferSTLStyleArrayINSt3__26vectorIN9ShaderLab20SerializedSubProgramENS1_9allocatorIS4_EEEEEEvRT_17TransferMetaFlags
Wih:_Array_InternalArray__IndexOf_TisX509ChainStatus_t133602714_m48896230_gshared
fdb:__ZN19dynamic_block_arrayI13FileEntryInfoLj32EE4growEj
nQc:__Z15Transfer_StringI8JSONReadLb1EEvRK29SerializationCommandArgumentsR31RuntimeSerializationCommandInfo
s6a:__ZN16LightmapSettings15AppendLightmapsEiRK13dynamic_arrayI12LightmapDataLj0EE
zha:__ZN6prcoreL17RemapGenericFloatI17TexFormatRGBFloat15TexFormatRGHalfEEvPKNS_9InnerInfoE
r4c:_sfnt_load_face
zZc:_UNITY_FT_Render_Glyph_Internal
h1j:__ZNSt3__212basic_stringIDsNS_11char_traitsIDsEENS_9allocatorIDsEEE21__grow_by_and_replaceEjjjjjjPKDs
r2c:_UNITY_ft_service_list_lookup
TJc:__ZN5IMGUI21SelectReceivingWindowER8GUIStateb
esf:_HMAC_Initialize_m3157696427
Cok:___strchrnul
n2:__ZN13BaseAllocator13TryDeallocateEPv
qrg:_X509SubjectKeyIdentifierExtension__ctor_m2055934916
YLc:__ZN9Scripting19UnityEngineInternal5Input17NativeInputSystem9InitProxyEv
onj:_Toggle_OnSubmit_m1320104356
wnk:_sprintf
Ujc:__ZN9Scripting25CreateNullExceptionObjectE18ScriptingObjectPtr
ssh:_PrivateKeyInfo_DecodeRSA_m2889346634
jT:__ZN13AudioListener17RemoveFromManagerEv
sd:_glAttachShader
BBd:_ContentSizeFitter_SetLayoutHorizontal_m2833273874
qYh:_ReadOnlyCollection_1_System_Collections_IList_RemoveAt_m134366701_gshared
Txa:__ZNK6Camera19GetProjectionMatrixEv
NDe:__ZL70InputField_t3762917431_CustomAttributesCacheGenerator_m_SelectionColorP21CustomAttributesCache
uPf:_InputField_SetToCustomIfContentTypeIsNot_m2813459946
yie:__ZL70RuntimePlatform_t4159857903_CustomAttributesCacheGenerator_FlashPlayerP21CustomAttributesCache
nRg:_Guid_GetHashCode_m3042133858_AdjustorThunk
ysa:__Z38PreallocateObjectFromPersistentManagerib
pwg:_Interpreter_Backtrack_m2828876822
bRa:__ZNK9Texture2D20GetUnscaledTextureIDEv
rpf:_SByte_System_IConvertible_ToType_m4075253447
tth:_StrongName_get_PublicKey_m1841537984
qzk:_glFenceSync__wrapper
XLf:_Transform_INTERNAL_get_worldToLocalMatrix_m2730237241
Yhg:_Single_System_IConvertible_ToUInt64_m3299129161
gRa:__ZNK9Texture2D26CanReuploadDataToGfxDeviceEv
Z8d:__ZL63CodeAccessPermission_t2681295399_CustomAttributesCacheGeneratorP21CustomAttributesCache
R6a:__Z29ClearRepeatingLogMessageStatev
c2e:_InternalEnumerator_1_get_Current_m3191242573_gshared
LFg:_Byte_Equals_m1161982810_AdjustorThunk
Yca:__ZN21EnlightenSceneMappingaSERKS_
Bva:__ZN14SafeBinaryRead21TransferSTLStyleArrayI13dynamic_arrayI17SortingLayerEntryLj0EEEEvRT_17TransferMetaFlags
dWc:__ZL48__ManagedRegistrationHelperFunction_MeshColliderPv
iUb:__ZN7ApiGLESD2Ev
_wa:__ZN9Transform47ClearTransformHierarchyAndApplyToSerializedDataEv
CRc:__ZN8JSONRead21TransferSTLStyleArrayINSt3__26vectorI8MonoPPtr13stl_allocatorIS3_L18MemLabelIdentifier1ELi16EEEEEEvRT_17TransferMetaFlags
YQf:_InputField_IsSelectionVisible_m3622592134
CDg:_AssemblyLoadEventHandler_Invoke_m1462077361
wya:__ZN6Camera23VirtualRedirectTransferER19StreamedBinaryWriteILb0EE
Ztk:dynCall_fidi
lPj:__ZN15dense_hashtableINSt3__24pairIK10KeyWrapperINS1_IPK9FieldInfoP11Il2CppClassEEEjEES9_17ReflectionMapHashIS8_EN14dense_hash_mapIS9_jSD_NS9_14EqualsComparerINS0_8equal_toIS8_EEEENS0_9allocatorISB_EEE9SelectKeyESI_SK_E12resize_deltaEjj
_hj:_GUILayoutEntry__ctor_m2229197035
uBa:__ZN15dense_hashtableINSt3__24pairIKN9ShaderLab7Program23ShaderKeywordSetAndHashEPKNS2_10SubProgramEEES4_NS3_24ShaderKeywordHashFunctorEN14dense_hash_mapIS4_S8_SA_NS0_8equal_toIS4_EE13stl_allocatorIS9_L18MemLabelIdentifier67ELi16EEE9SelectKeyESD_SG_E15insert_noresizeERKS9_
Jpc:__ZNK13MonoBehaviour13GetScriptTypeEv
pJa:__ZN13RenderTexture12SetDimensionE16TextureDimension
lbg:_SslClientStream_set_ClientCertSelectionDelegate_m1261530976
Voa:__ZN9Scripting11UnityEngine16GradientColorKey9InitProxyEv
ie:_SDL_FreeRW
efd:__Z34CanvasRenderer_Get_Custom_PropCullP12Il2CppObject
PR:__ZN20SoundChannelInstance8getDelayE14FMOD_DELAYTYPEPjS1_
LBa:__ZNSt3__26vectorIN20GpuProgramParameters15StructParameterENS_9allocatorIS2_EEEC2ERKS5_
QXe:_ArrayReadOnlyList_1_Contains_m232667507_gshared
Emi:__Z77RuntimeInvoker_Boolean_t97287965_IntPtr_t_Int32_t2950945753_SByte_t1669577662PFvvEPK10MethodInfoPvPS4_
AFf:_PlayableHandle_GetPlayableType_m432385838_AdjustorThunk
nYc:__ZNSt3__26vectorIN20TextRenderingPrivate8FontImpl13CharacterInfoE13stl_allocatorIS3_L18MemLabelIdentifier1ELi16EEE8__appendEj
v:tempBigInt
vGi:_Array_InternalArray__Insert_TisKeyframe_t4206410242_m1558638568_gshared
qe:_emscripten_glVertexAttrib1fv
mfc:__ZNSt3__26vectorIN9ShaderLab20SerializedSubProgram12UAVParameterENS_9allocatorIS3_EEE7reserveEj
drk:__ZSt11__terminatePFvvE
oO:__ZN12AudioManager14systemCallbackEP11FMOD_SYSTEM24FMOD_SYSTEM_CALLBACKTYPEPvS3_
J6h:_Nullable_1_Equals_m4046255732_gshared
q1h:_ReadOnlyCollection_1_System_Collections_Generic_ICollectionU3CTU3E_Clear_m3451551308_gshared
mzd:_BaseMeshEffect_OnEnable_m3291426649
uHa:__ZN16ReflectionProbes16UpdateSampleDataEv
ckf:_TrackingServices_NotifyUnmarshaledObject_m2784831802
VIg:_ReadOnlyArrayListWrapper_Sort_m2577012511
Nka:__ZL46__ManagedRegistrationHelperFunction_UnityEventPv
AOg:_CultureInfo_GetCultureInfo_m56098747
o5b:__Z20AddActiveLocalLightsR11CullResultsR27LocalLightCullingParametersPPK15SharedLightDataPK8Vector4fRK9IndexListPfRSA_R12ActiveLightsSG_P5RectTIfEP13TargetEyeMask
Cs:__ZL53__ManagedRegistrationHelperFunction_AnimatorStateInfoPv
C2g:_Convert_ToDecimal_m1284148187
cVh:_Collection_1__ctor_m3489157029_gshared
fka:__ZL52__ManagedRegistrationHelperFunction_AndroidJNIHelperPv
T$c:_cf2_getNormalizedVector
Ne:_JS_Sound_Play
c5d:__ZL56_MethodBuilder_t600455149_CustomAttributesCacheGeneratorP21CustomAttributesCache
p2h:_ReadOnlyCollection_1_System_Collections_IList_set_Item_m1538987737_gshared
dec:__ZN9ShaderLab16SerializedShader8TransferI14SafeBinaryReadEEvRT_
DGd:_GridLayoutGroup_set_constraint_m3308895167
vVd:_ConstructionCallDictionary_SetMethodProperty_m3145285304
l1a:__ZN11TimeManagerD2Ev
JYe:_InternalEnumerator_1_System_Collections_IEnumerator_get_Current_m1503522504_gshared
nE:__ZN7mecanim8skeleton13SkeletonAlignEPKNS0_8SkeletonERKN4math7_float4ES7_i
gxc:__ZN19ShaderPropertySheet16SetVectorIndexedEN9ShaderLab16FastPropertyNameEifRK8Vector4fNS_8SetFlagsE
SPh:_Type_get_IsAbstract_m1120089130
lNf:_Vector3_get_normalized_m2454957984_AdjustorThunk
Pgj:_UriFormatException__ctor_m1115096473
HZj:__ZN15dense_hashtableINSt3__24pairIK10KeyWrapperINS1_IP11Il2CppClassjEEES4_EES6_N6il2cpp8metadata14ArrayClassHashEN14dense_hash_mapIS6_S4_SB_NS6_14EqualsComparerINSA_17ArrayClassCompareEEENS0_9allocatorIS8_EEE9SelectKeyESF_SH_E9copy_fromERKSK_j
Ijj:_GUIUtility_IsExitGUIException_m3644066650
J$:__ZN11UnityEngine15CloudWebService14DataDispatcher4StopEv
fSg:_Int16_System_IConvertible_ToUInt64_m134975563
ofc:__ZNSt3__26vectorIN9ShaderLab20SerializedSubProgram12UAVParameterENS_9allocatorIS3_EEE8__appendEj
UJc:__ZN5IMGUI9GUIWindow5OnGUIER8GUIState
Fhg:_Single_System_IConvertible_ToDecimal_m325860800_AdjustorThunk
rlh:_Array_InternalArray__ICollection_CopyTo_TisSingle_t1397266774_m455540885_gshared
Nja:__ZN17ScriptingGCHandle7AcquireE18ScriptingObjectPtr25ScriptingGCHandleWeakness
Toi:__Z74RuntimeInvoker_RuntimeObject_RuntimeObject_Int64_t3736567304_RuntimeObjectPFvvEPK10MethodInfoPvPS4_
Usk:dynCall_iifiii
WOa:__Z21HasAlphaTextureFormat13TextureFormat
lW:__ZN12AudioManager6UpdateEv
QOa:__ZN14ImageReference9BlitImageERKS_NS_8BlitModeE
cv:__ZN8Animator12AddToManagerEv
lug:_X509Chain__ctor_m2674663382
w0:__GLOBAL__sub_I_Runtime_Core_Callbacks_0_cpp
r1h:_ReadOnlyCollection_1_System_Collections_Generic_IListU3CTU3E_Insert_m1121807192_gshared
NFb:__ZN23CachedSerializationDataD2Ev
A7b:__ZNK25CameraStackRenderingState31CalculateStereoCameraTargetTypeEv
UGa:__ZN14RenderSettings23VirtualRedirectTransferER14SafeBinaryRead
k5e:_InternalEnumerator_1_get_Current_m114240259_gshared
$ak:__ZN6il2cpp2os10ThreadImpl15CurrentThreadIdEv
Vdg:_SymmetricAlgorithm_get_Key_m3241860519
PRf:_U3CMouseDragOutsideRectU3Ec__Iterator1_Reset_m2233410497
q0:__GLOBAL__sub_I_Runtime_Camera_5_cpp
e8c:_UNITY_tt_face_load_fpgm
Twa:__Z17IsObjectAvailablei
C1a:__ZN12InputManagerD0Ev
AMh:_ExecutionContext_Capture_m681135907
RZe:_InternalEnumerator_1_System_Collections_IEnumerator_get_Current_m2889979481_AdjustorThunk
Zpk:_posix_memalign
nqh:_ASN1_GetBytes_m3305539297
K7:__ZNK15MonoScriptCache7ReleaseEv
GCj:__ZN6il2cpp2vm5Class13HasReferencesEP11Il2CppClass
ag:_glBindTexture
nok:_snprintf
Tvi:__Z50RuntimeInvoker_RuntimeObject_Resources_t1597885468PFvvEPK10MethodInfoPvPS4_
iyk:_emscripten_glVertexAttrib1fv__wrapper
ryf:_InvokableCallList_RemoveListener_m1769379719
Hwc:__ZN16LevelGameManagerC2E10MemLabelId18ObjectCreationMode
Xoj:_AudioExtensionManager_RemoveExtensionFromManager_m442924172
_Cf:_MonoBehaviour_Internal_IsInvokingAll_m2820042090
Hwk:_emscripten_glGetProgramInfoLog__wrapper
Vt:__ZN25AnimatedPropertyEvaluator29BindCurveToScriptingObjectPtrERKN13AnimationClip10FloatCurveEj18ScriptingObjectPtrb
Ffg:_String_Equals_m1744302937
vxf:_Display__ctor_m501911701
MZh:_ReadOnlyCollection_1_System_Collections_Generic_IListU3CTU3E_Insert_m1020890112_gshared
fLg:_Hashtable__cctor_m4112166779
zCd:_DefaultControls_SetDefaultTextValues_m1943359795
W$b:__Z19SetupMotionMatricesR6CameraR18RPDataMotionVector
Nzj:__ZL7log2_64y
OF:__ZN26AnimatorControllerPlayable18PrepareForPlaybackERN7mecanim6memory9AllocatorE
aG:__ZN8Animator11AnimatorJob11AddPlayableEP17AnimationPlayablef
yGd:_GridLayoutGroup_get_cellSize_m2967185053
b6g:_CurrentSystemTimeZone_GetUtcOffset_m340358963
N7i:_PKCS12_Decrypt_m1280162536
_Ze:_InternalEnumerator_1_get_Current_m3081223448_gshared
lhj:_Event_get_isMouse_m1058251071
eEa:__ZN10VertexDataC2ERKS_17ShaderChannelMask10MemLabelId
cKg:_CaseInsensitiveHashCodeProvider_AreEqual_m1790260777
U2c:_otv_JSTF_validate
OBa:__ZN22CreateGpuProgramOutputC2Ev
Gyf:_PersistentCallGroup_Initialize_m4253175514
tEg:_Boolean_System_IConvertible_ToChar_m4279513009_AdjustorThunk
_Kg:_Hashtable__ctor_m1763145853
SNe:_NumberFormatter_ScaleOrder_m3813786990
tsh:_PrivateKeyInfo_DecodeDSA_m771724585
jxg:_Interval_get_Size_m4163671410_AdjustorThunk
Utc:__ZN8GUILayer12CleanupClassEv
BSh:_UInt32_System_IConvertible_ToSByte_m1061556466
Llf:_WellKnownClientTypeEntry__ctor_m2471908952
FCj:__ZN6il2cpp2vm5Class4InitEP11Il2CppClass
ga:invoke_vidi
gPe:_NumberFormatter_FormatRoundtrip_m19342689
plf:_RemotingServices_CreateClientProxyForContextBound_m783705199
nBc:__ZNK15GUIEventManager15GetEventAtIndexEi
bhd:__ZN2UI14CanvasRenderer17SyncDirtyElementsER8JobFence
aaf:_Enumerator_System_Collections_IEnumerator_get_Current_m3816090481_gshared
Wck:__ZN6il2cpp5utils11StringUtils15StringDuplicateEPKc
_xh:_DefaultComparer_Equals_m2480133610_gshared
eBa:__ZNK9ShaderLab21ShaderRasterStateDesc16ToGfxRasterStateEPK19ShaderPropertySheetS3_R14GfxRasterState
IJi:_Array_Sort_TisVector3_t3722313464_m1915176437_gshared
umk:__ZN6il2cpp2os9EventImplC2Ebb
OYf:_ScrollRect_OnInitializePotentialDrag_m3139711961
TRi:_List_1_get_Item_m2113769949_gshared
FUf:_MaskableGraphic_OnTransformParentChanged_m329502413
Z3:__Z20IsMatrixBuiltinParamPKcPi
nfg:_String_memcpy4_m979367827
yKh:_UnicodeEncoding_GetBytesInternal_m1902824297
Kwc:__ZN8Renderer19PostInitializeClassEv
Uhh:_Array_FindIndex_TisRuntimeObject_m2504082708_gshared
Zgd:__ZNSt3__26__treeINS_12__value_typeINS_4pairIKiS3_EEN2UI14DepthSortLayerEEENS_19__map_value_compareIS4_S7_NS_4lessIS4_EELb1EEE13stl_allocatorIS7_L18MemLabelIdentifier1ELi16EEE25__emplace_unique_key_argsIS4_JRKNS_21piecewise_construct_tENS_5tupleIJOS4_EEENSK_IJEEEEEENS2_INS_15__tree_iteratorIS7_PNS_11__tree_nodeIS7_PvEEiEEbEERKT_DpOT0_
E9i:_X509Chain_FindCertificateRoot_m1937726457
QZg:_StreamAsyncResult_get_AsyncWaitHandle_m3390046559
Okd:__ZN11UnityEngine15PlatformWrapper21GetVRPlayAreaGeometryER13dynamic_arrayI8Vector3fLj0EE
Iik:__ZN6il2cpp6icalls8mscorlib6System8Delegate23CreateDelegate_internalEP20Il2CppReflectionTypeP12Il2CppObjectP22Il2CppReflectionMethodb
bbf:_Enumerator_System_Collections_IEnumerator_get_Current_m921113401_AdjustorThunk
eFb:__ZN18DelayedCallManager18CancelCallDelayed2E4PPtrI6ObjectEPF15CallObjectStatePS1_PvES7_
Wua:__ZN25ThreadsafeLinearAllocator10ReallocateEPvji
Dob:__Z18Transfer_BlittableI14SafeBinaryReadLb1E11QuaternionfEvRK29SerializationCommandArgumentsR31RuntimeSerializationCommandInfo
$ga:__ZN18SpriteAtlasManagerD0Ev
vx:__ZN7mecanim9animation10SampleClipERKNS0_12ConstantClipEjPf
mXa:__ZN10Matrix4x4f8TransferI14SafeBinaryReadEEvRT_
qqf:_CryptographicUnexpectedOperationException__ctor_m2381988196
UTj:__ZN14dense_hash_mapI10KeyWrapperIPK22Il2CppGenericParameterEPK24MonoGenericParameterInfoN6il2cpp5utils11PointerHashIS2_EENS4_14EqualsComparerINSt3__28equal_toIS3_EEEENSD_9allocatorINSD_4pairIKS4_S7_EEEEE15set_deleted_keyERSJ_
LF:__ZN14AvatarPlayback8StopTimeEv
D0e:_InternalEnumerator_1_System_Collections_IEnumerator_get_Current_m4213507601_gshared
oba:__Z6AppendRKN4core12basic_stringIcNS_20StringStorageDefaultIcEEEEPKc
u6j:__ZN6il2cpp2vm6Object12NullableInitEPhP12Il2CppObjectP11Il2CppClass
_ma:__ZN9Scripting11UnityEngine16TrackedReference12CleanupProxyEv
$_c:__ZN20TextRenderingPrivate19NativeTextGeneratorC2ERK11UTF16StringPNS_8FontImplE11ColorRGBA32ifRK8Vector2fbifiibffbbP13dynamic_arrayIN2UI8UIVertexELj0EE
Ajj:_GUIUtility_RemoveCapture_m1294193818
eOb:__ZN7ApiGLES18ClearBufferSubDataEjN2gl12BufferTargetEll
Goc:__Z37Camera_Get_Custom_PropAllCamerasCountv
ZPa:__ZN14Texture2DArray8TransferI18StreamedBinaryReadILb0EEEEvRT_
HKc:__Z38Register_UnityEngine_GUIStyle_get_namev
I9c:_Split_Cubic
$a:invoke_fiiii
mRf:_InputField_OnSubmit_m3583210804
$fj:_Uri_CheckHostName_m2213216182
fyk:_emscripten_glBindRenderbuffer__wrapper
oLi:_Mesh_SetUvsImpl_TisVector2_t2156229523_m3009194955_gshared
y2f:_HMAC_set_Key_m3535779141
KJi:_Array_Sort_TisVector4_t3319028937_TisVector4_t3319028937_m4254533673_gshared
nIg:_ArrayListWrapper_Contains_m2641184447
t9c:_ft_black_render
$li:__Z177RuntimeInvoker_Int32_t2950945753_RuntimeObject_Int32_t2950945753_Int32_t2950945753_RuntimeObject_Int32_t2950945753_EncoderFallbackBufferU26_t2343550713_CharU5BU5DU26_t3299466565PFvvEPK10MethodInfoPvPS4_
euk:dynCall_viiifi
TQb:__ZN18GfxFramebufferGLES20ActiveContextChangedEPP17RenderSurfaceBaseS2_
mlb:__Z19PluginsRenderMarkeri
OI:__ZN10HumanTrait18InitializeBoneNameEv
vfc:__ZNSt3__26vectorIN9ShaderLab20SerializedSubProgram15StructParameterENS_9allocatorIS3_EEE6assignINS_11__wrap_iterIPS3_EEEENS_9enable_ifIXaasr21__is_forward_iteratorIT_EE5valuesr16is_constructibleIS3_NS_15iterator_traitsISC_E9referenceEEE5valueEvE4typeESC_SC_
V4j:__ZNSt3__214__split_bufferIN6il2cpp2vm5Image20EmbeddedResourceDataERNS_9allocatorIS4_EEEC2EjjS7_
Aue:__ZL66SkeletonBone_t4134054672_CustomAttributesCacheGenerator_parentNameP21CustomAttributesCache
Vid:__Z69Register_UnityEngine_Analytics_UnityAnalyticsHandler_Internal_Destroyv
vtg:_X509Certificate2Collection_Add_m3151757943
c9e:_Comparer_1__cctor_m951016718_gshared
GXc:__ZN9Scripting11UnityEngine13CharacterInfo9InitProxyEv
gKg:_CaseInsensitiveHashCodeProvider_get_DefaultInvariant_m4264275163
rmi:__Z195RuntimeInvoker_Int32_t2950945753_RuntimeObject_Int32_t2950945753_Int32_t2950945753_Int32_t2950945753_RuntimeObject_DecoderFallbackBufferU26_t3866396827_ByteU5BU5DU26_t4057885439_SByte_t1669577662PFvvEPK10MethodInfoPvPS4_
mX:__ZN5physx14PxLightCpuTask12addReferenceEv
zDa:__ZNK15InstancingProps35FillInstanceBufferDispatchConstantsIN10Instancing14RenderLoopArgsEEEvPPvjjRK19ShaderPropertySheetRKT_
Uzi:__Z86RuntimeInvoker_Int32_t2950945753_Color32_t2600501292_Color32_t2600501292_RuntimeObjectPFvvEPK10MethodInfoPvPS4_
AWa:__ZN21EnlightenSceneMapping8TransferI19StreamedBinaryWriteILb0EEEEvRT_
n7j:__ZN6il2cpp2gc16GarbageCollector19InitializeFinalizerEv
YA:__ZN7mecanim8skeleton18CreateSkeletonMaskEjPKNS0_19SkeletonMaskElementERNS_6memory9AllocatorE
rLc:__ZN10GUIManager10DoGUIEventER10InputEventb
wub:__Z35Transfer_Blittable_FixedBufferFieldI24GenerateTypeTreeTransferxEvRK29SerializationCommandArgumentsR31RuntimeSerializationCommandInfo
I3c:_otv_LangSys_validate
gIf:_RectOffset_get_right_m2294081512
Psj:__ZL25UnresolvedVirtualCall_154P12Il2CppObjectfPK10MethodInfo
TGi:_Array_InternalArray__set_Item_TisLink_t544317964_m1234244240_gshared
k8c:_UNITY_TT_Init_Glyph_Loading
kof:_SerializationInfo_GetBoolean_m1756153320
dQ:__Z32AudioMixerDuckingProcessCallbackP21UnityAudioEffectStatePfS1_jii
BCf:_Mesh_get_uv2_m3615020997
Ivc:__ZN26CustomRenderTextureManagerD2Ev
nrc:__Z32Input_Get_Custom_PropInputStringv
Vyh:_EqualityComparer_1_System_Collections_IEqualityComparer_Equals_m4172006498_gshared
eM:__ZN12AudioManager8TransferI24GenerateTypeTreeTransferEEvRT_
IBf:_Mathf_Round_m4098141538
sIa:__Z25GetBytesFromTextureFormat13TextureFormat
U$j:__ZN6il2cpp6icalls8mscorlib6System9Threading6Thread20Thread_free_internalEP12Il2CppThreadi
RIb:__ZNK11PreloadData18GetInstanceIDArrayER13dynamic_arrayIiLj0EE
dze:__ZL64UnityAnalyticsHandler_t3011359618_CustomAttributesCacheGeneratorP21CustomAttributesCache
iog:__KeysEnumerator_get_Current_m2996478063
H8:__Z32scripting_class_get_assemblyname17ScriptingClassPtr
Kkd:__ZN11UnityEngine15PlatformWrapper15GetVRDeviceNameEv
Fvi:__Z99RuntimeInvoker_Boolean_t97287965_Int32_t2950945753_PointerEventDataU26_t867828220_SByte_t1669577662PFvvEPK10MethodInfoPvPS4_
j$e:_InternalEnumerator_1_get_Current_m2128158355_AdjustorThunk
Iib:__ZN9GfxDevice21RegisterNativeTextureE9TextureIDi16TextureDimension
iFd:_GraphicRegistry__ctor_m1851575309
yBi:__Z52RuntimeInvoker_Void_t1185182177_Keyframe_t4206410242PFvvEPK10MethodInfoPvPS4_
Kjk:__ZN6il2cpp6icalls8mscorlib6System10Reflection4Emit11TypeBuilder20create_generic_classEP27Il2CppReflectionTypeBuilder
cRb:__ZNK16UniformCacheGLES6SubmitEjRK13dynamic_arrayIN20GpuProgramParameters14ValueParameterELj0EERKS0_IiLj0EE
Gfh:_PlayableHandle_IsPlayableOfType_TisAnimationLayerMixerPlayable_t3631223897_m201603007_gshared
IU:__Z60Register_UnityEngine_AudioListener_GetNumExtensionPropertiesv
Vi:_emscripten_glUniformMatrix4fv
WZj:__ZN15dense_hashtableINSt3__24pairIK10KeyWrapperINS1_IP11Il2CppClassjEEES4_EES6_N6il2cpp8metadata14ArrayClassHashEN14dense_hash_mapIS6_S4_SB_NS6_14EqualsComparerINSA_17ArrayClassCompareEEENS0_9allocatorIS8_EEE9SelectKeyESF_SH_E13set_empty_keyERKS8_
p0e:_InternalEnumerator_1_get_Current_m3839250771_AdjustorThunk
qCk:b100
ECf:_Mesh_get_colors32_m1253190811
Wfk:_GC_stopped_mark
lsd:__ZL59__ManagedRegistrationHelperFunction_SubsystemDescriptorBasePv
vtf:_AnimationCurve_Finalize_m2397002729
L$f:_Text_OnEnable_m616205807
XFi:__Z50RuntimeInvoker_RuntimeObject_ColorTween_t809614380PFvvEPK10MethodInfoPvPS4_
aRf:_InputField_OnFillVBO_m3649106646
Rnf:_SerializationCallbacks__cctor_m1674315180
jIj:__ZNK15dense_hashtableI10KeyWrapperIPK19Il2CppGenericMethodES4_N6il2cpp8metadata23Il2CppGenericMethodHashEN14dense_hash_setIS4_S7_NS4_14EqualsComparerINS6_26Il2CppGenericMethodCompareEEENSt3__29allocatorIS4_EEE8IdentityESB_SE_E23find_position_with_hashERKS4_j
GAa:__ZNSt3__26vectorIN12FlareManager10FlareEntryENS_9allocatorIS2_EEE21__push_back_slow_pathIS2_EEvOT_
jic:__ZN9ShaderLab20SerializedSubProgram16TextureParameter8TransferI19StreamedBinaryWriteILb0EEEEvRT_
Yta:__ZNK7Hash12812PackToUInt32Ev
oJg:_SynchronizedArrayListWrapper_IndexOf_m3642674350
R$:__ZN11UnityEngine15CloudWebService16SessionContainer8AddEventEPNS0_14CloudEventInfoE
Nmb:__Z4TrimRKN4core12basic_stringIcNS_20StringStorageDefaultIcEEEES5_
EKi:_Dictionary_2_Do_ICollectionCopyTo_TisKeyValuePair_2_t3842366416_m1399105608_gshared
Hsg:_X509Certificate2_Import_m4026562329
ecf:_Enumerator_System_Collections_IEnumerator_get_Current_m2763095718_AdjustorThunk
ozk:_glGetStringi__wrapper
iXa:__ZN10VertexData8TransferI14SafeBinaryReadEEvRT_
wga:__ZN13RuntimeStaticI12AdsIdHandlerLb0EE16StaticInitializeEPv
Khk:_GC_malloc_atomic
aRd:_ActivatedClientTypeEntry_ToString_m2494181680
UCh:_HashSet_1_GetEnumerator_m3346268098_gshared
xkk:__ZN6il2cpp5utils6Memory13AlignedMallocEjj
sRf:_Selectable_get_animator_m2899312855
K6:__ZL20SortItemByInstanceIDRKN18AwakeFromLoadQueue4ItemES2_
UMf:_Vector2_op_Multiply_m2347887432
Aog:_TypeConverterAttribute__ctor_m1774069684
hB:__ZNK34AnimationStateMachineMixerPlayable26GetInterruptedPosePlayableEv
xnd:__ZN20UnityConnectSettings8TransferI24GenerateTypeTreeTransferEEvRT_
QD:__ZN34BlobWriteTransferSTLStyleArrayImplI22OffsetPtrArrayTransferIbEEclERS1_17TransferMetaFlagsR9BlobWrite
cvc:__ZZN12MeshRenderer15InitializeClassEvEN29FunctorImpl_205kDidDeleteMesh4CallEPviR11MessageData
tzg:_Byte_ToString_m4063101981
vMe:_MonoType_GetConstructors_m2574682189
qpg:_ServicePointManager_FindServicePoint_m4119451290
Hda:__ZL31InitializeRendererUpdateManagerPv
QNd:_ParameterInfo__ctor_m2779026345
lPf:_InputField_set_onValueChange_m1251390545
Gma:__ZN9Scripting11UnityEngine18WaitForFixedUpdate12CleanupProxyEv
Zla:__ZL46__ManagedRegistrationHelperFunction_RectOffsetPv
nOe:_NumberFormatter_get_IsZeroInteger_m2263284741
b6i:_X509Certificate_PEM_m2020851166
bmh:_Array_InternalArray__Insert_TisDateTime_t3738529785_m2308632330_gshared
A1a:__ZN11TimeManager8TransferI19StreamedBinaryWriteILb0EEEEvRT_
n9f:_TlsServerCertificateRequest_ProcessAsTls1_m3214041063
c4c:_compare_uni_maps
zld:__ZN11UnityEngine15PlatformWrapper27GetGraphicsCapsSupportFlagsEv
FKi:_Dictionary_2_Do_ICollectionCopyTo_TisRuntimeObject_m3695543300_gshared
cyb:__ZN12NativeBufferI16Converter_StringE15SetupForWritingER9ArrayInfo
Rph:_SequentialSearchPrimeGeneratorBase_GenerateSearchBase_m3595783982
$J:__ZN13RuntimeStaticI18AssetBundleManagerLb1EE16StaticInitializeEPv
Ivk:___cxa_end_catch__wrapper
dHg:_Char_ToString_m278452217
_Yh:_ReadOnlyCollection_1_System_Collections_IList_set_Item_m4047645019_gshared
osd:__ZL50__ManagedRegistrationHelperFunction_ReferencePointPv
g1f:_BigInteger_op_RightShift_m460065452
sHc:__ZN18CrashReportHandler12CloseServiceEv
D0j:__ZN6il2cpp6icalls8mscorlib6System5Array13ClearInternalEP11Il2CppArrayii
HVf:_RectMask2D_get_rootCanvasRect_m2913509457
had:__Z38TextGenerator_Get_Custom_PropLineCountP12Il2CppObject
m5i:_InternalAsyncResult_SetComplete_m963842420
Bkg:_Encoding_GetEncoding_m2801244948
RLc:__ZN11IMGUIModule25GetGUIStyleScriptingClassEv
C6c:_tt_get_interface
q5i:_SslStreamBase_EndRead_m495357226
F$j:__ZN6il2cpp5utils9PathUtils7CombineIcEENSt3__212basic_stringIT_NS3_11char_traitsIS5_EENS3_9allocatorIS5_EEEERKSA_SC_
Loi:__Z64RuntimeInvoker_RuntimeObject_SByte_t1669577662_SByte_t1669577662PFvvEPK10MethodInfoPvPS4_
Rzc:__ZN13PlayableGraph21InvalidateMultithreadEv
ajj:_GUIScrollGroup_CalcHeight_m3173593443
LTe:_EnumBuilder_GetConstructorImpl_m3068576149
K5:__Z18ConvertUTF16toUTF8PPKtS0_PPhS2_15ConversionFlags
Ebk:__ZN6il2cpp2os20PathErrnoToErrorCodeERKNSt3__212basic_stringIcNS1_11char_traitsIcEENS1_9allocatorIcEEEEi
DDe:__ZL68InputField_t3762917431_CustomAttributesCacheGenerator_m_KeyboardTypeP21CustomAttributesCache
cCc:__Z24GetActualTargetFrameRatev
Azj:__ZL16my_g_bit_nth_msfj
Fdg:_SHA512Managed_Sigma1_m922902398
FXi:_Enumerator_MoveNext_m3662315381_AdjustorThunk
X8f:_TlsClientFinished_ProcessAsTls1_m2429863130
ZYb:__Z23SetupStereoFlareElementP11FlareVertexRK8Vector2fS3_S3_RK11ColorRGBA32RK10Matrix4x4fRK8Vector3fb
TCj:__ZN6il2cpp2vm5Class15GetInstanceSizeEPK11Il2CppClass
sa:invoke_iiiifiiii
HDb:__ZNSt3__224__buffered_inplace_mergeIRN10vector_mapI17ScriptingClassPtrPKN5Unity4TypeENS_4lessIS2_EENS_9allocatorINS_4pairIS2_S6_EEEEE13value_compareENS_11__wrap_iterIPSB_EEEEvT0_SJ_SJ_T_NS_15iterator_traitsISJ_E15difference_typeESN_PNSM_10value_typeE
QMf:_Vector2_Equals_m832062989_AdjustorThunk
Ldf:_ShimEnumerator_MoveNext_m2406150314_gshared
wRb:__ZL19BlitFramebufferImplRN4gles23BlitFramebufferDrawQuadER9GfxDevice9TextureIDRK8Vector4f
OPj:__ZN15dense_hashtableINSt3__24pairIK10KeyWrapperIPK10Il2CppTypeEjEES6_N6il2cpp8metadata14Il2CppTypeHashEN14dense_hash_mapIS6_jSB_NS6_14EqualsComparerINSA_26Il2CppTypeEqualityComparerEEENS0_9allocatorIS8_EEE9SelectKeyESF_SH_E4findERS7_
Ssk:dynCall_viiiiiiiiiiiiii
d_c:_UNITY_FT_List_Add
gwc:__ZN14Texture2DArray11InitTextureEiii13TextureFormatb
Z6i:_X509Extension__ctor_m1474351312
i9h:_InvokableCall_1_Invoke_m1524307439_gshared
VVg:_Directory_CreateDirectoriesInternal_m3735342319
fFc:__Z41Camera_CUSTOM_WorldToScreenPoint_InjectedP12Il2CppObjectRK8Vector3fRS1_
CTf:_LayoutUtility_GetLayoutProperty_m3731360667
JUj:__ZN15dense_hashtableINSt3__24pairIK10KeyWrapperINS1_IPK11Il2CppImageP11Il2CppClassEEEjEES9_17ReflectionMapHashIS8_EN14dense_hash_mapIS9_jSD_NS9_14EqualsComparerINS0_8equal_toIS8_EEEENS0_9allocatorISB_EEE9SelectKeyESI_SK_E14squash_deletedEv
Kdg:_SHAConstants__cctor_m1699027474
s1b:__ZNK6Camera26GetStereoSingleCullEnabledEv
r4a:__Z14resize_trimmedINSt3__26vectorIN4core12basic_stringIcNS2_20StringStorageDefaultIcEEEE13stl_allocatorIS6_L18MemLabelIdentifier13ELi16EEEEEvRT_j
k0:__GLOBAL__sub_I_Runtime_2D_SpriteAtlas_0_cpp
lpb:__Z18Transfer_BlittableI14SafeBinaryReadLb0EaEvRK29SerializationCommandArgumentsR31RuntimeSerializationCommandInfo
hHg:_CharEnumerator_System_Collections_IEnumerator_get_Current_m1328529384
m8g:_DBNull__ctor_m3431698857
ZUa:__ZN4core8hash_setINS_4pairIKiiLb0EEENS_9hash_pairINS_4hashIiEES2_iEENS_10equal_pairINSt3__28equal_toIiEES2_iEEE6insertERKS3_
Fyj:_AnimationLayerMixerPlayable__ctor_m860721801
u8c:_UNITY_FT_List_Iterate
CGg:_Char_System_IConvertible_ToUInt64_m3536560782
pyh:_EqualityComparer_1__cctor_m3452395357_gshared
xXb:__Z20SyncFenceCullResultsR11CullResults
cTb:__ZN15TextureTFMethod20IsBoneCountSupportedEi
Lbh:_Double_ToString_m3828879243_AdjustorThunk
Htb:__Z22TransferField_NonArrayI17RemapPPtrTransfer27Converter_SimpleNativeClassI8GUIStyleEEvRK23StaticTransferFieldInfoR31RuntimeSerializationCommandInfoRT0_
JJe:_TextReader_Synchronized_m3004980758
zqd:__ZNK20UnityWebRequestProtoI24UnityWebRequestTransport16AtomicRefCounter14RedirectHelper14ResponseHelper15DownloadHandler13UploadHandler18CertificateHandler12HeaderHelper14AsyncOperationE16GetUploadedBytesEv
Qqc:__ZNK17AnimationCurveTplIfE20EvaluateWithoutCacheEfRf
Nsi:__Z67RuntimeInvoker_Boolean_t97287965_Rect_t2360479859_SByte_t1669577662PFvvEPK10MethodInfoPvPS4_
XBa:__ZN19ShaderPropertySheet10SetTextureERK23FastTexturePropertyNameP7Texture
xRe:_CustomAttributeData__ctor_m2966233049
qAd:_CanvasUpdateRegistry_PerformUpdate_m1793997159
n8f:_Context_set_ClientWriteIV_m3405909624
PAc:__ZN4Mesh10SetNormalsEPK8Vector3fj
zkj:_AesManaged_CreateDecryptor_m692040246
Nck:__ZNSt3__212basic_stringIDsNS_11char_traitsIDsEENS_9allocatorIDsEEE9__grow_byEjjjjjj
GH:__ZN17AnimationCurveTplIfE8TransferI14SafeBinaryReadEEvRT_
ZGi:_Array_InternalArray__set_Item_TisInt16_t2552820387_m2544074754_gshared
FBg:_ArithmeticException__ctor_m3551809662
lbc:__Z29StdTemplateConversionFunctionIybEbPvR14SafeBinaryRead
GTa:__ZNSt3__26vectorIN15QualitySettings14QualitySettingENS_9allocatorIS2_EEE6assignIPS2_EENS_9enable_ifIXaasr21__is_forward_iteratorIT_EE5valuesr16is_constructibleIS2_NS_15iterator_traitsIS9_E9referenceEEE5valueEvE4typeES9_S9_
Tyh:_EqualityComparer_1__cctor_m3995042002_gshared
jIh:_List_1_CheckCollection_m1671972112_gshared
Jbf:_Enumerator_System_Collections_IEnumerator_get_Current_m1747693366_gshared
KKh:_UnicodeEncoding_GetPreamble_m3002287178
CWc:__GLOBAL__sub_I_artifacts_WebGL_codegenerator_0_cpp_5477
Doj:_AudioSource_get_spatialize_m3609701298
LFe:__ZL56Toggle_t2735377061_CustomAttributesCacheGenerator_m_IsOnP21CustomAttributesCache
tmb:__ZN20GpuProgramParameters14AddVectorParamEPKcii15ShaderParamTypeiiiP16PropertyNamesSet
ypd:__ZN9Scripting19UnityEngineInternal15WebRequestUtils12CleanupProxyEv
Vpd:__ZNK12HeaderHelper3GetERKN4core12basic_stringIcNS0_20StringStorageDefaultIcEEEE
T1a:__ZN9InputAxis8TransferI14SafeBinaryReadEEvRT_
Z6:__ZNK21ExecutionOrderManager30GetCustomAwakeFromLoadQueueForEPKN5Unity4TypeE
Tod:__Z27RegisterModule_UnityConnectv
Zsc:__ZZL31RegisterRectTransformPropertiesR22GenericPropertyBindingEN32Wrapper_RectTransformSizeDeltax013GetFloatValueEPv
TYg:_MemoryStream_Expand_m3554752073
eTj:__ZN6il2cpp2vm10Reflection27GetCustomAttributesCacheForEP25Il2CppReflectionParameter
KJf:_ScriptableObject_CreateInstance_m2611081756
Vlf:_ObjectRecord_get_IsInstanceReady_m2304516395
j5e:_InternalEnumerator_1_System_Collections_IEnumerator_get_Current_m1635397542_gshared
yZg:_Path__cctor_m3273994011
$kj:_AnalyticsEventTracker__ctor_m3064238498
jrk:__ZNSt11logic_errorD2Ev
H6g:_DateTimeUtils_CountRepeat_m3396693018
aVh:_WeakReference_get_Target_m168713953
uxk:_glBindRenderbuffer__wrapper
eP:__ZN10ObjectPoolIN4FMOD12ChannelGroupENS0_13ChannelGroupIEE7SetSizeEi
kkj:_SymmetricTransform_FinalDecrypt_m764004682
fbk:__ZN6il2cpp2os10ThreadImpl33UnregisterCurrentThreadForCleanupEv
ITc:__ZN9Scripting11UnityEngine26ParticleSystemVertexStream9InitProxyEv
Wcj:_Parser_ParseGroupingConstruct_m263270497
Rod:__ZN11UnityEngine9Analytics22EventLimitReachedEventC2EjyyRKN4core12basic_stringIcNS2_20StringStorageDefaultIcEEEEb
PUj:__ZN14dense_hash_mapI10KeyWrapperINSt3__24pairIPK9EventInfoP11Il2CppClassEEEj17ReflectionMapHashIS8_ENS9_14EqualsComparerINS1_8equal_toIS8_EEEENS1_9allocatorINS2_IKS9_jEEEEE15set_deleted_keyERSH_
Zqb:__Z14resize_trimmedINSt3__26vectorI17AnimationCurveTplIfE13stl_allocatorIS3_L18MemLabelIdentifier1ELi16EEEEEvRT_j
ipc:__Z12GUIDToStringRK9UnityGUID
LNf:_Vector4_op_Division_m264790546
IR:__ZN11SoundHandleC2ERKS_
qv:__ZN17AnimationPlayableC2E18DirectorPlayerType
nOf:_InputField_set_shouldHideMobileInput_m1650743574
nIj:__ZNK6il2cpp5utils11collections13ArrayValueMapIPK10Il2CppType17Il2CppInteropData26InteropDataToTypeConverterNS_8metadata14Il2CppTypeLessENS8_26Il2CppTypeEqualityComparerEE10find_firstERKS5_
oXg:_FileStream_get_CanSeek_m331583577
wr:__ZNSt3__26__sortIR23DependencySortPredicatePN4core4pairIiP9BehaviourLb0EEEEEvT0_S9_T_
trf:_DSAParameters_t1885824122_marshal_pinvoke_back
RB:__ZN8Animator22OnGraphTopologyChangedEP8Playablei
Gph:_Kernel_MultiplyByDword_m1266935086
Zx:__ZN17AnimationPlayable18DeallocateBindingsEv
iii:__Z158RuntimeInvoker_Boolean_t97287965_RuntimeObject_Int32U26_t1369213839_Int32_t2950945753_Int32_t2950945753_RuntimeObject_SByte_t1669577662_ContextU26_t3937453398PFvvEPK10MethodInfoPvPS4_
jjg:_String_Trim_m3384720403
YGa:__ZN14RenderSettings18TransferDeprecatedI14SafeBinaryReadEEvRT_
ymi:__Z93RuntimeInvoker_Single_t1397266774_SingleU26_t1922108698_Single_t1397266774_Single_t1397266774PFvvEPK10MethodInfoPvPS4_
Y0j:__ZN6il2cpp2vm9Exception27RaiseNullReferenceExceptionERKNS_5utils10StringViewIDsEEP19Il2CppSequencePoint
ahj:_Event__ctor_m526447123
Ipi:__Z88RuntimeInvoker_RuntimeObject_RuntimeObject_RuntimeObject_RuntimeObject_Int32_t2950945753PFvvEPK10MethodInfoPvPS4_
RQh:_Type_ToString_m3975981286
t2:__ZN12TLSAllocatorI14StackAllocatorE8AllocateEji
Spj:_ConsumeSampleFramesNativeFunction_BeginInvoke_m342678987
Y7:__ZN16ScriptingManager18GetMonoScriptCacheEi
fVb:__ZN20ArchiveStorageHeader13GetDataOffsetERKNS_6HeaderE
idj:_ExpressionAssertion__ctor_m2554412824
CDh:_Enumerator_System_Collections_IEnumerator_get_Current_m2237476582_gshared
spb:__Z18Transfer_BlittableI14SafeBinaryReadLb1EyEvRK29SerializationCommandArgumentsR31RuntimeSerializationCommandInfo
bVh:_WeakReference_Finalize_m2841826116
DNe:_NullReferenceException__ctor_m3076065613
XMc:__ZN8JSONRead8TransferIfEEvRT_PKc17TransferMetaFlagsb
OSf:_LayoutGroup_OnDisable_m3483954898
Wic:__ZN9ShaderLab7Program22ComputeSupportsShadowsEv
trg:_X509SubjectKeyIdentifierExtension_Decode_m1505409124
cjc:__ZL23AddGpuProgramParametersR20GpuProgramParametersRKNSt3__26vectorIN9ShaderLab20SerializedSubProgram15MatrixParameterENS1_9allocatorIS5_EEEERKNS2_INS4_15VectorParameterENS6_ISB_EEEEiiP16PropertyNamesSet
Oha:__ZN6prcoreL17RemapGenericFloatI18TexFormatARGBFloat17TexFormatRGBAHalfEEvPKNS_9InnerInfoE
Ykj:_AnalyticsEventParamListContainer__ctor_m1995104893
Oig:_String_System_IConvertible_ToUInt16_m2888090399
IQ:__ZN11AudioSource21ApplyCachedParametersE12SoundChannel
tQe:_Assembly_InternalGetType_m3065345470
uPd:_ResourceSet__ctor_m3356376607
h5d:__ZL56_ParameterInfo_t489405856_CustomAttributesCacheGeneratorP21CustomAttributesCache
aWa:__ZN15SerializeTraitsI33EnlightenTerrainChunksInformationE8TransferI14SafeBinaryReadEEvRS0_RT_
dxc:__ZNK32RendererMaterialAnimationBinding9BindValueER6ObjectRKN11UnityEngine9Animation14GenericBindingERNS3_10BoundCurveE
$ff:_Transform_1_Invoke_m1731820209_gshared
kDj:__ZN6il2cpp2vm5Class11IsInterfaceEPK11Il2CppClass
qPa:__ZL18stbir__support_onef
fig:_Single_CompareTo_m189772128
KOc:__Z26Transfer_UnityEngineObjectI9JSONWriteLb0EEvRK29SerializationCommandArgumentsR31RuntimeSerializationCommandInfo
y7e:_DefaultComparer_Compare_m4042058291_gshared
fHd:_Image_set_overrideSprite_m3213596394
YMa:__ZNSt3__26vectorIN4core12basic_stringIcNS1_20StringStorageDefaultIcEEEE13stl_allocatorIS5_L18MemLabelIdentifier1ELi16EEE6assignINS_11__wrap_iterIPS5_EEEENS_9enable_ifIXaasr21__is_forward_iteratorIT_EE5valuesr16is_constructibleIS5_NS_15iterator_traitsISF_E9referenceEEE5valueEvE4typeESF_SF_
Wgd:__ZNSt3__27__sort5IRNS_6__lessIN2UI14DepthSortEntryES3_EEPS3_EEjT0_S7_S7_S7_S7_T_
_Wg:_FileLoadException_ToString_m2989457882
Voj:_AudioListener_ClearExtensionProperties_m3849891634
KZc:_UNITY_FT_DivFix
QLi:_Array_InternalArray__get_Item_TisDecimal_t2948259380_m3511003792_gshared
WK:__ZL45__ManagedRegistrationHelperFunction_AudioClipPv
zfg:_SecurityElement_IsValidAttributeValue_m948345692
swc:__ZN14Texture2DArrayC2E10MemLabelId18ObjectCreationMode
Ba:invoke_vdd
vn:FUNCTION_TABLE_fiii
UJe:_TextWriter_Write_m2252948084
qzc:__Z19RegisterModule_Corev
Qad:__ZZ29InitializeTextRenderingModulevEN27cleanupAfterLoadRegistrator7ForwardEv
wz:__ZN27AnimationLayerMixerPlayable24ProcessAnimationLayerMixEP33AnimationPlayableEvaluationOutputP35AnimationPlayableEvaluationConstantP32AnimationPlayableEvaluationInputS1_if
GMg:_CCFixed_FromDateTime_m3894190577
n7b:__Z29PluginsIssueRenderingExtEvent26UnityRenderingExtEventTypePv
yhi:__Z116RuntimeInvoker_RuntimeObject_RuntimeObject_Int32_t2950945753_RuntimeObject_RuntimeObject_RuntimeObject_RuntimeObjectPFvvEPK10MethodInfoPvPS4_
Amf:_MessageFormatter_ReadMethodCall_m2327590823
Wvc:__Z14RandomRotationP9Texture2DPhiiii
pkh:_Array_InternalArray__ICollection_Add_TisUInt16_t2177724958_m3981262878_gshared
q9g:_Decimal_GetBits_m453754410
RCh:_HashSet_1_Contains_m3173358704_gshared
Smj:_ToggleEvent__ctor_m834619998
s3f:_PKCS1_Encode_v15_m2077073129
Bnb:__ZN10Instancing11DrawAPIArgsC2ERK19ShaderPropertySheetPK8Vector4fS6_S6_i
fIf:_RectOffset_get_left_m1232181034
G_j:__ZNSt3__214__split_bufferIN6il2cpp8metadata18GenericArrayMethodERNS_9allocatorIS3_EEED2Ev
ij:_JS_WebRequest_SetResponseHandler
ZAk:_glDeleteProgram__wrapper
CPa:__ZN6prcoreL18BlitFloatToIntegerERK14ImageReferenceRS0_
B8g:_DBNull_System_IConvertible_ToUInt32_m3784627971
q7f:_ClientSessionCache_Add_m964342678
m$:__ZN11UnityEngine15CloudWebService14RestDownloader17OnCompleteContentEv
FOj:__ZN15dense_hashtableINSt3__24pairIK10KeyWrapperINS1_IPK14Il2CppAssemblyP11Il2CppClassEEEjEES9_17ReflectionMapHashIS8_EN14dense_hash_mapIS9_jSD_NS9_14EqualsComparerINS0_8equal_toIS8_EEEENS0_9allocatorISB_EEE9SelectKeyESI_SK_E15insert_noresizeERKSB_
znb:__ZN10Instancing11DrawAPIArgsC2Ev
OLf:_Transform_get_localScale_m129152068
G9g:_DivideByZeroException__ctor_m3496959969
Na:invoke_viffi
zB:__ZN17AnimationPlayable28UpdateInternalStateRecursiveILi1ELb0EEEvPK35AnimationPlayableEvaluationConstant
B7j:__ZN6il2cpp2gcL10CleanupCCWEPvS1_
Qa:invoke_vifff
Lzk:_glGetVertexAttribiv__wrapper
n7h:_Predicate_1_Invoke_m851618236_gshared
FGb:__ZN20LocalFileSystemWebGL6DeleteER13FileEntryDatab
Oe:_emscripten_glDisableVertexAttribArray
afh:_Array_InternalArray__ICollection_Remove_TisSingle_t1397266774_m3361324455_gshared
Vm:FUNCTION_TABLE_iiiifiiii
gc:invoke_fifffi
gVh:_Collection_1_System_Collections_IList_Add_m2969482770_gshared
sqh:_BitConverterLE_GetBytes_m4130646282
MPb:__ZN4gles23ClearCurrentFramebufferEP7ApiGLESbbbRK10ColorRGBAffi
Sz:__ZN7mecanim12statemachine20CreateStateWorkspaceEjjjRNS_6memory9AllocatorE
ebi:_UnityEvent_1_Invoke_m3604335408_gshared
Ze:_emscripten_glDeleteObjectARB
vud:_EventSystem_RaycastComparer_m3685368675
uSa:__Z14DecompressDXT3iiiPKjPj
rli:__Z131RuntimeInvoker_Void_t1185182177_RuntimeObject_RuntimeObject_Int64_t3736567304_ObjectU26_t2146539884_SerializationInfoU26_t419328957PFvvEPK10MethodInfoPvPS4_
grh:_DSAManaged_CreateSignature_m2233977444
Pyg:_PKCS12_RemoveCertificate_m1421555398
R_f:_Slider_FindSelectableOnLeft_m1667068522
fia:__ZN6prcoreL17RemapGenericFloatI17TexFormatRGBAHalf18TexFormatARGBFloatEEvPKNS_9InnerInfoE
UKc:__Z14GetBuiltinSkini
iWd:_MethodDictionary_get_Item_m1201458851
KW:___cxx_global_var_init_13
ZW:___cxx_global_var_init_10
_W:___cxx_global_var_init_11
il:_JS_SystemInfo_GetBrowserVersionString
V9a:__ZN2UI13RectTransform23VirtualRedirectTransferER14SafeBinaryRead
Igc:__ZNSt3__26vectorIN9ShaderLab20SerializedSubProgramENS_9allocatorIS2_EEE6assignIPS2_EENS_9enable_ifIXaasr21__is_forward_iteratorIT_EE5valuesr16is_constructibleIS2_NS_15iterator_traitsIS9_E9referenceEEE5valueEvE4typeES9_S9_
XQc:__Z18Transfer_BlittableI8JSONReadLb0E8BitFieldEvRK29SerializationCommandArgumentsR31RuntimeSerializationCommandInfo
$eg:_SecurityPermission_set_Flags_m1503445204
LCh:_HashSet_1_CopyTo_m2849056227_gshared
wzb:__ZL17Transfer_GUIStyleI18StreamedBinaryReadILb1EELb0EEvRK29SerializationCommandArgumentsR31RuntimeSerializationCommandInfo
wIc:__ZN9Scripting11UnityEngine15ScrollViewState9InitProxyEv
oph:_ModulusRing_Multiply_m343333088
pue:__ZL76AnimatorTransitionInfo_t2534804151_CustomAttributesCacheGenerator_m_AnyStateP21CustomAttributesCache
Cec:__ZN9ShaderLab14SerializedPass8TransferI14SafeBinaryReadEEvRT_
pKc:__Z71Register_UnityEngine_GUILayoutUtility_INTERNAL_CALL_Internal_MoveWindowv
bU:__ZN12AudioManager16SetListenerPauseEb
o4a:__ZNSt3__26vectorIN30RuntimeInitializeOnLoadManager9ClassInfoE13stl_allocatorIS2_L18MemLabelIdentifier13ELi16EEE6assignINS_11__wrap_iterIPS2_EEEENS_9enable_ifIXaasr21__is_forward_iteratorIT_EE5valuesr16is_constructibleIS2_NS_15iterator_traitsISC_E9referenceEEE5valueEvE4typeESC_SC_
$Uc:__ZL50__ManagedRegistrationHelperFunction_ContactPoint2DPv
da:invoke_viiiiiiiiiii
ank:___syscall_ret
Q7i:_DeriveBytes_set_Salt_m1400945044
Ewd:_PointerEventData_set_worldNormal_m1888481930
Sdj:_AnchorInfo__ctor_m46784903
Y5f:_CipherSuiteCollection_get_Item_m4188309062
u4i:_SslHandshakeHash_HashFinal_m2573455475
lUd:_SynchronizationAttribute_ReleaseLock_m1030353464
HVj:__ZNSt3__212basic_stringIcNS_11char_traitsIcEENS_9allocatorIcEEE6assignINS_11__wrap_iterIPKcEEEENS_9enable_ifIXaasr21__is_forward_iteratorIT_EE5valuesr38__libcpp_string_gets_noexcept_iteratorISC_EE5valueERS5_E4typeESC_SC_
njd:__Z56Register_UnityEngine_Analytics_CustomEventData_AddDoublev
cYa:__ZN11ChannelInfo8TransferI19StreamedBinaryWriteILb0EEEEvRT_
Qck:__ZN4utf88internal13validate_nextIPKcEENS0_9utf_errorERT_S5_Rj
MFe:__ZL53ToggleGroup_t123837990_CustomAttributesCacheGeneratorP21CustomAttributesCache
i5d:__ZL59_PropertyBuilder_t1366136710_CustomAttributesCacheGeneratorP21CustomAttributesCache
dRf:_InputField_CreateCursorVerts_m3585916868
nmc:__Z34Register_UnityEngine_Gradient_Initv
yTd:_Context_ToString_m1073616138
eZa:__ZN13ScreenManager23SetIsOrientationEnabledE18EnabledOrientationb
hOf:_InputField_EnforceTextHOverflow_m3400115777
dXc:__ZN9Scripting11UnityEngine12TreeInstance9InitProxyEv
X1a:__ZN9InputAxis8TransferI19StreamedBinaryWriteILb0EEEEvRT_
DSg:__Z33il2cpp_codegen_check_sub_overflowxx
aPf:_InputField_get_caretColor_m2973283772
BVf:_RectMask2D_get_Canvas_m9990042
hNi:_Resources_ConvertObjects_TisRuntimeObject_m1486780300_gshared
kbh:_Double_System_IConvertible_ToInt16_m3591921965_AdjustorThunk
V4h:_Comparison_1_Invoke_m2925518770_gshared
zwa:__ZN10GameObject23VirtualRedirectTransferER18StreamedBinaryReadILb0EE
Vjj:_SymmetricTransform__ctor_m2693628991
jJe:_ObjectDisposedException__ctor_m1034312941
pg:_glFrontFace
DUf:_MaskUtilities_IsDescendantOrSelf_m2247511982
Kxa:__ZN12BaseRenderer21SetGlobalLayeringDataE18GlobalLayeringDataj
vad:__Z51Register_UnityEngine_TextGenerator_GetLinesInternalv
Agf:_Enumerator_get_Current_m2250080680_AdjustorThunk
Jgg:_SecurityElement__cctor_m3326869319
Gkj:_AesManaged_set_Key_m767972181
GRg:_Int16_System_IConvertible_ToBoolean_m1656400658_AdjustorThunk
wFg:_Byte_System_IConvertible_ToInt64_m285584218
wha:__ZN6prcoreL17RemapGenericFloatI17TexFormatRGBFloat18TexFormatRGBAFloatEEvPKNS_9InnerInfoE
Kjh:_Array_InternalArray__ICollection_Add_TisDictionaryEntry_t3123975638_m665385049_gshared
Hie:__ZL57BootConfigData_t3818279794_CustomAttributesCacheGeneratorP21CustomAttributesCache
oLe:_MissingMemberException__ctor_m2707802176
Fwc:__ZN28ReflectionProbeAnchorManager10InitializeEv
axj:_Canvas_get_renderMode_m841659411
okg:_String_Join_m2050845953
gof:_SerializationInfo_GetValue_m42271953
HS:__ZN9AudioClip11CreateSoundEv
XPa:__ZN29SerializeTraitsForStringTypesIN4core12basic_stringIcNS0_20StringStorageDefaultIcEEEEE8TransferI24GenerateTypeTreeTransferEEvRS4_RT_
bVj:__ZN14dense_hash_mapI10KeyWrapperINSt3__24pairIPK9FieldInfoP11Il2CppClassEEEj17ReflectionMapHashIS8_ENS9_14EqualsComparerINS1_8equal_toIS8_EEEENS1_9allocatorINS2_IKS9_jEEEEEC2EjRKSB_RKSF_
NDf:_PlayerConnection_GetConnectionNativeApi_m3116196780
AQj:__ZNK15dense_hashtableINSt3__24pairIK10KeyWrapperINS1_IPK10MethodInfoP11Il2CppClassEEEjEES9_17ReflectionMapHashIS8_EN14dense_hash_mapIS9_jSD_NS9_14EqualsComparerINS0_8equal_toIS8_EEEENS0_9allocatorISB_EEE9SelectKeyESI_SK_E13find_positionERSA_
dod:__ZN11UnityEngine7Connect16PersistentValues13RestoreValuesER8JSONRead
mbd:__ZN9Scripting11UnityEngine8Tilemaps8TileData9InitProxyEv
tRg:_Guid_BaseToString_m3600006650
Eeb:__ZN20ArchiveStorageReader31TryToReadDirectoryFromBlockDataEyPKvj
v3j:__ZN6il2cpp2vmL11GetIdentityEP14Il2CppIUnknown
zgk:_GC_push_gc_structures
f9f:_TlsServerCertificate_ProcessAsTls1_m819212276
UKi:_Dictionary_2_Do_ICollectionCopyTo_TisRuntimeObject_m3942192587_gshared
pNj:__ZN6il2cpp6icalls8mscorlib6SystemL8IsPublicEPK9EventInfo
G1f:_PrimalityTests_RabinMillerTest_m2544317101
L0f:_Kernel_DwordDivMod_m1540317819
AXi:_Enumerator_System_Collections_IEnumerator_get_Current_m1399273671_gshared
wJd:_TypeBuilder_GetPropertyImpl_m3104345782
wYa:__ZNSt3__213__stable_sortIRNS_4lessI4PPtrI11SpriteAtlasEEENS_11__wrap_iterIPS4_EEEEvT0_SA_T_NS_15iterator_traitsISA_E15difference_typeEPNSD_10value_typeEi
JUg:_Int64_ToString_m2085073918_AdjustorThunk
Wef:_Transform_1_Invoke_m4084479750_gshared
nKd:_FieldInfo_GetFieldOffset_m1356898082
vvf:_Camera_RaycastTry_m3913529496
Fdc:__ZN10BootConfig4Data14InitFromStringEPPKcjS2_
z3:__ZN8keywords6CreateEPKc
Ozj:__ZL7log2_32j
qGf:_Quaternion_Inverse_Injected_m4070500351
S:Math_imul
UYf:_ScrollRect_LateUpdate_m1215231183
Bqa:__ZN9Scripting11UnityEngine11ContextMenu9InitProxyEv
A9f:_TlsServerKeyExchange_Update_m453798279
UTa:__ZN11PlayerPrefs6GetIntERKN4core12basic_stringIcNS0_20StringStorageDefaultIcEEEEi
d6f:_CipherSuiteCollection_System_Collections_IList_IndexOf_m1361500977
K$f:_Text_set_fontStyle_m648756124
dad:__Z45TextGenerator_CUSTOM_INTERNAL_get_rectExtentsP12Il2CppObjectP5RectTIfE
fK:__ZN9Scripting11UnityEngine18AssetBundleRequest12CleanupProxyEv
g6g:_DateTime__ctor_m2135476686_AdjustorThunk
KRc:__ZN13GUIStyleState8TransferI8JSONReadEEvRT_
oU:__ZN11AudioSource12SetAudioClipEP9AudioClip
SIf:_RectTransform_GetLocalCorners_m823861473
wJg:_SynchronizedArrayListWrapper_GetEnumerator_m1579424644
JWf:_Scrollbar_get_value_m760470106
z5:__ZN18ScriptingArguments9AddObjectE18ScriptingObjectPtr
ued:__Z39CanvasGroup_Get_Custom_PropInteractableP12Il2CppObject
TX:__ZN11UnityEngine15CloudWebService16SessionContainerD2Ev
Gmd:__ZL38InitializeUnityConnectScriptingClassesv
X7b:__ZN13ProbeRenderer8ConvolveEbijjb
Ljj:_GUIUtility_set_systemCopyBuffer_m608712289
gQb:__ZN17GenericDynamicVBOC2ER9GfxDevice13GfxBufferModejj
mLc:__ZZN10GUIManager14InitGUIManagerEvEN41PreUpdateIMGUISendQueuedEventsRegistrator7ForwardEv
wqg:_ServicePointManager_get_SecurityProtocol_m966397919
RMg:_CCGregorianCalendar_day_from_fixed_m1674702403
lZ:__ZN11UnityEngine15CloudWebService17SessionEventQueue10PurgeItemsEj
A8b:__ZN6Camera16StandaloneRenderENS_10RenderFlagEP6ShaderRKN4core12basic_stringIcNS3_20StringStorageDefaultIcEEEE
Zsg:_X509Chain_PrepareForNextCertificate_m3691934993
nwa:__ZN16LevelGameManager23VirtualRedirectTransferER24GenerateTypeTreeTransfer
Qyb:__Z18Transfer_BlittableI18StreamedBinaryReadILb1EELb1EtEvRK29SerializationCommandArgumentsR31RuntimeSerializationCommandInfo
awe:__ZL58EventType_t3528516131_CustomAttributesCacheGenerator_keyUpP21CustomAttributesCache
p7d:__ZL57X509Certificate_t713131622_CustomAttributesCacheGeneratorP21CustomAttributesCache
bYa:__ZN12BoneWeights48TransferI19StreamedBinaryWriteILb0EEEEvRT_
vib:__ZN9GfxDevice20DeallocRenderSurfaceEP17RenderSurfaceBase
zmb:__ZN20GpuProgramParameters36UpdatePrepareValuesMaximumBufferSizeEv
fnh:_SimpleCollator_GetContraction_m2205549079
cNf:_Vector3__ctor_m1719387948_AdjustorThunk
o2f:_ARC4Managed_GenerateKey_m1607343060
Zkh:_Array_InternalArray__ICollection_CopyTo_TisDecimal_t2948259380_m2749946216_gshared
X3a:__ZN30RuntimeInitializeOnLoadManager23VirtualRedirectTransferER14SafeBinaryRead
vYc:__ZN20TextRenderingPrivate8FontImpl13CharacterInfo8TransferI18StreamedBinaryReadILb0EEEEvRT_
$vb:__Z29Transfer_Blittable_ArrayFieldI24GenerateTypeTreeTransferfEvRT_R9ArrayInfoRK23StaticTransferFieldInfo
Qyf:_UnityEvent_FindMethod_Impl_m2312362624
bac:__ZN19CustomRenderTexture9AddParentE4PPtrIS_E
Qqb:__ZN8Gradient8TransferI14SafeBinaryReadEEvRT_
zuf:_Vector3_GetHashCode_m2879461828
Ucj:_Parser_ParseSpecial_m1961501104
Zhg:_Single_System_IConvertible_ToUInt64_m3299129161_AdjustorThunk
XMa:__ZNSt3__26vectorIN4core12basic_stringIcNS1_20StringStorageDefaultIcEEEE13stl_allocatorIS5_L18MemLabelIdentifier1ELi16EEE7reserveEj
LZc:__ZN20TextRenderingPrivate15DynamicFontData36GetFaceForCharacterIfAvailableInFontERKNS_7FontRefERK13dynamic_arrayI4PPtrIN13TextRendering4FontEELj0EEj
bqg:_IPv6Address_AsIPv4Int_m844941024
YPe:_Random__ctor_m3209279193
$9f:_RecordProtocol__cctor_m1280873827
cCf:_Matrix4x4_MultiplyPoint_m1575665487_AdjustorThunk
EQd:_Marshal__cctor_m4007734770
tfk:_GC_new_free_list_inner
$sh:_SymmetricTransform_Random_m2004892672
_ek:_GC_err_printf
Yrd:__ZN9Scripting11UnityEngine2XR13InputTracking12CleanupProxyEv
_3f:_RSAManaged_DecryptValue_m1804388365
rYe:_InternalEnumerator_1_System_Collections_IEnumerator_get_Current_m2980550840_AdjustorThunk
qH:__ZN25RuntimeAnimatorController8TransferI14SafeBinaryReadEEvRT_
LRc:__ZN8JSONRead8TransferI10RectOffsetEEvRT_PKc17TransferMetaFlagsb
WY:__ZN9JSONWrite8TransferIN11UnityEngine15CloudWebService14DataErrorEvent15FileErrorDetailEEEvRT_PKc17TransferMetaFlags
zTg:_Int32_Parse_m2087562008
lNd:_MonoProperty_GetAccessors_m412928203
Hci:_TweenRunner_1_Start_m3757154622_gshared
LN:__ZN12SoundManager20RegisterModifiedClipEP10SampleClip
kkf:_RemotingServices_GetClientChannelSinkChain_m1499550585
uQe:_Assembly_FillName_m1660001542
Y4d:__ZL56_EventBuilder_t2558055199_CustomAttributesCacheGeneratorP21CustomAttributesCache
kdg:_SHA384Managed_processBlock_m1272529332
yQ:__ZN11AudioSource4PlayEd
eHg:_Char_ToString_m278452217_AdjustorThunk
SFj:__ZN15dense_hashtableI10KeyWrapperIPK17Il2CppGenericInstES4_N6il2cpp8metadata21Il2CppGenericInstHashEN14dense_hash_setIS4_S7_NS4_14EqualsComparerINS6_24Il2CppGenericInstCompareEEENSt3__29allocatorIS4_EEE8IdentityESB_SE_E13set_empty_keyERKS4_
_ei:__Z63RuntimeInvoker_Char_t3634460470_Int16_t2552820387_RuntimeObjectPFvvEPK10MethodInfoPvPS4_
_2g:_Convert_ToDouble_m2924063577
rba:__Z17GetCoreModuleSpecv
QFh:_Enumerator_System_Collections_IEnumerator_get_Current_m3594024719_gshared
YQa:__ZN7Cubemap23VirtualRedirectTransferER18StreamedBinaryReadILb0EE
Vqc:__ZNSt3__27__sort4IRNS_6__lessI11KeyframeTplIfES3_EEPS3_EEjT0_S7_S7_S7_T_
g7c:_Read_CVT
nQ:__ZN11AudioSource23VirtualRedirectTransferER19StreamedBinaryWriteILb0EE
Reb:__ZN12FileAccessor4SeekEx10FileOrigin
bt:__ZN9Scripting11UnityEngine25RuntimeAnimatorController12CleanupProxyEv
Oub:__ZL26Transfer_SimpleNativeClassI24GenerateTypeTreeTransfer17AnimationCurveTplIfELb0EEvRK29SerializationCommandArgumentsR31RuntimeSerializationCommandInfo
p2g:_Convert_ToDecimal_m1783778724
Hdf:_ShimEnumerator_get_Value_m153531060_gshared
kNg:_DateTimeFormatInfo__ctor_m3106345035
V6f:_TlsServerKeyExchange_verifySignature_m3412856769
gyh:_EqualityComparer_1_System_Collections_IEqualityComparer_GetHashCode_m4137147946_gshared
M0i:_Collection_1_System_Collections_ICollection_CopyTo_m5285659_gshared
Wca:__ZN16LightmapSettings20DidChangeActiveSceneEP10UnitySceneS1_
SIe:__ZL59g_AssemblyU2DCSharp_Assembly_CustomAttributesCacheGeneratorP21CustomAttributesCache
DNj:__ZN6il2cpp5utils9PathUtils8BasenameIcEENSt3__212basic_stringIT_NS3_11char_traitsIS5_EENS3_9allocatorIS5_EEEERKSA_
LP:__ZN10AudioMixer11SetupGroupsEv
Gt:__ZN9Scripting11UnityEngine10Animations21AnimationClipPlayable9InitProxyEv
pJc:__Z35Register_UnityEngine_Event_get_typev
yna:__ZN9Scripting11UnityEngine9Rendering18GraphicsDeviceType12CleanupProxyEv
d1j:__ZN6il2cpp2vm9Exception23GetInvalidCastExceptionERKNS_5utils10StringViewIDsEE
$uk:_emscripten_glDepthRange__wrapper
wB:__ZN8Animator28BuildControllerPlayableCacheEv
z6:__Z63ThreadAndSerializationSafeCheckGetMonoBehaviourBeingTransferredv
Doa:__ZN9Scripting11UnityEngine12LightmapData9InitProxyEv
ePi:_List_1_set_Item_m4224739467_gshared
ESe:_ConstructorBuilder_get_Name_m2426555260
zrc:__Z37Register_UnityEngine_Input_GetAxisRawv
Vmd:__ZN11UnityEngine7Connect13ConfigHandler13ConfigChangedERKN4core12basic_stringIcNS2_20StringStorageDefaultIcEEEEbbi
Vcj:_Parser_ParseCharacterClass_m4285351396
s4g:_Convert_ToSByte_m2653418303
G_g:_SyncHashtable__ctor_m2449935938
lQ:__ZN11AudioSource5ResetEv
wcg:_RSAPKCS1SignatureFormatter_SetKey_m2935054088
lZb:__ZN12ImageFilters27SetSurfaceUseResolvedBufferEP13RenderTextureb
Qnb:__ZN14SafeBinaryRead21TransferSTLStyleArrayI10vector_setI4PPtrI10MonoScriptENSt3__24lessIS4_EE13stl_allocatorIS4_L18MemLabelIdentifier79ELi16EEEEEvRT_17TransferMetaFlags
COa:__ZN14Texture2DArray23VirtualRedirectTransferER18StreamedBinaryReadILb0EE
xLh:_UTF7Encoding_GetByteCount_m209415911
M9a:__ZN2UI13RectTransform13AwakeFromLoadE17AwakeFromLoadMode
Bfj:_RegularExpression_Compile_m2385682508
H2b:__ZN14qsort_internal30FindAndMovePivotToLastPositionIP20ShadowCasterSortDatai26ShadowCasterSortDataSorterEEvT_S4_T0_T1_
job:__Z18Transfer_BlittableI14SafeBinaryReadLb1EiEvRK29SerializationCommandArgumentsR31RuntimeSerializationCommandInfo
dtg:_X509ExtensionEnumerator_get_Current_m256207749
dQf:_InputField_MoveTextStart_m1087475594
_Lg:_EventArgs__cctor_m1889823314
kDg:_Array_Sort_m182264525
vSf:_LayoutGroup_set_padding_m282562135
mRe:_Default_IsArrayAssignable_m953489228
cSh:_UInt16_ToString_m355311020_AdjustorThunk
Ysf:_RC2__ctor_m1146135664
Fk:_glGetStringi
Hlg:_DecoderExceptionFallback_CreateFallbackBuffer_m1133375601
K5j:__ZNK15dense_hashtableI10KeyWrapperIP18Il2CppGenericClassES3_N6il2cpp8metadata22Il2CppGenericClassHashEN14dense_hash_setIS3_S6_NS3_14EqualsComparerINS5_25Il2CppGenericClassCompareEEENSt3__29allocatorIS3_EEE8IdentityESA_SD_E10test_emptyERK30dense_hashtable_const_iteratorIS3_S3_S6_SF_SA_SD_E
Kaf:_Enumerator_get_CurrentKey_m889650866_gshared
sD:__ZN8Animator9WriteStepEy
rza:__ZN9Coroutine16SetCurrentMethodE18ScriptingMethodPtr
baf:_Enumerator_VerifyCurrent_m829026141_gshared
aAc:__ZN16PropertyAccessorC2Ev
D_i:_Collection_1_ConvertItem_m1743542180_gshared
kad:__Z38Register_UnityEngine_Font_HasCharacterv
W6b:__Z35IntersectSpherePlaneBoundsOptimizedRKN4math7_float4EPS1_i
Dbg:_RNGCryptoServiceProvider__cctor_m3587754670
Vaa:__ZN17TransformInternal21DetachTransformThreadER18TransformHierarchyjj
h8j:__ZN6il2cpp2os5posix15PosixWaitObject13InterruptWaitEv
Bca:__Z22CleanupLODGroupManagerPv
lJc:__Z21Event_CUSTOM_PopEventP12Il2CppObject
ol:_glUniform3fv
qlk:__ZNK6il2cpp8metadata24Il2CppGenericInstCompareclERK10KeyWrapperIPK17Il2CppGenericInstES8_
ytg:_X509ChainElement_Set_m655180762
iAj:_CustomEventData_AddInt32_m548429697
j1b:__ZNK16LightmapSettings31GetRealtimeLightmapDecodeValuesEv
uP:__ZN5audio5mixer12SetSuspendedERNS0_16AudioMixerMemoryEb
W8a:__ZN17PersistentManager21UnloadNonDirtyStreamsEv
bmi:__Z96RuntimeInvoker_Int32_t2950945753_RuntimeObject_Int32_t2950945753_RuntimeObject_Int32_t2950945753PFvvEPK10MethodInfoPvPS4_
tlj:_AnalyticsEventTracker_OnEnable_m1121905268
agj:_Uri_get_Parser_m3737125102
jxj:_Canvas_get_overrideSorting_m2740418462
axf:_Debug_LogFormat_m309087137
tFg:_Byte_System_IConvertible_ToInt16_m4136764794_AdjustorThunk
SZa:__ZN12ImageFilters4BlitER17ShaderPassContextP7TextureP13RenderTextureiPK18SharedMaterialDataPKcP6ShaderiNS_9BlitFlagsE11CubemapFaceRK8Vector2fSH_
Mjg:_String_LastIndexOf_m3451222878
Saj:_Mark_get_Index_m3048692661
YFe:__ZL69CanvasScaler_t2767979955_CustomAttributesCacheGenerator_m_ScaleFactorP21CustomAttributesCache
vZ:__ZN11UnityEngine15CloudWebService10RestClientINS0_23WebRequestRestHeaderMapEED2Ev
Ll:_emscripten_glDepthMask
nlf:_RemotingServices_CreateClientProxy_m3886727610
iSa:__ZN4crnd25static_huffman_data_model22prepare_decoder_tablesEv
eag:_RecordProtocol_GetMessage_m2086135164
$ca:__Znaj
xBk:_emscripten_glEnableClientState__wrapper
Tpd:__ZN20UnityWebRequestProtoI24UnityWebRequestTransport16AtomicRefCounter14RedirectHelper14ResponseHelper15DownloadHandler13UploadHandler18CertificateHandler12HeaderHelper14AsyncOperationE26Job_ExecuteUnityWebRequestEPS9_
D2:__ZN17MessageIdentifierC2EPKcNS_7OptionsEPKN5Unity4TypeES1_
TCf:_Mesh_SetTriangles_m1523451247
Ohg:_Single_System_IConvertible_ToSByte_m1208276900
MHi:_Array_InternalArray__set_Item_TisVector4_t3319028937_m757305038_gshared
qtc:__ZNSt3__26__treeIPc15compare_tstringIPKcENS_9allocatorIS1_EEE25__emplace_unique_key_argsIS1_JS1_EEENS_4pairINS_15__tree_iteratorIS1_PNS_11__tree_nodeIS1_PvEEiEEbEERKT_DpOT0_
uki:__Z105RuntimeInvoker_Void_t1185182177_RuntimeObject_RuntimeObject_RuntimeObject_RuntimeObject_Int32_t2950945753PFvvEPK10MethodInfoPvPS4_
hhf:_ValueCollection_System_Collections_Generic_ICollectionU3CTValueU3E_Add_m3298059628_gshared
wfi:__Z64RuntimeInvoker_RuntimeObject_Int16_t2552820387_Int16_t2552820387PFvvEPK10MethodInfoPvPS4_
RU:__Z55Register_UnityEngine_AudioSource_get_spatializeInternalv
iK:__ZN14SafeBinaryRead8TransferI14ConstantStringEEvRT_PKc17TransferMetaFlags
oXb:__ZNK6Camera16GetStereoEnabledEv
dpi:__Z72RuntimeInvoker_Int32_t2950945753_TimeSpan_t881159249_TimeSpan_t881159249PFvvEPK10MethodInfoPvPS4_
Fag:_SendRecordAsyncResult_SetComplete_m153213906
JVa:__ZN16LightmapSettings23VirtualRedirectTransferER19StreamedBinaryWriteILb0EE
vwc:__ZN12LightManager15InitializeClassEv
lOh:_WaitHandle__cctor_m4242752477
ILa:__ZN9ShaderLab11shaderprops16GetComputeBufferEPK19ShaderPropertySheetS3_NS_16FastPropertyNameE
qdk:__ZN6il2cpp6icalls8mscorlib6System10Reflection10MethodBase31GetMethodFromHandleInternalTypeEii
u8:__ZN23ManagedAttributeManager35CallManagedGetDefaultExecutionOrderE17ScriptingClassPtr
N5:__ZN18ScriptingArgumentsC2Ev
Vuf:_Vector3_op_Equality_m4231250055
Uwk:_emscripten_glBlendFuncSeparate__wrapper
dWa:__ZN15SerializeTraitsI13dynamic_arrayI7Hash128Lj0EEE19ResizeSTLStyleArrayERS2_i
DWg:_FileSystemInfo__ctor_m3769019897
yMi:_Array_InternalArray__get_Item_TisContentType_t1787303396_m421427711_gshared
NYb:__ZNK25CameraStackRenderingState27GetStereoImageEffectTextureEb
qsf:_HMACSHA384__ctor_m1677515580
q4i:_RIPEMD160Managed_J_m1336489154
WHc:__ZL52__ManagedRegistrationHelperFunction_PlayableDirectorPv
uKj:__ZN6il2cpp6icalls6System6System3Net7Sockets6Socket7ReceiveEiP11Il2CppArrayiiNS4_11SocketFlagsEPi
to:FUNCTION_TABLE_ii
Nva:__ZN10TagManager8TransferI18StreamedBinaryReadILb0EEEEvRT_
kOc:__Z18Transfer_BlittableI9JSONWriteLb0E8BitFieldEvRK29SerializationCommandArgumentsR31RuntimeSerializationCommandInfo
JYg:_MemoryStream_set_Capacity_m1773624579
OZj:__ZNK15dense_hashtableINSt3__24pairIK10KeyWrapperINS1_IP11Il2CppClassjEEES4_EES6_N6il2cpp8metadata14ArrayClassHashEN14dense_hash_mapIS6_S4_SB_NS6_14EqualsComparerINSA_17ArrayClassCompareEEENS0_9allocatorIS8_EEE9SelectKeyESF_SH_E10test_emptyEj
wfc:__ZNSt3__26vectorIN9ShaderLab20SerializedSubProgram15StructParameterENS_9allocatorIS3_EEE8__appendEj
rb:invoke_diiii
Dvk:b47
ks:__ZL57__ManagedRegistrationHelperFunction_AnimationClipPlayablePv
iri:__Z95RuntimeInvoker_Void_t1185182177_RuntimeObject_RuntimeObject_SByte_t1669577662_SByte_t1669577662PFvvEPK10MethodInfoPvPS4_
Ecc:__Z24CreateDirectoryRecursiveRKN4core12basic_stringIcNS_20StringStorageDefaultIcEEEE
rvk:b41
Khc:__ZN9ShaderLab20SerializedSubProgram8TransferI18StreamedBinaryReadILb0EEEEvRT_
ovk:b40
pQ:__ZN11AudioSource23VirtualRedirectTransferER17RemapPPtrTransfer
jie:__ZL54ContextMenu_t1295656858_CustomAttributesCacheGeneratorP21CustomAttributesCache
f4:__ZN13RuntimeStaticI21ScalableBufferManagerLb0EE13StaticDestroyEPv
Qcd:__ZN2UI13CanvasManager9AddCanvasEPNS_6CanvasE
IZa:__ZN9Texture3D8TransferI19StreamedBinaryWriteILb0EEEEvRT_
VZb:__ZNK6Camera22CalculateRenderingPathEv
svk:b42
FPc:__ZN9JSONWrite8TransferI5RectTIfEEEvRT_PKc17TransferMetaFlags
eF:__ZN11UnityEngine9Animation37SetGenericRootTransformPropertyValuesERKNS0_30AnimatorGenericBindingConstantERKN7mecanim10ValueArrayER9Transformbb
LRb:__Z13ConvertMipmap14GraphicsFormatPKvS_Pviiii
hWa:__ZN28EnlightenRendererInformation8TransferI14SafeBinaryReadEEvRT_
RJ:__ZN9Scripting11UnityEngine2XR5Tango24MeshReconstructionServer9InitProxyEv
utb:__ZL12InvokeMethodI17RemapPPtrTransferEvRK29SerializationCommandArgumentsR31RuntimeSerializationCommandInfo
$og:_RemoteCertificateValidationCallback_Invoke_m3086073466
clg:_StringComparer_Compare_m991165676
U4c:_tt_sbit_decoder_load_image
$Ja:__Z14IsHalfRTFormat19RenderTextureFormat
vRg:_Guid_ToString_m3279186591
tci:_U3CStartU3Ec__Iterator0_Dispose_m261027331_gshared
wLc:__ZNSt3__24listIN10GUIManager12SortedScriptE11memory_poolIS2_EE6__sortI13OldSortScriptEENS_15__list_iteratorIS2_PvEESA_SA_jRT_
x1i:_Collection_1_System_Collections_IList_Add_m3364892189_gshared
APi:_List_1_AddEnumerable_m3500350831_gshared
F3f:_PrivateKeyInfo_get_PrivateKey_m3647771102
T$j:__ZN6il2cpp6icalls8mscorlib6System9ThreadingL11ThreadStartEPv
qfa:__ZN15DirectorManager12OnSampleTimeEv
bJd:_TypeBuilder_check_not_created_m3652863637
Yxd:_StandaloneInputModule_UpdateModule_m450861257
n3h:_ReadOnlyCollection_1_System_Collections_IList_Insert_m2928873627_gshared
Kzh:_EqualityComparer_1__cctor_m314889309_gshared
bta:__ZN12CachedReader10Align4ReadEv
C8i:_X501__cctor_m2428304915
ixj:_Canvas_get_renderOrder_m1489855841
Vfi:__Z50RuntimeInvoker_Void_t1185182177_Single_t1397266774PFvvEPK10MethodInfoPvPS4_
cyg:_X501_ToString_m4186311521
qhj:_Event_ToString_m1688862299
Mta:__ZNK9Behaviour22GetTypeVirtualInternalEv
fxf:_Debug_LogErrorFormat_m575266265
QMg:_CCGregorianCalendar_month_from_fixed_m4268992710
Hhh:_Array_compare_TisUICharInfo_t75501106_m1310495481_gshared
Q7b:__Z21GetScriptingArraySize17ScriptingArrayPtr
TXc:__ZN20TextRenderingPrivate8FontImpl8TransferI14SafeBinaryReadEEvRT_
ula:__ZL51__ManagedRegistrationHelperFunction_HideInInspectorPv
oue:__ZL82AnimatorTransitionInfo_t2534804151_CustomAttributesCacheGenerator_m_NormalizedTimeP21CustomAttributesCache
A1h:_ReadOnlyCollection_1_System_Collections_IList_Clear_m4022532825_gshared
Dkg:_Encoding_get_ASCII_m3595602635
fjb:__ZN9GfxDevice17ImmediateTexCoordEifff
yTe:_DerivedType_GetCustomAttributes_m3536779709
hae:__ZL93Interlocked_t2273387594_CustomAttributesCacheGenerator_Interlocked_CompareExchange_m388540288P21CustomAttributesCache
jJd:_MethodBase_get_IsAbstract_m428833029
Nr:__ZN13ConstraintJob23ConstraintComponentDataC2ERK18PositionConstraint
Ruk:_emscripten_glUniform4f__wrapper
fGh:_Enumerator_MoveNext_m2595190390_AdjustorThunk
djh:_Array_InternalArray__IndexOf_TisColor32_t2600501292_m3783551884_gshared
Y$b:__ZNK6Camera16GetProjectionFarEv
gr:__Z24InverseTransformRotationRK23TransformAccessReadOnlyRKN4math7_float4E
EUc:__ZN11UnityEngine9Analytics16StartupTimeEvent23SetSplashScreenTimeInfoEyyy
C9i:_X509Chain_Build_m2469702749
sQ:__ZN11AudioSource6UpdateEv
ipd:__Z31GetPerformanceReportingSettingsv
eOa:__ZNK14PlayableOutput11DerivesFromE17ScriptingClassPtr
jQa:__ZN7Texture34CreateFileTextureUploadInstructionE18TextureUploadFlagsj
eUd:__ZN25GenericVirtActionInvoker06InvokeEPK10MethodInfoP12Il2CppObject
xXd:__ZL64SerializableAttribute_t1992588303_CustomAttributesCacheGeneratorP21CustomAttributesCache
yfb:__ZN25SingleBlockMemoryFileDataC2E10MemLabelIdPvjb
gG:__ZN8Animator8TransferI14SafeBinaryReadEEvRT_
saa:__Z23AsyncReadForceCloseFileRKN4core12basic_stringIcNS_20StringStorageDefaultIcEEEE
gW:__ZN16BaseVideoTexture19UpdateVideoTexturesEv
kMd:_MonoField_GetValue_m3124733531
v7a:__ZNK16LightmapSettings23HasLightProbeTetrahedraEv
NWa:__ZN6Sprite23VirtualRedirectTransferER19StreamedBinaryWriteILb0EE
Rlc:__ZN2UI13RectTransform12SetAnchorMaxERK8Vector2f
_Zj:__ZN14dense_hash_mapI10KeyWrapperIP11Il2CppClassES2_N6il2cpp8metadata16SZArrayClassHashENS3_14EqualsComparerINS5_19SZArrayClassCompareEEENSt3__29allocatorINSA_4pairIKS3_S2_EEEEE13set_empty_keyERSD_
Lud:_EventTrigger_Execute_m2453060771
C4h:_Comparison_1_Invoke_m517083441_gshared
CPj:__ZNK15dense_hashtableINSt3__24pairIK10KeyWrapperINS1_IPK9FieldInfoP11Il2CppClassEEEjEES9_17ReflectionMapHashIS8_EN14dense_hash_mapIS9_jSD_NS9_14EqualsComparerINS0_8equal_toIS8_EEEENS0_9allocatorISB_EEE9SelectKeyESI_SK_E5beginEv
Aak:__ZN6il2cpp2os6Thread15CurrentThreadIdEv
fE:__ZN15SerializeTraitsIN4math4trsXEE8TransferI8BlobSizeEEvRS1_RT_
sPb:__ZN14DataBufferGLES11CopySubDataEPKS_jjj
ee:_emscripten_glVertexPointer
QNj:__ZN6il2cpp2vm7Runtime47RaiseExecutionEngineExceptionIfMethodIsNotFoundEPK10MethodInfo
ybj:_PatternCompiler_GetMachineFactory_m3758869886
m3b:__Z17GetFrustumPortionPK8Vector3fffPS_
S2j:__ZN15dense_hashtableINSt3__24pairIK10KeyWrapperIP14Il2CppIUnknownEjEES5_N6il2cpp5utils11PointerHashIS3_EEN14dense_hash_mapIS5_jSB_NS5_14EqualsComparerINS0_8equal_toIS4_EEEENS0_9allocatorIS7_EEE9SelectKeyESG_SI_E14squash_deletedEv
avd:_EventTrigger_OnCancel_m585099428
Gij:_GUILayoutEntry_ApplyOptions_m1741659338
Wof:_RuntimeTypeHandle_Equals_m2857439487_AdjustorThunk
Chb:__ZNK9GfxDevice27GetPlatformAdjustedViewportEv
bYf:_ScrollRect_get_rectTransform_m2442061719
u_h:_ReadOnlyCollection_1_System_Collections_Generic_IListU3CTU3E_set_Item_m88350439_gshared
c9:__ZNSt3__26vectorINS_4pairIiiEE13stl_allocatorIS2_L18MemLabelIdentifier38ELi16EEE6insertENS_11__wrap_iterIPKS2_EEOS2_
bfa:__ZNSt3__26__treeINS_12__value_typeIPvsEENS_19__map_value_compareIS2_S3_NS_4lessIS2_EELb1EEE13stl_allocatorIS3_L18MemLabelIdentifier86ELi16EEE25__emplace_unique_key_argsIS2_JNS_4pairIS2_sEEEEENSD_INS_15__tree_iteratorIS3_PNS_11__tree_nodeIS3_S2_EEiEEbEERKT_DpOT0_
qmj:_StandardEventPayload_IsRequiredDataValid_m361738930
gej:_Reference_Compile_m4195878675
Fvj:_InputBuffer_remove_onCommandSent_m3139499669
T0h:_ReadOnlyCollection_1_System_Collections_ICollection_CopyTo_m2672196987_gshared
dAc:__ZN16StreamedResource8TransferI24GenerateTypeTreeTransferEEvRT_
rIf:_RectTransform_get_anchorMin_m2928307238
pHg:_ArrayList__ctor_m3828927650
iDa:__ZN10Matrix3x3f15InvertTransposeEv
Sij:_GUILayoutGroup_SetHorizontal_m996475327
Jij:_GUILayoutEntry__cctor_m663865902
JWb:__Z11IsBatchmodev
KEh:_Enumerator_System_Collections_IEnumerator_get_Current_m713684915_gshared
Wrb:__Z29Transfer_Blittable_ArrayFieldI14SafeBinaryRead8Vector3fEvRT_R9ArrayInfoRK23StaticTransferFieldInfo
IYc:__ZN20TextRenderingPrivate8FontImpl18ResetCachedTextureEv
sMj:__ZN6il2cpp6icalls8mscorlib6SystemL16GetFieldFromTypeINS_5utils10functional6FilterINSt3__212basic_stringIcNS7_11char_traitsIcEENS7_9allocatorIcEEEENS4_13VmStringUtils21CaseSensitiveComparerEEEEEP21Il2CppReflectionFieldP11Il2CppClassSK_iRKT_
wrg:_X509KeyUsageExtension_Decode_m3150759625
bgk:_GC_print_finalization_stats
xjj:_GUITargetAttribute_GetGUITargetAttrValue_m2954410352
umc:__Z53Register_UnityEngine_Behaviour_get_isActiveAndEnabledv
sDg:_SimpleEnumerator_get_Current_m72361444
Iq:__ZNSt3__26vectorIN4core12basic_stringIcNS1_20StringStorageDefaultIcEEEENS_9allocatorIS5_EEE8__appendEj
rW:__ZN13ProduceHelperI10SampleClipLb0EE7ProduceE10MemLabelId18ObjectCreationMode
H2a:__ZN26PlayerSettingsSplashScreen8TransferI17RemapPPtrTransferEEvRT_
kqh:_ASN1_set_Value_m2803403806
zMj:__ZN6il2cpp6icalls8mscorlib6SystemL17CollectTypeFieldsINS_5utils10functional10TrueFilterEEEvP11Il2CppClassPKS7_iRNSt3__26vectorIP9FieldInfoNSB_9allocatorISE_EEEERKT_
pnc:__Z13GetTagManagerv
WAg:_Hashtable__ctor_m1815022027
WLh:_UTF8Encoding_GetChars_m1433288684
dF:__ZN11UnityEngine9Animation37HasGenericRootTransformPropertyValuesERKNS0_30AnimatorGenericBindingConstantEb
RX:__ZN11UnityEngine15CloudWebService17CloudJobSchedulerD0Ev
AXe:_ArrayReadOnlyList_1_Contains_m381552673_gshared
_Tc:__ZN11UnityEngine9Analytics26PerformanceReportingConfig13ConfigChangedERKN4core12basic_stringIcNS2_20StringStorageDefaultIcEEEER8JSONRead
Rfi:__Z96RuntimeInvoker_Boolean_t97287965_RuntimeObject_RuntimeObject_Int32_t2950945753_Int32_t2950945753PFvvEPK10MethodInfoPvPS4_
iih:_Array_IndexOf_TisUICharInfo_t75501106_m3198896198_gshared
Tbd:__ZNK2UI11CanvasGroup22GetTypeVirtualInternalEv
v8f:_Context_get_Current_m2853615040
HLc:__Z21CleanupGlobalGUIStatev
MQh:_Type_IsContextfulImpl_m3693603908
CFh:_Enumerator_VerifyState_m2873941769_gshared
rBb:__Z18Transfer_BlittableI18StreamedBinaryReadILb0EELb1EN4math12int3_storageEEvRK29SerializationCommandArgumentsR31RuntimeSerializationCommandInfo
$Tb:__ZN22VertexDeclarationCache5ClearEv
Bqf:_CspParameters__ctor_m3852972821
Uac:__ZN17PersistentManager12SetPathRemapERKN4core12basic_stringIcNS0_20StringStorageDefaultIcEEEES6_
Ny:__Z27ProcessRootMotionEmptyMixerP35AnimationPlayableEvaluationConstantP32AnimationPlayableEvaluationInputP33AnimationPlayableEvaluationOutput
T4b:__ZN6Camera24PrepareCullingParametersERK23CameraCullingParameters13RenderingPathR11CullResults
c5b:__Z20CullReflectionProbesR8JobFenceRK22SceneCullingParametersRK23ReflectionProbesContextPKjjPjS9_
j6a:__ZN19RuntimeSceneManager22EndIntegrateMainThreadEP10UnitySceneNS_11LoadingModeE
wJi:_Array_Sort_TisUICharInfo_t75501106_m3474449559_gshared
Qxg:_Buffer_BlockCopy_m2884209081
vcj:_QuickSearch_GetShiftDistance_m2542665852
YLi:_Array_InternalArray__get_Item_TisCustomAttributeTypedArgument_t2723150157_m2639399822_gshared
yoh:_BigInteger_GenerateRandom_m3141592944
Svb:__Z29Transfer_Blittable_ArrayFieldI24GenerateTypeTreeTransfer4AABBEvRT_R9ArrayInfoRK23StaticTransferFieldInfo
tIc:__ZN9Scripting11UnityEngine12StylePainter12CleanupProxyEv
oxg:_Interval_Contains_m1454846757
jFd:_Graphic_CacheCanvas_m1120385152
oI:__ZN26AnimatorOverrideController15InitializeClassEv
xIc:__ZN9Scripting11UnityEngine15ScrollViewState12CleanupProxyEv
qPf:_InputField_set_contentType_m1277230266
Ymk:_emscripten_GetProcAddress
Ca:invoke_fiiifii
rok:_modff
gIa:__ZN20SphericalHarmonicsL219AddDirectionalLightERKN4math7_float3ERKNS0_7_float4E
hfa:__Z26ScheduleJobForEachInternalR8JobFencePFvPvjES1_iPFvS1_E11JobPriority
fWb:__ZZ23InitPlayerLoopCallbacksvEN41PostLateUpdateProfilerEndFrameRegistrator7ForwardEv
Vjc:__ZN9Scripting18RaiseMonoExceptionEPKcz
$yc:__ZN10GameObject17WillHandleMessageERK17MessageIdentifier
Hfg:_StrongNamePublicKeyBlob_Equals_m3655422942
Egg:_SecurityContext__ctor_m1730177197
nyj:_RectTransformUtility_GetTransposed_m3952754222
exc:__ZN9ShaderLab16FastPropertyName15InitBy28BitHashEj
AOi:_List_1_System_Collections_IList_set_Item_m4182383657_gshared
Zii:__Z96RuntimeInvoker_Void_t1185182177_Int32_t2950945753_Single_t1397266774_RuntimeObject_RuntimeObjectPFvvEPK10MethodInfoPvPS4_
L9e:_Enumerator_System_Collections_IDictionaryEnumerator_get_Key_m195047678_AdjustorThunk
hxj:_Canvas_get_pixelPerfect_m333060872
G$a:__ZN17PackedFloatVector12UnpackFloatsEPfiiii
WB:__ZN17AnimationPlayable28UpdateInternalStateRecursiveILi3ELb0EEEvPK35AnimationPlayableEvaluationConstant
$Mb:__ZN13GfxDeviceGLES21DestroyComputeProgramER12ObjectHandleI18ComputeProgram_TagPvE
Afh:_Enumerable_Any_TisRuntimeObject_m3853239423_gshared
Ubj:_PatternCompiler_EmitIfDefined_m2075050865
f9g:_Decimal_System_IConvertible_ToInt64_m1446427516_AdjustorThunk
Fca:__ZN17UniqueIDGenerator16DestroyPureIndexEj
yNe:_NotImplementedException__ctor_m3095902440
I8:__ZL21AppendNestedClassName17ScriptingClassPtrRN4core17string_with_labelILi1EEE
dfc:__ZN14SafeBinaryRead21TransferSTLStyleArrayINSt3__26vectorIN9ShaderLab20SerializedSubProgram12UAVParameterENS1_9allocatorIS5_EEEEEEvRT_17TransferMetaFlags
w_j:__ZN6il2cpp8metadata13ArrayMetadata20SetupArrayInterfacesEP11Il2CppClassRKNS_2os12FastAutoLockE
wPf:_InputField_set_inputType_m424695295
OY:__ZN24TextDOMTransferWriteBaseI9JSONWriteE12PushMetaFlagEi
zQc:__Z18Transfer_BlittableI8JSONReadLb1E10ColorRGBAfEvRK29SerializationCommandArgumentsR31RuntimeSerializationCommandInfo
qia:__ZN6prcoreL26RemapGenericIntegerToFloatI17TexFormatARGB888815TexFormatRFloatEEvPKNS_9InnerInfoE
TLj:__ZN6il2cpp2vm10ThreadPool10InitializeEv
WRi:_List_1__ctor_m808270210_gshared
RVj:__ZN6il2cpp2vm17TypeNameParseInfoD2Ev
yCh:_PrimeHelper_ToPrime_m3704362632_gshared
fN:__ZN4FMOD7Channel7setModeEj
P8g:_Decimal_System_IConvertible_ToType_m2919262279
_Mf:_Vector2_get_right_m1027081661
GUa:__ZNK8Renderer8GetLayerEv
GZg:_Stream_Close_m771352034
H7e:__ZN21InterfaceFuncInvoker1Ii19TimeSpan_t881159249E6InvokeEjP11Il2CppClassP12Il2CppObjectS0_
DHa:__ZN12FlareManager11DeleteFlareEi
f$b:__ZNK6Camera20GetReplacementShaderEv
TUi:_List_1_System_Collections_IList_Remove_m4226673807_gshared
ukk:__ZNSt3__26__treeINS_12__value_typeINS_12basic_stringIcNS_11char_traitsIcEENS_9allocatorIcEEEEPFvvEEENS_19__map_value_compareIS7_SA_NS_4lessIS7_EELb1EEENS5_ISA_EEE4findIS7_EENS_15__tree_iteratorISA_PNS_11__tree_nodeISA_PvEEiEERKT_
gPa:__ZL23stbir__calculate_memoryP11stbir__info
wwg:_Interpreter_Close_m126356671
iWc:__ZN9Scripting11UnityEngine14SphereCollider12CleanupProxyEv
a_a:__ZNK6Camera18GetRenderRectangleEv
$5j:__ZN6il2cpp8metadata15GenericMetadata7InflateEPK19Il2CppGenericMethodPK20Il2CppGenericContext
MTc:__ZN9Scripting11UnityEngine22ParticleCollisionEvent9InitProxyEv
sYa:__ZN13sorted_vectorIN4core12basic_stringIcNS0_20StringStorageDefaultIcEEEENSt3__24lessIS4_EE13stl_allocatorIS4_L18MemLabelIdentifier81ELi16EEE4findIS4_EENS5_11__wrap_iterIPS4_EERKT_
Yxc:__Z13RegisterClassI30RuntimeInitializeOnLoadManagerEvPKc
Mcj:_Parser_HandleExplicitNumericGroups_m1412234891
wMi:_Array_InternalArray__get_Item_TisRaycastHit2D_t2279581989_m2440275162_gshared
MRe:_CustomAttributeNamedArgument_Equals_m1414002036
eRc:__ZL26Transfer_SimpleNativeClassI8JSONRead10RectOffsetLb1EEvRK29SerializationCommandArgumentsR31RuntimeSerializationCommandInfo
Ced:__Z44CanvasRenderer_CUSTOM_INTERNAL_CALL_SetColorP12Il2CppObjectRK10ColorRGBAf
qDa:__Z26TransformVerticesInnerLoopILb1ELb1ELb1EEvPhRK10Matrix4x4fRK10Matrix3x3fjPKhiS8_ii25GfxTransformVerticesFlagsj
ZDh:_Enumerator_System_Collections_IEnumerator_Reset_m959124362_AdjustorThunk
m_b:__ZNK20DynamicPropertySheet18FindQueuedPropertyEN9ShaderLab16FastPropertyNameEN19ShaderPropertySheet12PropertyTypeE
zch:_Enum_ToObject_m121831801
zHd:_Image_get_hasBorder_m3423344180
Sid:__Z48UnityAnalyticsHandler_CUSTOM_SendCustomEventNameP12Il2CppObjectP12Il2CppString
Ypc:__ZN9Transform16SetLocalRotationERK11Quaternionf
ama:__ZL49__ManagedRegistrationHelperFunction_CommandBufferPv
fXb:__ZN13RenderManager37RenderCamerasWithScriptableRenderLoopEi
xOh:_TimeSpan__ctor_m3689759052
CMb:__ZN13GfxDeviceGLES22ReleaseThreadOwnershipEv
mFi:__Z37RuntimeInvoker_Enumerator_t3123848928PFvvEPK10MethodInfoPvPS4_
G6j:__ZN6il2cpp2os19ReleaseSocketHandleEj
wV:__ZN11AudioModule16GetDSPSampleRateEv
QOf:_InputField_get_characterValidation_m4196664041
PPh:_Type_get_Attributes_m58528356
Qzf:_SpriteBone_t303320096_marshal_pinvoke
hyg:_Array_GetUpperBound_m4018715963
jaj:_X509Store__ctor_m2736551756
msc:__Z13RegisterClassI9TextAssetEvPKc
a8j:__ZN6il2cpp2os5posix15PosixWaitObjectC2ENS2_4TypeE
kZb:__ZN6Camera21PostMultiCustomRenderENS_10RenderFlagEb
cGi:_Array_InternalArray__Insert_TisMonoResource_t4103430009_m1997865927_gshared
Cdg:_SHA512Managed_HashFinal_m2173184560
BSb:__ZN12_GLOBAL__N_112UploadImagesEP7ApiGLESjji14GraphicsFormatPKhjS2_iiii16TextureUsageModePh
pJb:__ZN23ShaderVariantCollection13WarmupShadersEv
stc:__ZN13ProduceHelperI9TransformLb0EE7ProduceE10MemLabelId18ObjectCreationMode
p8:__Z25GetCommonScriptingClassesv
T6a:__Z27scripting_gc_collect_unsafei
f3f:_MD5SHA1_HashFinal_m4115488658
BV:__ZN11AudioModule20SuspendVideoTexturesEv
Mjh:_Array_InternalArray__ICollection_Add_TisKeyValuePair_2_t71524366_m3468275433_gshared
Dbd:__ZN9Scripting11UnityEngine9CSSLayout6Native9InitProxyEv
GU:__Z59Register_UnityEngine_AudioExtensionManager_GetAudioListenerv
ivb:__Z26Transfer_UnityEngineObjectI24GenerateTypeTreeTransferLb0EEvRK29SerializationCommandArgumentsR31RuntimeSerializationCommandInfo
Y2g:_Convert_ToDouble_m278900635
O1c:_UNITY_FT_GlyphLoader_CheckPoints
txf:_DebugLogHandler_LogException_m302830419
MQf:_InputField_LineDownCharacterPosition_m2798128425
Oaf:_Enumerator_System_Collections_IDictionaryEnumerator_get_Value_m684446183_AdjustorThunk
LHa:__ZN15SharedLightData7PrecalcEv
Wxa:__ZN10Matrix4x4fmLERKS_
dHf:_Vector2__ctor_m3970636864
rxa:__ZN17TransformInternal12InitLocalTRSE15TransformAccessRKN4math7_float3ERKNS1_7_float4ES4_
Lyb:__Z35Transfer_Blittable_FixedBufferFieldI18StreamedBinaryReadILb1EEsEvRK29SerializationCommandArgumentsR31RuntimeSerializationCommandInfo
Xch:_Environment_InternalGetFolderPath_m468390978
Fld:__ZN11UnityEngine15PlatformWrapper18GetOperatingSystemEv
nhg:_SecurityFrame_ToString_m339310712
c$d:__ZL62ParamArrayAttribute_t3664765590_CustomAttributesCacheGeneratorP21CustomAttributesCache
IRc:__ZN8GUIStyle8TransferI8JSONReadEEvRT_
zyd:_TouchInputModule_ProcessTouchPress_m3504077560
QZf:_Selectable_IsInteractable_m2611421038
s1c:_FT_MSB
$yk:_emscripten_glReadPixels__wrapper
PCh:_HashSet_1_Add_m1971460364_gshared
Ikk:__ZN6il2cpp6icalls8mscorlib4Mono8Security12Cryptography18KeyPairPersistence10_CanSecureEP12Il2CppString
Rdh:_Array_InternalArray__ICollection_Contains_TisParameterModifier_t1461694466_m1000453323_gshared
Huh:_Dictionary_2_System_Collections_ICollection_CopyTo_m4047192178_gshared
lOj:__ZN6il2cpp2os4File11GetFileStatERKNSt3__212basic_stringIcNS2_11char_traitsIcEENS2_9allocatorIcEEEEPNS0_8FileStatEPi
sid:__ZN14UnityAnalytics22HandleCustomEventLimitERN11UnityEngine9Analytics15UserCustomEventE
rtc:__ZN9TransformC2E10MemLabelId18ObjectCreationMode
fLb:__ZN13GfxDeviceGLES14SetRasterStateEPK17DeviceRasterState
zQe:_Assembly_ToString_m2053237013
_Bf:_Vector4_Equals_m1779210055
D3c:_otv_Coverage_get_count
gOd:_ParameterModifier_t1461694466_marshal_pinvoke_back
rsa:__ZN14SafeBinaryRead11EndTransferEv
VAh:_EqualityComparer_1__cctor_m2741186979_gshared
UQ:__ZN20SoundChannelInstance19set3DMinMaxDistanceEff
pch:_Enum_System_IConvertible_ToUInt16_m4216751959
hTb:__ZN21UniformBufferTFMethod13MapBoneBufferEj
zvj:_StringExtension_Anagram_m968226828
fmh:_Array_InternalArray__Insert_TisInt32_t2950945753_m4073217122_gshared
Gbg:_RNGCryptoServiceProvider_RngClose_m3915778345
u$g:_SortedList_Remove_m2784369438
URa:__ZN4crnd12crn_unpacker10unpack_dxnEPPhjjj
a9:__ZN14SerializedFileD2Ev
eJc:__Z30Event_Get_Custom_PropModifiersP12Il2CppObject
uw:__ZN7mecanim9animation16CreateClipOutputEPKNS0_4ClipERNS_6memory9AllocatorE
rVf:_RawImage_get_mainTexture_m2396337033
xOj:__ZN6il2cpp2vm10Reflection17GetAssemblyObjectEPK14Il2CppAssembly
FDb:__ZNSt3__218__stable_sort_moveIRN10vector_mapI17ScriptingClassPtrPKN5Unity4TypeENS_4lessIS2_EENS_9allocatorINS_4pairIS2_S6_EEEEE13value_compareENS_11__wrap_iterIPSB_EEEEvT0_SJ_T_NS_15iterator_traitsISJ_E15difference_typeEPNSM_10value_typeE
Udc:__ZN6Shader21AwakeFromLoadThreadedEv
Aha:__ZN6prcoreL17RemapGenericFloatI17TexFormatRGBFloat17TexFormatRGBAHalfEEvPKNS_9InnerInfoE
toh:_BigInteger__ctor_m3991350270
cpc:__Z58Register_UnityEngine_PlayerConnectionInternal_PollInternalv
OMf:_Vector2_GetHashCode_m3916089713_AdjustorThunk
Xlk:__ZN6il2cpp2os9SemaphoreC2Eii
Wpb:__ZNSt3__26vectorI8MonoPPtr13stl_allocatorIS1_L18MemLabelIdentifier1ELi16EEE8__appendEj
NZb:__ZN14qsort_internal30FindAndMovePivotToLastPositionIP17RODataReplacementi19ROSorterReplacementEEvT_S4_T0_T1_
sTb:__ZN15UniformTFMethod20IsBoneCountSupportedEi
dUh:_UnauthorizedAccessException__ctor_m246605039
cwc:__Z12BuildTextureIA4_tPFvP9Texture2DPS0_iiiiEES2_PKcii13TextureFormatRKT0_17TextureColorSpaceb
mtk:dynCall_viidi
ncf:_KeyCollection__ctor_m1356492051_gshared
Y5:__ZN24ScriptingMethodFiltering17FilterOnSignatureENS_18MethodSearchFilterE
mid:__ZNSt3__26__treeINS_12__value_typeIN4core12basic_stringIcNS2_20StringStorageDefaultIcEEEEN11UnityEngine9Analytics15UserCustomEvent11CustomValueEEENS_19__map_value_compareIS6_SB_NS_4lessIS6_EELb1EEE13stl_allocatorISB_L18MemLabelIdentifier6ELi16EEE7destroyEPNS_11__tree_nodeISB_PvEE
Q0c:_cf2_arrstack_finalize
_8i:_X509Certificate_VerifySignature_m3538124832
KZg:_StreamAsyncResult_SetComplete_m1102187093
Nuc:__ZN13MonoBehaviour19HandleNotificationsEPviR11MessageData
aIf:_RectOffset_Init_m2028508611
wmk:__ZN6il2cpp2os9EventImpl5ResetEv
w4f:_Alert__ctor_m3135936936
ZTg:_Int64_System_IConvertible_ToInt32_m772105781
U5i:_TlsClientSettings__ctor_m3220697265
ySj:__ZNK15dense_hashtableINSt3__24pairIK10KeyWrapperINS1_IPK9EventInfoP11Il2CppClassEEEjEES9_17ReflectionMapHashIS8_EN14dense_hash_mapIS9_jSD_NS9_14EqualsComparerINS0_8equal_toIS8_EEEENS0_9allocatorISB_EEE9SelectKeyESI_SK_E23find_position_with_hashERSA_j
ksd:__ZL45__ManagedRegistrationHelperFunction_SubsystemPv
Xth:_Dictionary_2_make_pair_m2250450206_gshared
uJh:_ForwardingDecoder_GetChars_m4228908854
Rwg:_InterpreterFactory_get_GroupCount_m2226373271
Vvk:b53
Svk:b50
Tvk:b51
Yvk:b56
Zvk:b57
Wvk:b54
Xvk:b55
Gs:__ZL45__ManagedRegistrationHelperFunction_HumanBonePv
nnh:_SimpleCollator_IsSafe_m310268646
bzg:_X509Certificate_get_RawData_m2387471414
Bxk:_glDetachShader__wrapper
zDg:_ArrayTypeMismatchException__ctor_m3375008173
Wdf:_Transform_1_BeginInvoke_m1757796657_gshared
Uoa:__ZN9Scripting11UnityEngine7Hash12812CleanupProxyEv
cuc:__ZN10GameObject12CleanupClassEv
Ehb:__ZN9GfxDevice25SetShaderPropertiesSharedERK19ShaderPropertySheet
Dod:__ZN11UnityEngine7Connect20RemoteConfigSettingsC2ERKN4core12basic_stringIcNS2_20StringStorageDefaultIcEEEEPFvPS1_E18ScriptingObjectPtr
lzd:_BaseMeshEffect_get_graphic_m1852367505
hKg:_CaseInsensitiveHashCodeProvider_GetHashCode_m2168170016
Ykb:__ZN18AsyncUploadManager19AsyncResourceUploadER9GfxDeviceii9TextureID
_pa:__ZN9Scripting11UnityEngine12Experimental18GlobalIllumination11LightDataGI12CleanupProxyEv
Iuc:__ZL25InitializeDefaultMaterialv
nId:_PropertyBuilder_GetCustomAttributes_m3798356764
kOd:_PropertyInfo_get_MemberType_m2794839864
fmj:_EventTrigger_RemoveRule_m1596811726
H8e:_Comparer_1_System_Collections_IComparer_Compare_m4179495191_gshared
c8a:__ZN17PersistentManager12UnloadStreamERKN4core12basic_stringIcNS0_20StringStorageDefaultIcEEEEb
pfb:__ZN10MemoryFile4ReadEyyPvPy
BGi:_Array_InternalArray__Insert_TisUICharInfo_t75501106_m2924156520_gshared
Cjh:_MonoProperty_GetterAdapterFrame_TisRuntimeObject_TisRuntimeObject_m458718082_gshared
TIi:_Array_Sort_TisInt32_t2950945753_TisInt32_t2950945753_m3955828611_gshared
WXj:_il2cpp_unity_liveness_calculation_from_statics
Pyi:__Z70RuntimeInvoker_Boolean_t97287965_CharU26_t1697032762_Int16_t2552820387PFvvEPK10MethodInfoPvPS4_
eA:__ZNK26AnimatorControllerPlayable11DerivesFromE17ScriptingClassPtr
X5e:_InternalEnumerator_1_System_Collections_IEnumerator_get_Current_m2649471526_gshared
sVa:__ZN8Renderer8TransferI17RemapPPtrTransferEEvRT_
b8b:__ZN13RenderTexture16SetSRGBReadWriteEb
DPa:__ZN6prcore16BlitFuncInfoSIMD19BlitFuncExecuteSIMDEPKNS_9InnerInfoEPKv
_pd:__ZN20UnityWebRequestProtoI24UnityWebRequestTransport16AtomicRefCounter14RedirectHelper14ResponseHelper15DownloadHandler13UploadHandler18CertificateHandler12HeaderHelper14AsyncOperationE9DoRequestEv
H9e:_Enumerator_System_Collections_IDictionaryEnumerator_get_Entry_m522483686_gshared
qsh:_PrivateKeyInfo_RemoveLeadingZero_m3921889925
eNh:_Thread_get_CurrentContext_m1695017876
n8b:__Z24LookRotationToQuaternionRK8Vector3fS1_P11Quaternionf
l8b:__ZN16ReflectionProbes9GetCameraEv
Z2b:__Z23CalculateLightOcclusionRK17LightProbeContextRK29LightProbeSamplingCoordinatesi
Zic:__ZL18IsGpuProgramUsable20ShaderGpuProgramTypePK6Shader
rdd:__ZN2UI6Canvas17SetSortingLayerIDEi
Z7j:__ZN6il2cpp2vm11MethodStack23CleanupForCurrentThreadEv
H5g:_Convert_ToUInt64_m388601487
RFa:__ZN20TierGraphicsSettings8TransferI24GenerateTypeTreeTransferEEvRT_
tHj:__ZN15dense_hashtableINSt3__24pairIK10KeyWrapperIN6il2cpp5utils13dynamic_arrayIPK10Il2CppTypeLj4EEEEPFvvEEESA_NS3_8metadata19Il2CppSignatureHashEN14dense_hash_mapISA_SD_SG_NSA_14EqualsComparerINSF_22Il2CppSignatureCompareEEENS0_9allocatorISE_EEE9SelectKeyESK_SM_E16reset_thresholdsEv
hLf:_TouchScreenKeyboard_get_text_m1797464608
tNa:__ZN18UnityPropertySheet8TransferI19StreamedBinaryWriteILb0EEEEvRT_
ct:__ZN9Scripting11UnityEngine27AnimatorControllerParameter9InitProxyEv
fga:__ZNSt3__26__treeINS_12__value_typeIiN11TypeManager18TypeCallbackStructEEENS_19__map_value_compareIiS4_NS_4lessIiEELb1EEENS_9allocatorIS4_EEE7destroyEPNS_11__tree_nodeIS4_PvEE
rBa:__ZN9ShaderLab32FindBestMatchingShaderKeywordSetERK16ShaderKeywordSetRK13dynamic_arrayIS0_Lj0EEPS5_
Gzc:__ZNK14PlayableOutput23GetSourcePlayableUnsafeEv
Akd:__ZN11UnityEngine7Connect17XRDeviceInfoEventD0Ev
n6d:__ZL60SoapTypeAttribute_t1750930817_CustomAttributesCacheGeneratorP21CustomAttributesCache
eRe:_Binder_ConvertArgs_m2124461494
sdc:__ZN21UnityDefaultAllocatorI17LowLevelAllocatorE10DeallocateEPv
Dzk:b86
MH:__ZN15PackedIntVector8TransferI14SafeBinaryReadEEvRT_
aNf:_Vector3__ctor_m3353183577_AdjustorThunk
B_e:_InternalEnumerator_1_System_Collections_IEnumerator_get_Current_m1514266661_gshared
e3f:_MD5SHA1_Initialize_m675470944
xkh:_Array_InternalArray__ICollection_Add_TisKeyframe_t4206410242_m442111799_gshared
wSi:_List_1_CheckMatch_m3263549496_gshared
bGf:_PropertyNameUtils_PropertyNameFromString_Injected_m1259736140
mT:__ZN13AudioListener8DoUpdateEv
eMc:__ZN5Unity9rapidjson13GenericReaderINS0_4UTF8IcEES3_13JSONAllocatorE9ParseTrueILj1ENS0_25GenericInsituStringStreamIS3_EENS0_15GenericDocumentIS3_S4_S4_EEEEvRT0_RT1_
XKe:__Z13bankers_roundd
w2a:__ZN14SafeBinaryRead8TransferI5RectTIfEEEvRT_PKc17TransferMetaFlags
qi:_emscripten_glGenFramebuffers
aga:__ZN17BaseObjectManager16StaticInitializeEPv
Una:__ZN9Scripting11UnityEngine9Profiling8Profiler12CleanupProxyEv
AOc:__Z18Transfer_BlittableI9JSONWriteLb0EyEvRK29SerializationCommandArgumentsR31RuntimeSerializationCommandInfo
FKa:__ZN13RenderTexture15ThreadedCleanupEv
isg:_X509BasicConstraintsExtension__ctor_m3721156175
zQa:__ZN12CubemapArray23VirtualRedirectTransferER14SafeBinaryRead
xw:__ZN21AnimationClipPlayable16ProcessHumanPassEPK35AnimationPlayableEvaluationConstantPK32AnimationPlayableEvaluationInputP33AnimationPlayableEvaluationOutput
dWg:_Path_GetFileName_m1354558116
UDc:__Z51Register_UnityEngine_QualitySettings_set_vSyncCountv
ywk:_emscripten_glUniform3i__wrapper
Knh:_SimpleCollator_IsPrefix_m3581642267
KHf:_Rect_Contains_m1232228501_AdjustorThunk
Vlc:__Z43RectTransform_CUSTOM_INTERNAL_set_sizeDeltaP12Il2CppObjectRK13Vector2fIcall
gUg:_Int64_System_IConvertible_ToType_m3223988955_AdjustorThunk
P3j:__ZN15dense_hashtableINSt3__24pairIK10KeyWrapperINS1_IPKcS4_EEEiEES6_24NamespaceAndNamePairHashN14dense_hash_mapIS6_iS9_NS6_14EqualsComparerI26NamespaceAndNamePairEqualsEENS0_9allocatorIS8_EEE9SelectKeyESD_SF_E6insertERKS8_
fua:__ZN24GenerateTypeTreeTransfer18BeginArrayTransferEPKcS1_Ri17TransferMetaFlags
uMi:_Array_InternalArray__get_Item_TisPlayableBinding_t354260709_m3837494573_gshared
pm:___syscall51
vkg:_String_CreateString_m4016935005
hbj:_MatchCollection_get_FullList_m1829231879
tm:___syscall54
pCg:_Array_GetValue_m2528415604
ZLf:_Transform_INTERNAL_CALL_TransformPoint_m4261269221
rRg:_Guid_AppendShort_m791023083
SSi:_List_1__ctor_m4212503576_gshared
s8c:_ft_var_get_item_delta
UJg:_BitArrayEnumerator_MoveNext_m3806676766
P1c:_cff_builder_add_point1
Y4j:__ZN6il2cpp2vm5Image21GetCachedResourceDataEPK11Il2CppImageRKNSt3__212basic_stringIcNS5_11char_traitsIcEENS5_9allocatorIcEEEE
Eob:__Z18Transfer_BlittableI14SafeBinaryReadLb0E10ColorRGBAfEvRK29SerializationCommandArgumentsR31RuntimeSerializationCommandInfo
za:invoke_iiiiiiiiii
vU:__ZN11AudioSource25GetNumExtensionPropertiesEv
Jlh:_Array_InternalArray__ICollection_CopyTo_TisUILineInfo_t4195266810_m104406798_gshared
Vsc:__ZZL31RegisterRectTransformPropertiesR22GenericPropertyBindingEN32Wrapper_RectTransformAnchorMaxx013GetFloatValueEPv
gxf:_Debug_LogErrorFormat_m3558239521
fFd:_Graphic_get_canvas_m3320066409
jQf:_InputField_ActivateInputFieldInternal_m3360893886
D3i:_RijndaelManagedTransform__ctor_m1033522223
Acc:__ZN10FileSystem19SetCurrentDirectoryERKN4core12basic_stringIcNS0_20StringStorageDefaultIcEEEE
qwf:_Component_get_gameObject_m442555142
_Ke:_Math_Log_m2526073084
xtc:__ZN23TransformChangeDispatch24RemovePermanentInterestsE15TransformAccessPKN5Unity4TypeE
UEc:__Z47Register_UnityEngine_Coroutine_ReleaseCoroutinev
EL:__ZN15AudioReverbZone13SetFMODValuesEv
h7:__ZN14SafeBinaryRead4InitERK16TypeTreeIteratorxx24TransferInstructionFlags10MemLabelId
K2:__ZL19StaticDestroyShaderPv
$d:_glRenderbufferStorageMultisample
qB:__ZN23AnimationPlayableOutput17SetTargetAnimatorEP8Animator
p0b:__ZN22MotionVectorRenderLoopD2Ev
xtf:_Debug_LogException_m2207318968
jue:__ZL76AnimatorTransitionInfo_t2534804151_CustomAttributesCacheGenerator_m_FullPathP21CustomAttributesCache
Gjh:_Array_InternalArray__ICollection_Add_TisClientCertificateType_t1004704908_m2622721177_gshared
VH:__ZN17PackedFloatVector8TransferI18StreamedBinaryReadILb0EEEEvRT_
ZQa:__ZN7Cubemap23VirtualRedirectTransferER17RemapPPtrTransfer
YGc:__Z37Register_UnityEngine_Screen_get_widthv
fAj:_UnityAnalyticsHandler_SendCustomEvent_m1223269116
wgj:_Uri_get_Authority_m3816772302
Nkc:__ZN22BlockMemoryCacheWriter11GetPathNameEv
e1f:_BigInteger_op_Division_m3713793389
aLf:_Touch_get_position_m3109777936
oNd:_ParameterInfo__ctor_m3269320476
jvg:_X509SubjectKeyIdentifierExtension_FromHexChars_m3244835916
_hg:_Single_CompareTo_m2785801815
rTh:_UInt64_System_IConvertible_ToInt32_m949522652_AdjustorThunk
J7i:_PKCS12_MAC_m3355614022
Yo:stackAlloc
Bfb:__ZN25SingleBlockMemoryFileData4LockEPPv
dAk:_glProgramParameteri__wrapper
Znc:__Z32RectOffset_Get_Custom_PropBottomP12Il2CppObject
cxf:_Debug_LogError_m2850623458
urj:__ZL24UnresolvedVirtualCall_79P12Il2CppObjectPK10MethodInfo
hec:__ZNSt3__26__treeINS_12__value_typeIN4core12basic_stringIcNS2_20StringStorageDefaultIcEEEE4PPtrI7TextureEEENS_19__map_value_compareIS6_SA_NS_4lessIS6_EELb1EEENS_9allocatorISA_EEE7destroyEPNS_11__tree_nodeISA_PvEE
Hoi:__Z69RuntimeInvoker_UInt64_t4134040092_Int32_t2950945753_SByte_t1669577662PFvvEPK10MethodInfoPvPS4_
Dok:_stat
yBa:__ZN9ShaderLab10SubProgram7CompileEv
gId:_PropertyBuilder_get_CanRead_m3783190070
g9:__ZN14SerializedFile14SerializedTypeD2Ev
Npa:__ZN9Scripting11UnityEngine12Experimental9Playables21TexturePlayableOutput9InitProxyEv
X5f:_CipherSuiteCollection_System_Collections_IList_get_Item_m2175128671
pya:__ZN6CameraD2Ev
rFc:__Z50Register_UnityEngine_Camera_get_pixelRect_Injectedv
la:invoke_iiiiiiiiiiii
K6g:_DateTime_System_IConvertible_ToType_m1242864300_AdjustorThunk
f5e:_InternalEnumerator_1_get_Current_m2446410893_AdjustorThunk
aDa:__Z29CalculateDefaultChannelsToAdd17ShaderChannelMaskS_
gDg:_Array_Sort_m870838517
fUb:__ZNSt3__26__treeI20DeviceBlendStateGLES14MemoryCompLessI16DeviceBlendStateENS_9allocatorIS1_EEE7destroyEPNS_11__tree_nodeIS1_PvEE
Txj:_CanvasRenderer_SetMaterial_m633746949
OP:__ZN10AudioMixer12RebindOutputEv
k_j:__ZNK15dense_hashtableINSt3__24pairIK10KeyWrapperIP11Il2CppClassES4_EES5_N6il2cpp8metadata16SZArrayClassHashEN14dense_hash_mapIS5_S4_SA_NS5_14EqualsComparerINS9_19SZArrayClassCompareEEENS0_9allocatorIS7_EEE9SelectKeyESE_SG_E5beginEv
nTf:_LayoutRebuilder_PerformLayoutControl_m4241054021
yCj:__ZN6il2cpp2vm17SetupFieldsLockedEP11Il2CppClassRKNS_2os12FastAutoLockE
qtf:_AnimationCurve__ctor_m1565662948
hQ:__ZN11AudioSourceD0Ev
bRb:__ZN18GlslGpuProgramGLES13SwitchProgramEj
RUb:__ZN20ArchiveStorageReaderC2E10MemLabelId
pfi:__Z132RuntimeInvoker_Int32_t2950945753_RuntimeObject_Int32_t2950945753_Int32_t2950945753_RuntimeObject_Int32_t2950945753_Int32_t2950945753PFvvEPK10MethodInfoPvPS4_
jgb:__ZN16MemoryFileSystem4NameEv
IDc:__Z13SetCopyBufferRKN4core12basic_stringIcNS_20StringStorageDefaultIcEEEE
l6i:_TlsException__ctor_m818940807
lzg:_X509CertificateEnumerator_System_Collections_IEnumerator_get_Current_m418791713
Ehd:__ZN14UnityAnalyticsD2Ev
Omc:__Z42ScriptingGetComponentsOfTypeFromGameObjectRK26ScriptingGetComponentsArgs
voe:__ZL73ArgumentCache_t2187958399_CustomAttributesCacheGenerator_m_ObjectArgumentP21CustomAttributesCache
iue:__ZL65AnimatorTransitionInfo_t2534804151_CustomAttributesCacheGeneratorP21CustomAttributesCache
$Ji:_Array_swap_TisRaycastResult_t3360306849_TisRaycastResult_t3360306849_m3400922624_gshared
pWc:__ZN9Scripting11UnityEngine21ControllerColliderHit9InitProxyEv
Aqf:_CspParameters__ctor_m2741097571
QNa:__ZNSt3__27__sort4IRPFbRKNS_4pairIN9ShaderLab16FastPropertyNameEN18UnityPropertySheet11UnityTexEnvEEES8_EPS6_EEjT0_SD_SD_SD_T_
O0c:_cf2_hintmap_build
JKf:_Texture_get_width_m888163864
Cmc:__Z11StringToIntRKN4core16basic_string_refIcEE
L9c:_Line_Up
ge:_emscripten_glBufferSubData
Zjg:_String_ReplaceUnchecked_m1381393810
M7e:_DefaultComparer_Compare_m3278268937_gshared
Sp:__Z17CalculateGlobalRS23TransformAccessReadOnly
tad:__Z56Register_UnityEngine_TextGenerator_GetCharactersInternalv
fjk:__ZNSt3__210__list_impIPN6il2cpp5utils10MemoryPool6RegionENS_9allocatorIS5_EEE5clearEv
lGb:__ZNK25PathNamePersistentManager24PathIDToPathNameInternalEi
ecb:__ZNK12HandlerChain7ToLocalERK13FileEntryDataRN4core12basic_stringIcNS3_20StringStorageDefaultIcEEEERyS9_
_8a:__ZN22MemoryCacherReadBlocks14LockCacheBlockEjPPhS1_
FVj:__ZN6il2cpp2vm14TypeNameParser17ParseAssemblyNameEv
ZZa:__ZNK9GfxDevice26GetSinglePassStereoEyeMaskEv
qxf:_DebugLogHandler_Internal_Log_m4175774469
Vck:__ZN4utf88internal15increase_safelyIPKcEENS0_9utf_errorERT_S5_
iHg:_CharEnumerator_get_Current_m525608209
cud:__Z21ArrayElementTypeCheckP11Il2CppArrayPv
jzk:_emscripten_glTexSubImage2D__wrapper
yWa:__ZN18StreamedBinaryReadILb0EE21TransferSTLStyleArrayI13dynamic_arrayI33EnlightenTerrainChunksInformationLj0EEEEvRT_17TransferMetaFlags
N0d:__ZL69DebuggerBrowsableAttribute_t1026244177_CustomAttributesCacheGeneratorP21CustomAttributesCache
Ala:__ZL48__ManagedRegistrationHelperFunction_LightmapDataPv
vqk:__ZNSt3__212basic_stringIcNS_11char_traitsIcEENS_9allocatorIcEEE6appendEjc
vDb:__Z13TransferFieldI18StreamedBinaryReadILb0EELb0E16Converter_StringEvRK23StaticTransferFieldInfoR31RuntimeSerializationCommandInfoRT1_
led:__Z42Register_UnityEngine_Canvas_get_rootCanvasv
Tpb:__Z14resize_trimmedINSt3__26vectorI8MonoPPtr13stl_allocatorIS2_L18MemLabelIdentifier1ELi16EEEEEvRT_j
Pe:_TTF_RenderText_Solid
yIh:_List_1__ctor_m3947764094_gshared
LYc:__ZN20TextRenderingPrivate21TextMeshGeneratorImpl5FlushEv
nfj:_Parser_IsIgnorePatternWhitespace_m2107132682
pid:__ZN14UnityAnalytics15Internal_CreateE18ScriptingObjectPtr
hpg:_HttpRequestCreator_Create_m400548686
Eod:__ZN11UnityEngine7Connect16PersistentValuesC2Ev
L2h:_ReadOnlyCollection_1_System_Collections_IList_Insert_m134149130_gshared
eOc:__Z18Transfer_BlittableI9JSONWriteLb0E5RectTIiEEvRK29SerializationCommandArgumentsR31RuntimeSerializationCommandInfo
xoh:_BigInteger_get_Rng_m4216817480
Heh:_Array_InternalArray__ICollection_Remove_TisDateTime_t3738529785_m2250893026_gshared
RKb:__Z15IsIEEE754Format14GraphicsFormat
D9:__ZL12CreateStringPjR13dynamic_arrayIcLj0EEPKc
Btb:__Z19TransferField_ArrayI17RemapPPtrTransfer27Converter_UnityEngineObjectEvRK23StaticTransferFieldInfoR31RuntimeSerializationCommandInfoRT0_
TKg:_KeyNotFoundException__ctor_m541499307
dgh:_SetPropertyUtility_SetStruct_TisSpriteState_t1362986479_m665096788_gshared
Lfi:__Z61RuntimeInvoker_Single_t1397266774_RuntimeObject_RuntimeObjectPFvvEPK10MethodInfoPvPS4_
Neh:_Array_InternalArray__ICollection_Remove_TisIntPtr_t_m3807208150_gshared
wri:__Z71RuntimeInvoker_Void_t1185182177_Vector3_t3722313464_Vector3_t3722313464PFvvEPK10MethodInfoPvPS4_
F1e:_InternalEnumerator_1_get_Current_m2316281569_AdjustorThunk
V1g:_DateTime__ctor_m1095105629
gMb:__ZN13GfxDeviceGLES15UploadTexture2DE9TextureID16TextureDimensionPKhiii14GraphicsFormati18TextureUploadFlags16TextureUsageMode
chj:_Event_Cleanup_m2477919477
FO:__ZN4FMOD6System9createDSPEP20FMOD_DSP_DESCRIPTIONPPNS_3DSPE
yae:__ZL87Thread_t2300836069_CustomAttributesCacheGenerator_Thread_GetCompressedStack_m2923422412P21CustomAttributesCache
gbg:_SslClientStream_get_ClientCertificates_m998716871
PM:__ZN4FMOD8ChannelI11EndCallbackEv
CKc:__ZN8GUIStyle14SetDefaultFontEPN13TextRendering4FontE
ATa:__ZN15QualitySettings23VirtualRedirectTransferER24GenerateTypeTreeTransfer
Xmf:_ObjectReader_ReadValue_m3145979203
gK:__ZN9Scripting11UnityEngine24AssetBundleCreateRequest9InitProxyEv
aAd:_CanvasScaler_OnDisable_m3424669401
GEc:__Z59Register_UnityEngine_MonoBehaviour_Internal_CancelInvokeAllv
DEe:__ZL68Scrollbar_t1494447233_CustomAttributesCacheGenerator_m_NumberOfStepsP21CustomAttributesCache
IFj:__ZN30dense_hashtable_const_iteratorINSt3__24pairIK10KeyWrapperIPK19Il2CppGenericMethodEPK26Il2CppGenericMethodIndicesEES6_N6il2cpp8metadata23Il2CppGenericMethodHashEN14dense_hash_mapIS6_SA_SE_NS6_14EqualsComparerINSD_26Il2CppGenericMethodCompareEEENS0_9allocatorISB_EEE9SelectKeyESI_SK_EppEv
JZc:_UNITY_FT_Request_Metrics
I2j:__ZN6il2cpp6icalls8mscorlib6System10Reflection10MonoMethod29get_IsGenericMethodDefinitionEP22Il2CppReflectionMethod
gZj:__ZN6il2cpp2vm6Thread21AllocThreadStaticDataEi
gEa:__ZL12CopyChannelsj17ShaderChannelMaskRA4_K10StreamInfoRA12_K11ChannelInfoPKhS3_S7_Ph
gRe:_Default_SelectMethod_m469311730
xAf:_Input_get_mousePosition_m1616496925
bck:__ZN30dense_hashtable_const_iteratorINSt3__24pairIK10KeyWrapperIPK19Il2CppGenericMethodEP10MethodInfoEES6_N6il2cpp8metadata23Il2CppGenericMethodHashEN14dense_hash_mapIS6_S9_SD_NS6_14EqualsComparerINSC_26Il2CppGenericMethodCompareEEENS0_9allocatorISA_EEE9SelectKeyESH_SJ_EppEv
aTh:_UInt32_ToString_m2066897296_AdjustorThunk
F9a:__ZN24GenerateTypeTreeTransfer19TransferSTLStyleMapINSt3__23mapI4PPtrI6ShaderEN4core12basic_stringIcNS6_20StringStorageDefaultIcEEEENS1_4lessIS5_EENS1_9allocatorINS1_4pairIKS5_SA_EEEEEEEEvRT_17TransferMetaFlags
iLg:_Enumerator_Reset_m4274366540
DNc:__Z18Transfer_BlittableI9JSONWriteLb0E8Vector3fEvRK29SerializationCommandArgumentsR31RuntimeSerializationCommandInfo
Of:_emscripten_glUniform4i
_Df:_PlayerConnection_RegisterDisconnection_m2618599213
_e:_emscripten_glUniform4f
wj:___unlock
N5i:_TlsCipherSuite_ComputeServerRecordMAC_m3941098609
N2c:_otv_validate
Wac:__ZN13sorted_vectorINSt3__24pairIN4core12basic_stringIcNS2_20StringStorageDefaultIcEEEES6_EEN10vector_mapIS6_S6_27compare_tstring_insensitiveIS6_E13stl_allocatorIS7_L18MemLabelIdentifier38ELi16EEE13value_compareESD_E9erase_oneIS6_EEjRKT_
Xeg:_X509Certificate_Equals_m3784196370
CWi:_List_1__ctor_m3376067838_gshared
SQ:__ZN20SoundChannelInstance19setReverbPropertiesEP29FMOD_REVERB_CHANNELPROPERTIES
IFh:_Enumerator_MoveNext_m1446151600_gshared
Lcg:_SHA1Internal_ProcessFinalBlock_m1403775421
cYi:_Queue_1_System_Collections_ICollection_CopyTo_m3452613063_gshared
Kqc:__Z40Register_UnityEngine_Transform_IsChildOfv
jkf:_RemotingServices_GetOrCreateClientIdentity_m648299611
h7e:_InternalEnumerator_1_get_Current_m2356858238_AdjustorThunk
Poc:__Z45Register_UnityEngine_Display_GetSystemExtImplv
Gsh:_RSAManaged_ImportParameters_m1844641996
O9e:_Enumerator_System_Collections_IDictionaryEnumerator_get_Value_m3325938730_AdjustorThunk
yx:__ZN7mecanim9animation23TransformValuesFromClipEiiiRKNS_10ValueArrayERKNS0_10ClipOutputERKNS0_12ClipBindingsERS1_RNS_14ValueArrayMaskEb
lFa:__ZN14SafeBinaryRead21TransferSTLStyleArrayI13dynamic_arrayI21PlatformShaderDefinesLj0EEEEvRT_17TransferMetaFlags
qVc:__GLOBAL__sub_I_Runtime_Dynamics_0_cpp
Ehf:_ValueCollection_System_Collections_ICollection_get_SyncRoot_m1114275063_gshared
Lzj:__ZL17log2withScale_128yyi
hRg:_Guid_Equals_m1866984197
Lhd:__ZN14UnityAnalytics19ConfigChangedStaticEPS_RKN4core12basic_stringIcNS1_20StringStorageDefaultIcEEEER8JSONReadb
VPe:_PlatformNotSupportedException__ctor_m1787918017
Sda:__ZN13RuntimeStaticI15DirectorManagerLb0EE16StaticInitializeEPv
H$h:_ReadOnlyCollection_1_System_Collections_ICollection_CopyTo_m2643246984_gshared
w1a:__ZN11TimeManager6UpdateEv
yGh:_Enumerator_System_Collections_IEnumerator_get_Current_m209407522_gshared
Vzd:_CanvasScaler_get_fallbackScreenDPI_m2811935689
Er:__ZNK16ParentConstraint18GetTranslationAxisEv
lNg:_DateTimeFormatInfo_ReadOnly_m890935083
hSf:_LayoutElement_set_preferredHeight_m1999633022
Kok:_fflush
m7a:__ZN17LightProbeContext4InitERK16LightmapSettingsRK14RenderSettings
O3b:__ZN18DeferredRenderLoop14RenderLightingER21ActiveLightingContextP13RenderTexture9TextureIDPS3_iRK8Vector4fRK14LightingLayersR10MinMaxAABBb12ObjectHandleI17RenderSurface_TagP17RenderSurfaceBaseE
DJf:_SceneManager_Internal_ActiveSceneChanged_m3676176255
jbh:_Double_System_IConvertible_ToInt16_m3591921965
hZa:__ZN9Texture3DD2Ev
IVh:_Collection_1_set_Item_m4280581817_gshared
j1g:_Convert_ToChar_m2796006345
AGi:_Array_InternalArray__Insert_TisContentType_t1787303396_m3566390691_gshared
bca:__ZN5CacheD2Ev
yIg:_ArrayListWrapper_GetEnumerator_m2336495952
t6b:__Z34ProcessIndexListIsNodeVisibleStep2RK22SceneCullingParametersPK9SceneNodePK4AABBR9IndexList
dEb:__ZN10MonoScriptD2Ev
soa:__ZN9Scripting11UnityEngine10Networking16PlayerConnection16PlayerConnection12CleanupProxyEv
LTb:__ZN19ConstantBuffersGLES8UpdateCBE5CbKeyPKvj
qoj:_AudioSource_get_spatializeInternal_m2117549793
jrc:__Z39Input_CUSTOM_INTERNAL_get_mousePositionP8Vector3f
qnf:_SerializationCallbacks_GetMethodsByAttribute_m2095490433
r5c:_tt_cmap13_char_next
Lze:__ZL117EventSystem_t1003666588_CustomAttributesCacheGenerator_EventSystem_t1003666588____lastSelectedGameObject_PropertyInfoP21CustomAttributesCache
BWb:__ZN9ShaderLab4Pass16SetupPassOptionsEv
ch:_JS_Sound_ReleaseInstance
yYj:_il2cpp_type_equals
LQg:_Guid_CheckArray_m921056615
xSd:_ConfigHandler_ReadLifetine_m208994800
gbf:_Enumerator_System_Collections_IDictionaryEnumerator_get_Entry_m3417028588_AdjustorThunk
h$j:__ZN6il2cpp6icalls8mscorlib6System7Runtime15InteropServices7Marshal19copy_from_unmanagedEiiP11Il2CppArrayi
pRh:_UInt16_System_IConvertible_ToByte_m3185614807_AdjustorThunk
oHf:_Rect_get_max_m350137314_AdjustorThunk
Dm:FUNCTION_TABLE_diddi
G0j:__ZN6il2cpp6icalls8mscorlib6System5Array8FastCopyEP11Il2CppArrayiS5_ii
icd:__ZNK2UI14CanvasRenderer22GetTypeVirtualInternalEv
moc:__Z42Register_UnityEngine_RectOffset_get_bottomv
lok:_newlocale
Irb:__ZN9BoundsInt8TransferI14SafeBinaryReadEEvRT_
G$b:__Z20DoDeferredRenderLoopRK17RenderLoopContextR13dynamic_arrayI16RenderObjectDataLj0EES5_RK11CullResultsRP13RenderTextureSB_Pb
mxk:_emscripten_glUniform1f__wrapper
rsk:dynCall_di
t6a:__ZN21EnlightenSceneMapping6AppendEiRKS_
byf:_BaseInvokableCall_AllowInvoke_m878393606
lNc:__Z28RegisterModule_JSONSerializev
akd:__ZThn1168_N18UnityConnectClientD1Ev
ZUc:__ZL57__ManagedRegistrationHelperFunction_CachedContactPoints2DPv
$9a:__ZN2UI13RectTransform8TransferI14SafeBinaryReadEEvRT_
wOc:__Z35Transfer_Blittable_FixedBufferFieldI9JSONWriteaEvRK29SerializationCommandArgumentsR31RuntimeSerializationCommandInfo
quf:_Behaviour_get_enabled_m753527255
kpc:__Z20IsHumanControllingUsv
v1:__ZNK20DynamicHeapAllocatorI17LowLevelAllocatorE10GetPtrSizeEPKv
o1d:__ZL51TextInfo_t3810425522_CustomAttributesCacheGeneratorP21CustomAttributesCache
xmc:__ZN10systeminfo21GetPersistentDataPathEv
$jd:__ZThn1168_N18UnityConnectClient18OnAdsIdRequestDoneERKN4core12basic_stringIcNS0_20StringStorageDefaultIcEEEEbS6_
FLb:__ZN13GfxDeviceGLES17DestroyGpuProgramEPK10GpuProgram
yHi:_Array_InternalArray__set_Item_TisRaycastResult_t3360306849_m730888808_gshared
bob:__Z44InitializeTransferFunctionScriptingTraitsForI18StreamedBinaryReadILb0EEEvR31TransferFunctionScriptingTraits
_1b:__ZNSt3__218__insertion_sort_3IR23CompareReflectionProbesP31RuntimeReflectionProbeBlendInfoEEvT0_S5_T_
Ltb:__ZN12NativeBufferI27Converter_SimpleNativeClassI8GradientEE15SetupForWritingER9ArrayInfo
dph:_Kernel_RightShift_m2207393597
Mga:__ZNSt3__213__stable_sortIRNS_4lessIN4core12basic_stringIcNS2_20StringStorageDefaultIcEEEEEENS_11__wrap_iterIPS6_EEEEvT0_SC_T_NS_15iterator_traitsISC_E15difference_typeEPNSF_10value_typeEi
BHe:__ZL48Shadow_t773074319_CustomAttributesCacheGeneratorP21CustomAttributesCache
N2:__ZN12_GLOBAL__N_113StaticDestroyEPv
XJc:__ZNK8GUIStyle4DrawER8GUIStateRK5RectTIfER10GUIContentbbbb
YBk:_glUnmapBuffer__wrapper
dSc:__ZN8JSONRead21TransferSTLStyleArrayINSt3__26vectorI8Gradient13stl_allocatorIS3_L18MemLabelIdentifier1ELi16EEEEEEvRT_17TransferMetaFlags
x3a:__ZNSt3__218__insertion_sort_3IRNS_6__lessINS_4pairIPKN5Unity4TypeE7Hash128EES8_EEPS8_EEvT0_SC_T_
mPf:_InputField_set_onValueChanged_m3658917578
tvb:__ZN10RectOffset8TransferI24GenerateTypeTreeTransferEEvRT_
qVg:_BinaryReader__ctor_m2266204403
fqa:__ZN9Scripting11UnityEngine6Events14UnityEventBase9InitProxyEv
pEh:_Enumerator_VerifyState_m3047769867_AdjustorThunk
Fub:__Z18Transfer_BlittableI24GenerateTypeTreeTransferLb1E5RectTIiEEvRK29SerializationCommandArgumentsR31RuntimeSerializationCommandInfo
pbj:_Enumerator_System_Collections_IEnumerator_Reset_m24787251
tcd:__ZN2UI13CanvasManager19RemoveDirtyRendererEPNS_6CanvasEPNS_14CanvasRendererE
nnk:_isspace
flf:_BinaryFormatter__ctor_m2620705134
rld:__ZN11UnityEngine15PlatformWrapper25GetGraphicsRendererStringEv
nLh:_UTF7Encoding_InternalGetBytes_m797138468
Qsc:__ZZL31RegisterRectTransformPropertiesR22GenericPropertyBindingEN39Wrapper_RectTransformAnchoredPositiony113SetFloatValueEPvf
Z$:__ZN11UnityEngine15CloudWebService17WebFileDownloaderINS0_20WebRequestRestClientENS0_23WebRequestRestHeaderMapEED2Ev
Nb:invoke_vi
hM:__ZN12AudioManager8InitFMODE15FMOD_OUTPUTTYPE
Kzg:_SmallXmlParser_HandleWhitespaces_m549588711
Lb:invoke_vd
Lya:__ZNK6Camera19GetStereoViewMatrixE15StereoscopicEye
dbj:_Regex_get_RightToLeft_m2317867572
Daa:__ZNK10GameObject8IsActiveEv
PGc:__Z34Component_Get_Custom_PropTransformP12Il2CppObject
Yxe:__ZL67g_UnityEngine_PhysicsModule_Assembly_CustomAttributesCacheGeneratorP21CustomAttributesCache
UQb:__ZN18GfxFramebufferGLES23SetupDefaultFramebufferEPP17RenderSurfaceBaseS2_N2gl6HandleILNS3_10ObjectTypeE9EEE
MCd:_DefaultControls_CreateDropdown_m3286664171
bZa:__ZN13ScreenManager18RequestOrientationE17ScreenOrientation
XCj:__ZN6il2cpp2vm5Class12SetupMethodsEP11Il2CppClass
hCc:__Z39DeleteLastPathNameComponentWithAnySlashRKN4core12basic_stringIcNS_20StringStorageDefaultIcEEEE
kLc:__ZN10GUIManager14InitGUIManagerEv
RRh:_UInt16_Equals_m642257745
RBg:_Array_System_Collections_IList_IndexOf_m3301661616
JQe:_AssemblyFileVersionAttribute__ctor_m3720707642
KPd:_RuntimeResourceSet_CloneDisposableObjectIfPossible_m2725520898
GKc:__Z37Register_UnityEngine_GUIStyle_Cleanupv
Ka:invoke_iiifii
BFc:__Z26Mesh_CUSTOM_SetIndicesImplP12Il2CppObjecti16GfxPrimitiveTypeP11Il2CppArrayihi
e_f:_SliderEvent__ctor_m3149452941
Vyg:_DeriveBytes__cctor_m1212925033
vFd:_Graphic_OnDisable_m1097930217
jNj:__ZN6il2cpp6icalls8mscorlib6System8MonoType13IsPointerImplEP20Il2CppReflectionType
Pi:_emscripten_glFramebufferRenderbuffer
W4b:__ZN19CullingGroupManager17CullAndSendEventsERK22SceneCullingParametersiRK13CullingOutputRK8JobFence
exa:__ZN9Transform30EnsureTransformHierarchyExistsEv
MPh:_Type_FilterName_impl_m2651733559
PV:__ZN11AudioModule26SetDefaultMicrophoneDriverEPv
Cpc:__Z46Register_UnityEngine_Application_get_isPlayingv
kDc:__ZN13MonoBehaviour13StopCoroutineEPKc
Iac:__ZNSt3__26vectorINS_4pairIN4core12basic_stringIcNS2_20StringStorageDefaultIcEEEEPK17MessageIdentifierEENS_9allocatorISA_EEE12__move_rangeEPSA_SE_SE_
OZb:__ZN14qsort_internal17MedianOfThreeSwapIP17RODataReplacement19ROSorterReplacementEEvT_S4_S4_T0_
Zig:_String_Split_m3646115398
eIf:_RectOffset_ToString_m2007443979
NBj:__ZNK15dense_hashtableINSt3__24pairIK10KeyWrapperIPK22Il2CppGenericParameterEP11Il2CppClassEES6_N6il2cpp5utils11PointerHashIS4_EEN14dense_hash_mapIS6_S9_SE_NS6_14EqualsComparerINS0_8equal_toIS5_EEEENS0_9allocatorISA_EEE9SelectKeyESJ_SL_E3endEv
gCc:__ZN17TransformInternal36OnScaleChangedCalculateTransformTypeE15TransformAccess
Kdb:__ZN17ArchiveFileSystem10ToAbsoluteEPKc
Uxc:__Z13RegisterClassI11PreloadDataEvPKc
jFc:__Z35Camera_CUSTOM_RaycastTry2D_InjectedP12Il2CppObjectRK3Rayfi
bmd:__ZN19UnityConnectService15GetPlayerUserIdEv
Vih:_Array_InternalArray__IndexOf_TisSByte_t1669577662_m4156538463_gshared
EC:__ZN7mecanim6CRCKeyENS_7eStringE
roc:__ZL12SetPrefValueRKN4core12basic_stringIcNS_20StringStorageDefaultIcEEEERK9PrefValue
kac:__Z21GetBackgroundJobQueuev
MZa:__ZN19ShaderPropertySheet20ReservePropertyCountEj
Bck:__ZN6il2cpp5utils11StringUtils6PrintfEPKcz
A_j:__ZNSt3__26vectorIN6il2cpp8metadata18GenericArrayMethodENS_9allocatorIS3_EEE7reserveEj
ZNa:__ZN15NameToObjectMapI6ShaderNSt3__23mapI4PPtrIS0_EN4core12basic_stringIcNS5_20StringStorageDefaultIcEEEENS1_4lessIS4_EENS1_9allocatorINS1_4pairIKS4_S9_EEEEEENS1_8multimapIS9_S4_NSA_IS9_EENSC_INSD_IKS9_S4_EEEEEEE4FindERSK_
WPa:__ZN24GenerateTypeTreeTransfer21TransferResourceImageE19ActiveResourceImagePKcR13StreamingInfoPvjiPKN5Unity4TypeE
JJi:_Array_Sort_TisVector3_t3722313464_m1030213405_gshared
l6j:__ZN6il2cpp2vm6Object5CloneEP12Il2CppObject
Gkk:__ZN6il2cpp6icalls8mscorlib6System9Threading5Mutex20CreateMutex_internalEbP12Il2CppStringPb
boe:__ZL47Time_t2420636075_CustomAttributesCacheGeneratorP21CustomAttributesCache
Ewf:_Coroutine_Finalize_m1957108547
Tjj:_KeyBuilder_Key_m2503211157
xGa:__ZNSt3__212__deque_baseI18ReflectionProbeJobNS_9allocatorIS1_EEED2Ev
ZB:__ZN11UnityEngine9Animation27DestroyAnimationSetBindingsEPNS0_20AnimationSetBindingsERN7mecanim6memory9AllocatorE
Vec:__ZN15dense_hashtableINSt3__24pairIKiN4core17string_with_labelILi1EEEEEi18SInt32HashFunctionN14dense_hash_mapIiS5_S7_NS0_8equal_toIiEE13stl_allocatorIS6_L18MemLabelIdentifier1ELi16EEE9SelectKeyESA_SD_E13set_empty_keyERKS6_
twf:_Component_GetComponentInChildren_m388868270
_Bh:_GenericEqualityComparer_1_Equals_m1705889345_gshared
wI:__ZN8Animator12CleanupClassEv
Zog:_FtpWebRequest__cctor_m699542155
hFg:_Byte_System_IConvertible_ToBoolean_m2888023769
q5j:__GLOBAL__sub_I_GenericMetadata_cpp
Yng:_NameObjectCollectionBase_GetEnumerator_m3677320185
T5b:__Z24CalculateSpotLightBoundsffRK10Matrix4x4fR15SpotLightBounds
HJa:__ZNK13RenderTexture21GetShadowSamplingModeEv
GX:__ZN23CloudWebServicesManager23VirtualRedirectTransferER14SafeBinaryRead
Tyg:_PKCS12_AddCertificate_m3857004455
Olf:_WellKnownClientTypeEntry_ToString_m1119458503
sFb:__Z19ShouldTransferFieldR32SerializationCommandQueueBuilder17ScriptingClassPtriR18TransferField_InfoRK20CoreScriptingClasses
IEc:__Z48Register_UnityEngine_MonoBehaviour_InvokeDelayedv
ogg:_SecurityElement_IsValidText_m1346599242
onb:__ZN26SinglePassStereoSupportExt21SetStereoMatrixCommonE21MonoOrStereoscopicEye24BuiltinShaderMatrixParamRK10Matrix4x4f
pP:__ZN5audio5mixer22UpdateAudioMixerMemoryERKNS0_18AudioMixerConstantERNS0_16AudioMixerMemoryEfPN4FMOD6SystemEf
IWc:__ZL21InitializeCachedStripPv
Hth:_Dictionary_2_System_Collections_Generic_ICollectionU3CSystem_Collections_Generic_KeyValuePairU3CTKeyU2CTValueU3EU3E_Add_m3652125112_gshared
C9b:__ZN19CustomRenderTexture16GetRenderTextureEv
W$j:__ZN6il2cpp6icalls8mscorlib6System9Threading6Thread23GetCachedCurrentCultureEP12Il2CppThread
Nxa:__ZNK6Camera22GetWorldToCameraMatrixEv
P7j:__ZN6il2cpp2vm12GenericClass11IsValueTypeEP18Il2CppGenericClass
Gdc:__ZN13ScreenManager24SetIsFullscreenImmediateEb
EEb:__ZN13MonoBehaviour7SetNameEPKc
hWd:_MethodDictionary_IsOverridenKey_m946843558
DXg:_FileStream_BeginRead_m2419864669
wci:_U3CStartU3Ec__Iterator0_MoveNext_m4270440387_gshared
cHj:__ZN10KeyWrapperIN6il2cpp5utils13dynamic_arrayIPK10Il2CppTypeLj4EEEEC2ERKS7_
EJb:__ZN17InstancingBatcher22FindCBUpperBoundKonstsEv
Mhd:__ZN11UnityEngine9Analytics15AnalyticsConfig13ConfigChangedERKN4core12basic_stringIcNS2_20StringStorageDefaultIcEEEER8JSONRead
m6a:__ZN18AwakeFromLoadQueue5ClearEv
_Xg:_FileStream_SetLength_m99749826
n4b:__ZNSt3__27__sort5IR15ReflProbeSorterPP15ReflectionProbeEEjT0_S6_S6_S6_S6_T_
Hea:__ZN8Playable10DisconnectEPS_i
vk:_glGenTransformFeedbacks
y5a:__ZN13LoadOperationD2Ev
$Rg:_Int16_System_IConvertible_ToType_m3672347013
pAg:_AttrListImpl_GetValue_m3657391095
vIb:__Z21PlayerStartFirstSceneb
hXi:_List_1_CheckIndex_m3933537097_gshared
RNa:__ZNSt3__27__sort5IRPFbRKNS_4pairIN9ShaderLab16FastPropertyNameEN18UnityPropertySheet11UnityTexEnvEEES8_EPS6_EEjT0_SD_SD_SD_SD_T_
YOb:__ZNK7ApiGLES18GetExtensionStringEv
JWi:_List_1_System_Collections_IList_IndexOf_m2444653486_gshared
nxk:_emscripten_glVertexAttrib1f__wrapper
Gbb:__ZNK12HandlerChain4SizeERK13FileEntryData
Wo:FUNCTION_TABLE_iiiiiiiii
h0h:_ReadOnlyCollection_1_System_Collections_Generic_ICollectionU3CTU3E_Remove_m4177779688_gshared
rra:__ZN9Scripting11UnityEngine14AnimationCurve9InitProxyEv
OGg:_Char_IsLetter_m3996985877
ZXi:_Queue_1_Peek_m2302800625_gshared
aZd:__ZL51Delegate_t1188392813_CustomAttributesCacheGeneratorP21CustomAttributesCache
Cfk:_GC_allochblk
E6a:__Z15UnloadGameScenev
Clh:_Array_InternalArray__ICollection_CopyTo_TisKeyframe_t4206410242_m2132255743_gshared
TBk:_glCheckFramebufferStatus__wrapper
cHd:_Image__ctor_m2551076292
xif:_Dictionary_2_System_Collections_ICollection_CopyTo_m3143696177_gshared
Khi:__Z103RuntimeInvoker_Void_t1185182177_Int32_t2950945753_Int32_t2950945753_Int32_t2950945753_SByte_t1669577662PFvvEPK10MethodInfoPvPS4_
aHc:__Z36Renderer_Get_Custom_PropSortingOrderP12Il2CppObject
UPj:__ZNK15dense_hashtableINSt3__24pairIK10KeyWrapperIPK10Il2CppTypeEjEES6_N6il2cpp8metadata14Il2CppTypeHashEN14dense_hash_mapIS6_jSB_NS6_14EqualsComparerINSA_26Il2CppTypeEqualityComparerEEENS0_9allocatorIS8_EEE9SelectKeyESF_SH_E13find_positionERS7_
xJa:__ZN7Texture5ResetEv
fub:__Z18Transfer_BlittableI24GenerateTypeTreeTransferLb0E8Vector2fEvRK29SerializationCommandArgumentsR31RuntimeSerializationCommandInfo
rTd:_Context_get_HasDynamicSinks_m3952434387
xJh:_Latin1Encoding_GetByteCount_m1145650505
Wtb:__Z18Transfer_BlittableI24GenerateTypeTreeTransferLb1EhEvRK29SerializationCommandArgumentsR31RuntimeSerializationCommandInfo
GUe:_GenericTypeParameterBuilder_GetPropertyImpl_m2584778600
XAb:__Z13TransferFieldI18StreamedBinaryReadILb1EELb0E16Converter_StringEvRK23StaticTransferFieldInfoR31RuntimeSerializationCommandInfoRT1_
vDc:__ZNK16TypeTreeIterator10ByteOffsetEv
Ksk:dynCall_iiifii
rda:__ZnwjRKSt9nothrow_t
SF:__ZN8Animator11ClearObjectEv
lBg:_ApplicationException__ctor_m2557611022
yMa:__ZN14SafeBinaryRead19TransferSTLStyleMapINSt3__23mapI39DeprecatedFastPropertyNameSerializationN18UnityPropertySheet11UnityTexEnvENS1_4lessIS3_EENS1_9allocatorINS1_4pairIKS3_S5_EEEEEEEEvRT_17TransferMetaFlags
KEc:__Z45Register_UnityEngine_MonoBehaviour_IsInvokingv
oUi:_List_1_CheckMatch_m579516778_gshared
_wb:__ZL26Transfer_SimpleNativeClassI19StreamedBinaryWriteILb0EE17AnimationCurveTplIfELb0EEvRK29SerializationCommandArgumentsR31RuntimeSerializationCommandInfo
OIb:__Z43GiveManagedDebuggerChanceToAttachIfRequiredv
dFg:_Buffer_ByteLengthInternal_m1388208719
blh:_Array_InternalArray__ICollection_CopyTo_TisInt64_t3736567304_m2845057751_gshared
rDc:__Z35UnregisterSerializationCacheBuilderPFv17ScriptingClassPtrR23CachedSerializationDataRbE
i8:__ZNSt3__26__treeINS_12__value_typeIPKc18ScriptingMethodPtrEENS_19__map_value_compareIS3_S5_14CStringCompareLb1EEE13stl_allocatorIS5_L18MemLabelIdentifier1ELi16EEE25__emplace_unique_key_argsIS3_JRKNS_21piecewise_construct_tENS_5tupleIJOS3_EEENSH_IJEEEEEENS_4pairINS_15__tree_iteratorIS5_PNS_11__tree_nodeIS5_PvEEiEEbEERKT_DpOT0_
kUg:_Int64_System_IConvertible_ToUInt32_m109903525_AdjustorThunk
gBa:__Z30GetBuiltinVectorParamArraySize24BuiltinShaderVectorParam
u$d:__ZL67DecimalConstantAttribute_t1976047975_CustomAttributesCacheGeneratorP21CustomAttributesCache
nla:__ZL46__ManagedRegistrationHelperFunction_SpriteBonePv
dFc:__Z36Camera_CUSTOM_get_pixelRect_InjectedP12Il2CppObjectR5RectTIfE
qJa:__ZN13RenderTextureC2E10MemLabelId18ObjectCreationMode
pSg:_Int32_GetFormatException_m519586683
F9d:__ZL46StringBuilder_t_CustomAttributesCacheGeneratorP21CustomAttributesCache
tGc:__Z60Register_UnityEngine_ScriptableObject_CreateScriptableObjectv
DMi:_Array_InternalArray__get_Item_TisVector2_t2156229523_m2502961026_gshared
YUa:__ZN21RendererUpdateManager11AddRendererER8Renderer
Mob:__Z35Transfer_Blittable_FixedBufferFieldI14SafeBinaryReadsEvRK29SerializationCommandArgumentsR31RuntimeSerializationCommandInfo
o1g:_Convert_ToDateTime_m3802186295
Cck:__ZN6il2cpp5utils11StringUtils11Utf16ToUtf8EPKDs
v5a:__ZN18StreamedBinaryReadILb0EE21TransferSTLStyleArrayINSt3__26vectorIN15ResourceManager10DependencyE13stl_allocatorIS5_L18MemLabelIdentifier52ELi16EEEEEEvRT_17TransferMetaFlags
KTh:_UInt64_CompareTo_m1614517204_AdjustorThunk
Gld:__ZN11UnityEngine15PlatformWrapper20IsRootedOrJailbrokenEv
nWb:__ZZ23InitPlayerLoopCallbacksvEN52PreLateUpdateScriptRunBehaviourLateUpdateRegistrator7ForwardEv
u6b:__Z33IntersectAABBPlaneBoundsOptimizedRK4AABBPKN4math7_float4Ei
Thb:__ZN9GfxDevice19EndGeometryJobFrameEv
Ohj:_GUILayoutUtility_Layout_m1159951704
pOf:_InputField_get_shouldActivateOnSelect_m3055465770
Qtb:__ZN27Converter_SimpleNativeClassI17AnimationCurveTplIfEE17ScriptingToNativeER18ScriptingObjectPtrPS1_
LPh:_Type__cctor_m2371893800
rlk:__ZN6il2cpp8metadata24Il2CppGenericInstCompare7CompareERK10KeyWrapperIPK17Il2CppGenericInstES8_
FFj:__ZNK15dense_hashtableINSt3__24pairIK10KeyWrapperIPK19Il2CppGenericMethodEPK26Il2CppGenericMethodIndicesEES6_N6il2cpp8metadata23Il2CppGenericMethodHashEN14dense_hash_mapIS6_SA_SE_NS6_14EqualsComparerINSD_26Il2CppGenericMethodCompareEEENS0_9allocatorISB_EEE9SelectKeyESI_SK_E5beginEv
fvd:_ExecuteEvents_Execute_m3049310229
Hv:__ZN27AnimationLayerMixerPlayable21UpdateLayerParametersEv
moe:__ZL84Object_t631007953_CustomAttributesCacheGenerator_Object_DestroyImmediate_m2288369078P21CustomAttributesCache
Eoa:__ZN9Scripting11UnityEngine12LightmapData12CleanupProxyEv
ry:__ZN7mecanim9animation16CopyMotionOutputEPKNS0_18AnimationNodeStateEPS1_bbRKNS_6bitsetILj83EEE
Nqc:__ZNK17AnimationCurveTplIfE8EvaluateEfPNS0_5CacheE
sVb:__Z31ManagerContextInitializeClassesv
q0h:_ReadOnlyCollection_1_System_Collections_IList_Contains_m2650112051_gshared
ldh:_Array_get_swapper_TisVector3_t3722313464_m1221246401_gshared
l_c:_UNITY_FT_List_Finalize
__b:__Z20LightAttenuateApproxRKfS0_
J7:__ZN9Scripting30SetCachedPtrOnScriptingWrapperE18ScriptingObjectPtrP6Object
$x:__ZN17AnimationPlayable17SetInternalWeightEf
Ewg:_RepeatContext_get_IsMinimum_m3640286252
Knf:_ObjectRecord_ChainFixup_m1889316362
SHa:__ZN18BlockRangeInternal16PopLastNodeIndexEP10BlockRangeji
pek:__ZN6il2cpp2vm13CachedCCWBaseINS0_13ManagedObjectEE6AddRefEv
syd:_TouchInputModule_UpdateModule_m2582897964
g$a:__ZN4MeshD0Ev
Qrd:__ZL42RequestRecreateEyeTexturesBeforeNextUpdatev
xAa:__ZNK6Camera20IsCurrentlyRenderingEv
xx:__ZN21AnimationClipPlayable23ProcessRootMotionNoClipEPK35AnimationPlayableEvaluationConstantPK32AnimationPlayableEvaluationInputP33AnimationPlayableEvaluationOutput
Ted:__Z36CanvasRenderer_CUSTOM_SetPopMaterialP12Il2CppObjectS0_i
DOc:__Z18Transfer_BlittableI9JSONWriteLb0EdEvRK29SerializationCommandArgumentsR31RuntimeSerializationCommandInfo
w3c:_otv_u_O_O_u_O_O
Xya:__ZN6Camera8TransferI19StreamedBinaryWriteILb0EEEEvRT_
x8g:_DBNull_System_IConvertible_ToSByte_m3533624679
zEa:__ZThn252_N31CanvasBatchIntermediateRenderer14OnAssetDeletedEv
Ink:_wctomb
EGg:_Char_CompareTo_m42489266
SBi:__Z67RuntimeInvoker_Void_t1185182177_Int32_t2950945753_Double_t594665363PFvvEPK10MethodInfoPvPS4_
Hoc:__Z27Camera_CUSTOM_GetAllCamerasP11Il2CppArray
Uc:___cxa_rethrow
$Nd:_ParameterInfo_GetCustomAttributes_m2376494592
hQc:__Z18Transfer_BlittableI8JSONReadLb1EhEvRK29SerializationCommandArgumentsR31RuntimeSerializationCommandInfo
nFd:_Graphic_get_canvasRenderer_m315509948
P0i:_Collection_1_System_Collections_IList_Contains_m3397768605_gshared
wOg:_CultureInfo_construct_internal_locale_from_name_m3254739477
Lag:_RSASslSignatureDeformatter_VerifySignature_m1061897602
Y8b:__ZN13MonoBehaviour8SetClassE17ScriptingClassPtr18ScriptingObjectPtr
Wsf:_RandomNumberGenerator_Create_m4162970280
aGi:_Array_InternalArray__Insert_TisLabelFixup_t858502054_m171542753_gshared
B6e:_InternalEnumerator_1_System_Collections_IEnumerator_get_Current_m3539708496_AdjustorThunk
mcb:__ZN20LocalFileSystemPosix4ReadER13FileEntryDatayyPvPy
P2b:__ZNSt3__211__sift_downIRN23ForwardShaderRenderLoop18RenderObjectSorterILb0EEEP21ForwardRenderPassDataEEvT0_S7_T_NS_15iterator_traitsIS7_E15difference_typeES7_
_eg:_SecurityPermission__ctor_m1462427327
Wtk:dynCall_iiiiiiffiiiiiiiiiffffiiii
UEb:__ZN13MonoBehaviour5DoGUIENS_13GUILayoutTypeEii
zRd:_ChannelData_get_ClientProviders_m594662942
AI:__ZZN8Animator15InitializeClassEvEN43FunctorImpl_438kDidModifyAnimatorController4CallEPviR11MessageData
ucj:_QuickSearch_GetChar_m1297698557
Iua:__ZNK12TLSAllocatorI14StackAllocatorE8ContainsEPKv
z1a:__ZN11TimeManager8TransferI18StreamedBinaryReadILb0EEEEvRT_
O_b:__ZL8AddLightRK12ActiveLightsRK8Vector3fiR13dynamic_arrayI11CulledLightLj0EE
B1g:_DateTime__ParseEnum_m253019513
p5g:_Convert_ToUInt32_m2194577773
t$a:__ZN14BlendShapeData8TransferI14SafeBinaryReadEEvRT_
BLg:_Hashtable_Remove_m4032631466
Zqh:_DSAManaged_GenerateKeyPair_m2236915969
FPa:__ZN7Texture25ReloadFromStorageIfNeededEPvb
qih:_Array_InternalArray__IndexOf_TisBoolean_t97287965_m1161209222_gshared
hFj:__ZNK15dense_hashtableINSt3__24pairIK10KeyWrapperIP9FieldInfoEiEES5_N6il2cpp5utils11PointerHashIS3_EEN14dense_hash_mapIS5_iSB_NS5_14EqualsComparerINS0_8equal_toIS4_EEEENS0_9allocatorIS7_EEE9SelectKeyESG_SI_E3endEv
xqa:__ZN9Scripting11UnityEngine12CullingGroup9InitProxyEv
kJg:_SynchronizedArrayListWrapper_Clear_m2191301493
R7c:_Update_Max
Rkg:_String_CreateString_m780602784
P0j:__ZN6il2cpp6icalls8mscorlib6SystemL15ThrowNoWideningEv
dqc:__ZNK23TransformChangeDispatch24GetChangeMaskForInterestENS_12InterestTypeE
jqc:__Z45Transform_CUSTOM_INTERNAL_CALL_TransformPointP12Il2CppObjectRK8Vector3fRS1_
PUe:_GenericTypeParameterBuilder_InvokeMember_m1647304778
$Gd:_HorizontalOrVerticalLayoutGroup_set_childControlWidth_m3261460516
QMa:__ZNSt3__26__treeINS_12__value_typeI39DeprecatedFastPropertyNameSerializationfEENS_19__map_value_compareIS2_S3_NS_4lessIS2_EELb1EEENS_9allocatorIS3_EEE7destroyEPNS_11__tree_nodeIS3_PvEE
R5c:_tt_cmap4_char_index
$yd:_AspectRatioFitter_GetParentSize_m3159144324
khg:_SecurityFrame_get_Assembly_m2874566710
yXi:_Enumerator_System_Collections_IEnumerator_Reset_m1487823313_gshared
Qbb:__ZNK12HandlerChain8IsHiddenERK13FileEntryData
Ogb:__ZNSt3__26__treeINS_12__value_typeIN4core12basic_stringIcNS2_20StringStorageDefaultIcEEEEPN16MemoryFileSystem4NodeEEENS_19__map_value_compareIS6_SA_NS_4lessIS6_EELb1EEE13stl_allocatorISA_L18MemLabelIdentifier55ELi16EEE25__emplace_unique_key_argsIS6_JNS_4pairIKS6_S9_EEEEENSK_INS_15__tree_iteratorISA_PNS_11__tree_nodeISA_PvEEiEEbEERKT_DpOT0_
etb:__ZL26Transfer_SimpleNativeClassI17RemapPPtrTransfer10RectOffsetLb0EEvRK29SerializationCommandArgumentsR31RuntimeSerializationCommandInfo
JTg:_Int32_ToString_m2507389746_AdjustorThunk
Z3g:_Decimal_op_Explicit_m438967917
$yj:_AnimatorControllerPlayable_SetHandle_m2260644454_AdjustorThunk
kgc:__ZNSt3__26vectorIN9ShaderLab20SerializedSubProgram13BufferBindingENS_9allocatorIS3_EEEC2ERKS6_
gPf:_InputField_set_selectionColor_m2084640295
cBa:__ZNK9ShaderLab20ShaderBlendStateDesc15ToGfxBlendStateEPK19ShaderPropertySheetS3_R13GfxBlendState
Kbf:_Enumerator_System_Collections_IEnumerator_get_Current_m1747693366_AdjustorThunk
CB:__ZN11UnityEngine9AnimationL22GenericBindingCallbackEPvS1_i
OE:__ZN12_GLOBAL__N_121ProcessAnimationBeginER35AnimationPlayableEvaluationConstantR32AnimationPlayableEvaluationInputR33AnimationPlayableEvaluationOutput
Qjc:__ZN9ShaderLab9IntShaderC2Ev
qNj:__ZN6il2cpp6icalls8mscorlib6SystemL9IsPrivateEPK9EventInfo
Njk:__ZN6il2cpp6icalls8mscorlib6System10Reflection4Emit11TypeBuilder20setup_internal_classEP27Il2CppReflectionTypeBuilderS7_
Oih:_Array_InternalArray__IndexOf_TisILTokenInfo_t2325775114_m2602704009_gshared
ivd:_ExecuteEvents_Execute_m3613826831
mKh:_StringBuilder_AppendFormat_m3255666490
SPe:_OverflowException__ctor_m4029085969
ALc:__ZN13GUIStateScope3EndER16GUIKeyboardStateR8GUIStatePN5IMGUI19NamedKeyControlListE
MJd:_TypeBuilder_GetGenericArguments_m2872156836
xBj:__ZN13Il2CppHashMapIPK22Il2CppGenericParameterP11Il2CppClassN6il2cpp5utils11PointerHashIS1_EENSt3__28equal_toIS2_EENS9_9allocatorINS9_4pairIK10KeyWrapperIS2_ES4_EEEEEC2EjRKS8_RKSB_
zRc:__ZN8JSONRead21TransferSTLStyleArrayI31ArrayOfManagedObjectsTransfererEEvRT_17TransferMetaFlags
_cb:__Z15CreateDirectoryRKN4core12basic_stringIcNS_20StringStorageDefaultIcEEEE
N0a:__Z21CalculateGlobalMatrix23TransformAccessReadOnly
NJd:_TypeBuilder_GetGenericTypeDefinition_m1632720438
zdh:_Array_InternalArray__ICollection_Contains_TisLink_t544317964_m163190451_gshared
W7g:_DateTimeOffset_System_IComparable_CompareTo_m176229495_AdjustorThunk
hBf:_ManagedStreamHelpers_ValidateLoadFromStream_m580138133
h3a:__ZNK13BuildSettings22GetTypeVirtualInternalEv
Rkc:__ZN13MonoBehaviour20SetScriptingDataFromERKS_
dai:__ZN30GenericInterfaceActionInvoker1I17Scene_t2348375561E6InvokeEPK10MethodInfoP12Il2CppObjectS0_
pVi:_List_1_CheckIndex_m2250397830_gshared
Njg:_String_LastIndexOf_m578673845
XDf:_PlayerEditorConnectionEvents_UnregisterManagedCallback_m400366024
Cjc:__ZN9ShaderLab20SerializedSubProgram14ConstantBufferC2EOS1_
z:tempBigIntI
bxg:_Interval_get_Empty_m3617514670
vQe:_Assembly_GetName_m981771927
Pz:__ZN7mecanim12statemachine24CreateStateMachineOutputEPKNS0_20StateMachineConstantEjRNS_6memory9AllocatorE
N7j:__ZN6il2cpp2vm12GenericClass8GetClassEP18Il2CppGenericClass
nib:__ZNK9GfxDevice27GetActiveRenderSurfaceWidthEv
zBe:__ZL114StandaloneInputModule_t2760469101_CustomAttributesCacheGenerator_StandaloneInputModule_ForceAutoSelect_m2837047882P21CustomAttributesCache
tld:__ZN11UnityEngine15PlatformWrapper28GetCleanGraphicsFixedVersionEv
IUf:_MaskableGraphic_RecalculateClipping_m1772937317
yKe:_UnmanagedMemoryStream_SetLength_m3752964620
U4i:_SslStreamBase_RaiseLocalPrivateKeySelection_m4112368540
qWj:__ZN6il2cpp2vm4Type7GetTypeEPK10Il2CppType
ZZc:_open_face_PS_from_sfnt_stream
l1e:_InternalEnumerator_1_get_Current_m165106323_AdjustorThunk
aLh:_UTF32Encoding_GetByteCount_m3610769032
rV:__ZN11AudioModule16SetListenerPauseEb
gXb:__Z16FindCameraStacksRKNSt3__24listI4PPtrI6CameraENS_9allocatorIS3_EEEERNS_6vectorI11CameraStackNS4_ISA_EEEE
mbj:_MatchCollection_CopyTo_m3807326147
SVa:__ZN10GISettings8TransferI14SafeBinaryReadEEvRT_
sn:FUNCTION_TABLE_vifff
Lsf:_MD5CryptoServiceProvider__ctor_m3271163125
Z9b:__ZN19CustomRenderTexture12ClearGPUDataEv
kRg:_Guid_Equals_m3683678873
GJa:__ZN13RenderTexture13ApplySettingsEv
Hmf:_ObjectReader_RegisterObject_m1853376334
iWe:_ModuleBuilderTokenGenerator_GetToken_m2588853565
xEg:_Boolean_System_IConvertible_ToDecimal_m3176932461_AdjustorThunk
t2b:__ZNSt3__26__treeINS_12__value_typeIi17ShadowCachingDataEENS_19__map_value_compareIiS3_NS_4lessIiEELb1EEE13stl_allocatorIS3_L18MemLabelIdentifier66ELi16EEE25__emplace_unique_key_argsIiJNS_4pairIiS2_EEEEENSD_INS_15__tree_iteratorIS3_PNS_11__tree_nodeIS3_PvEEiEEbEERKT_DpOT0_
Te:_JS_Sound_SetListenerPosition
ln:FUNCTION_TABLE_fiffi
Bed:__Z55Register_UnityEngine_CanvasGroup_get_ignoreParentGroupsv
k0h:_ReadOnlyCollection_1_System_Collections_Generic_IListU3CTU3E_set_Item_m711370667_gshared
T0a:__ZN12EventManager11RemoveEventEP10EventEntryPFvPvS2_iES2_
rRe:_Default_check_arguments_with_score_m3467814020
Zyk:_glGetActiveUniform__wrapper
u_g:_StreamWriter_LowLevelWrite_m1081676583
S8a:__ZNK8Material16MarkDependenciesER27GarbageCollectorThreadState
l_f:_Slider_set_handleRect_m1101657556
h8g:_DateTimeOffset_ToString_m3985341516_AdjustorThunk
GOc:__ZL17Transfer_GUIStyleI9JSONWriteLb0EEvRK29SerializationCommandArgumentsR31RuntimeSerializationCommandInfo
V$b:__Z28GetHaloVertexPositionsStereoP8Vector3fRKS_S2_f
oia:__ZN6prcoreL27StretchGenericFloatBilinearI15TexFormatRGHalfEEvPKNS_9InnerInfoE
oH:__Z16return_effectiveRK21AnimationClipOverride
R$b:__ZN9DepthPass7PrepareER6CameraRK13dynamic_arrayI16RenderObjectDataLj0EERK15RenderNodeQueueRK17ShaderReplaceDatab
bpa:__ZN9Scripting11UnityEngine12Experimental3U2D10SpriteBone9InitProxyEv
UKa:__ZNK15PlayableMethods18InvokePrepareFrameER18ScriptingObjectPtrRK9HPlayableP18ScriptingFrameData
rH:__ZN14SafeBinaryRead21TransferSTLStyleArrayI13dynamic_arrayI21AnimationClipOverrideLj0EEEEvRT_17TransferMetaFlags
pW:__Z13RegisterClassI12AudioManagerEvPKc
DBb:__Z18Transfer_BlittableI18StreamedBinaryReadILb0EELb1E9BoundsIntEvRK29SerializationCommandArgumentsR31RuntimeSerializationCommandInfo
EFe:__ZL71SpriteState_t1362986479_CustomAttributesCacheGenerator_m_DisabledSpriteP21CustomAttributesCache
and:__ZN22BaseUnityConnectClient28UpdateConfigFromServerStaticEPv
Yrg:_PublicKey_DecodeDSA_m3490622362
Opc:__Z49Register_UnityEngine_Resources_GetBuiltinResourcev
CQh:_Type_GetMethod_m1479779718
E5c:_tt_cmap10_char_index
s5i:_TlsException__ctor_m3242533711
chc:__ZN15SerializeTraitsINSt3__24pairIN4core12basic_stringIcNS2_20StringStorageDefaultIcEEEE4PPtrI7TextureEEEE8TransferI24GenerateTypeTreeTransferEEvRSA_RT_
$_g:_SortedList__ctor_m3676552745
$Bj:__ZN15dense_hashtableINSt3__24pairIK10KeyWrapperIPK22Il2CppGenericParameterEP11Il2CppClassEES6_N6il2cpp5utils11PointerHashIS4_EEN14dense_hash_mapIS6_S9_SE_NS6_14EqualsComparerINS0_8equal_toIS5_EEEENS0_9allocatorISA_EEE9SelectKeyESJ_SL_E3endEv
DU:__ZN11AudioSource24ClearExtensionPropertiesE12PropertyName
gic:__ZN9ShaderLab22SerializedBindChannels8TransferI19StreamedBinaryWriteILb0EEEEvRT_
rrb:__ZN15SerializeTraitsI5RectTIiEE8TransferI14SafeBinaryReadEEvRS1_RT_
nKc:__ZN5IMGUI20MoveWindowFromLayoutER8GUIStateiRK5RectTIfE
C_c:_UNITY_FT_Stream_ReadUShort
xMa:__ZNSt3__26__treeINS_12__value_typeIN4core12basic_stringIcNS2_20StringStorageDefaultIcEEEES6_EENS_19__map_value_compareIS6_S7_NS_4lessIS6_EELb1EEE13stl_allocatorIS7_L18MemLabelIdentifier1ELi16EEE7destroyEPNS_11__tree_nodeIS7_PvEE
QPb:__Z13IsDepthFormat14GraphicsFormat
C2a:__ZN12AspectRatios8TransferI24GenerateTypeTreeTransferEEvRT_
AMe:_MonoType_GetFields_m4176012508
_5g:_CurrentSystemTimeZone_GetTimeZoneData_m2641861607
Jf:_emscripten_glUniform1fv
hzh:_EqualityComparer_1_System_Collections_IEqualityComparer_GetHashCode_m3423304513_gshared
mCj:__ZN6il2cpp2vm5Class13GetArrayClassEP11Il2CppClassj
Mxd:_StandaloneInputModule_set_inputActionsPerSecond_m4057208843
GIb:__ZN19RuntimeSceneManager18LoadSceneAsyncIntoER10UnitySceneRKN4core12basic_stringIcNS2_20StringStorageDefaultIcEEEENS_11LoadingModeEb
$Nc:__Z35Transfer_Blittable_FixedBufferFieldI9JSONWritetEvRK29SerializationCommandArgumentsR31RuntimeSerializationCommandInfo
QLc:__ZN11IMGUIModule12AddGUIScriptER8ListNodeI13MonoBehaviourE
lb:invoke_difi
Lhj:_GUILayoutUtility_BeginWindow_m2240221150
Uxk:_glDeleteSamplers__wrapper
Tca:__ZL50StaticRegisterSceneLoadedCallback_LightmapSettingsPv
kng:_HybridDictionary_set_Item_m2997363718
Nm:FUNCTION_TABLE_iiffi
Z6e:_InternalEnumerator_1_get_Current_m1477715453_AdjustorThunk
CTh:_UInt64_System_IConvertible_ToUInt32_m2784653358
APb:__ZN21GLESGpuProgramApplier11ApplyVectorERKN20GpuProgramParameters14ValueParameterEPK8Vector4ft
$4b:__Z17PrepareSceneNodesP11CullResults
epf:_SByte_System_IConvertible_ToDecimal_m2548745278
u$c:_cff_size_done
D5b:__ZN29ExtractProjectionPlanesHelperILb1EE5ApplyERK10Matrix4x4fP5Plane
Ydk:__ZN6il2cpp6icalls8mscorlib6System7Convert17Base64ToByteArrayEPDsib
wuc:__ZN13ProduceHelperI7CubemapLb0EE7ProduceE10MemLabelId18ObjectCreationMode
pac:__ZN6Camera34UpdatePreviousViewProjectionMatrixEv
ULa:__ZN9ShaderLab11ShaderState25RemoveUnsupportedProgramsEPK6Shader
U9c:__Z28Font_Get_Custom_PropMaterialP12Il2CppObject
ABf:_Mathf_Abs_m3281243566
yJe:_SynchronizedWriter_WriteLine_m1552352268
Rmc:__Z26scripting_class_has_parent17ScriptingClassPtrS_
Fba:__ZN13RuntimeStaticI21AssetReferenceStorageLb0EE16StaticInitializeEPv
QSg:_Int32_System_IConvertible_ToByte_m3832391412_AdjustorThunk
WU:__Z71Register_UnityEngine_AudioSource_INTERNAL_CALL_ClearExtensionPropertiesv
CF:__ZNK8Animator20IsInMatchTargetStateEv
Z2e:_InternalEnumerator_1_System_Collections_IEnumerator_get_Current_m4088805473_gshared
qoa:__ZN9Scripting11UnityEngine5Plane12CleanupProxyEv
jKc:__Z36Register_UnityEngine_GUI_set_changedv
zTd:_Context_GetServerContextSinkChain_m3154465897
Eij:_GUIStyle_get_fixedHeight_m2868324709
Yje:__ZL48Mathf_t3464937446_CustomAttributesCacheGeneratorP21CustomAttributesCache
Wjk:__GLOBAL__sub_I_Il2CppCodeRegistration_cpp
Vy:__ZN7mecanim28TransformValueArrayBlendNodeEiiiRKNS_10ValueArrayERKNS_14ValueArrayMaskERS0_RS3_RNS_16ValueArrayWeightEf
hHh:_List_1_GetIndex_m3112872964_gshared
oDd:_Dropdown_set_value_m1048320169
sAj:_CustomEventData_Finalize_m1724721833
_Fa:__ZN20TierGraphicsSettings8TransferI18StreamedBinaryReadILb0EEEEvRT_
nTg:_Int32_System_IConvertible_ToUInt64_m2502338186_AdjustorThunk
Mfa:__Z33CleanupCubemapGPUUtilityMaterialsPv
bGc:__Z43Register_UnityEngine_Material_EnableKeywordv
Bzj:__ZL9rshift128PyS_
LSg:_Int16_ToString_m2072232391_AdjustorThunk
jFh:_Enumerator_VerifyState_m169680537_AdjustorThunk
WUj:__ZN14dense_hash_mapI10KeyWrapperINSt3__24pairIPK12PropertyInfoP11Il2CppClassEEEj17ReflectionMapHashIS8_ENS9_14EqualsComparerINS1_8equal_toIS8_EEEENS1_9allocatorINS2_IKS9_jEEEEE13set_empty_keyERSH_
gk:_glRenderbufferStorage
Krc:__Z45Register_UnityEngine_Input_get_touchSupportedv
xld:__ZN11UnityEngine15PlatformWrapper28GetTextureFormatSupportFlagsEv
k4c:_sfnt_is_postscript
Okf:_RemotingConfiguration_RegisterWellKnownClientType_m1237674062
Lra:__ZN9Scripting5Unity11Collections8LowLevel6Unsafe42NativeDisableUnsafePtrRestrictionAttribute9InitProxyEv
Nfj:_Uri_EscapeString_m3864445955
c0c:_cf2_setError
kXa:__ZN14SafeBinaryRead21TransferSTLStyleArrayI13dynamic_arrayI12BoneWeights4Lj16EEEEvRT_17TransferMetaFlags
OVb:__ZZ23InitPlayerLoopCallbacksvEN35PreUpdateSendMouseEventsRegistrator7ForwardEv
yAa:__ZNK6Camera25GetNormalizedViewportRectEP13RenderTextureb
pDd:_Dropdown_Awake_m3140021404
Zg:_glDisable
Fb:invoke_vffff
SMf:_Vector2_get_sqrMagnitude_m837837635
Xck:__ZN6il2cpp5utils11StringUtils15StringDuplicateEPKDsj
Cdj:_Regex_Match_m4145799399
Tx:__ZN17AnimationPlayable17ProcessRootMotionEP35AnimationPlayableEvaluationConstantP32AnimationPlayableEvaluationInputP33AnimationPlayableEvaluationOutput
Sjg:_String_IsNullOrEmpty_m2969720369
Rwj:_TextGenerator_GetPreferredHeight_m3514897836
Ioh:_BigInteger_LowestSetBit_m3082714978
JCk:b118
KCk:b119
bXb:__ZNK8Material12GetPassCountEv
ccg:_RSAParameters_t1728406613_marshal_pinvoke
lxg:_Interval_IsDisjoint_m1532171337_AdjustorThunk
DCk:b112
Grk:_bitshift64Ashr
FCk:b114
GCk:b115
HCk:b116
ICk:b117
Zsk:dynCall_diii
ITf:_LayoutUtility_GetFlexibleWidth_m22831835
lYe:_ArrayReadOnlyList_1_ReadOnlyError_m865416608_gshared
V6b:__Z18AddGroupToWorkloadR26BlockRangeBalancedWorkloadjR13dynamic_arrayI10BlockRangeLj0EERS1_IjLj0EE
sKg:_CollectionBase_System_Collections_IList_get_Item_m3743372945
dSa:__ZN4crnd12crn_unpacker22decode_alpha_endpointsEv
SXi:_Queue_1__ctor_m2068090025_gshared
r6b:__Z23CullDynamicObjectsUmbraPK4AABBPKN5Umbra15OcclusionBufferER9IndexList
T4i:_SslStreamBase_RaiseRemoteCertificateValidation2_m2908038766
S5c:_tt_cmap4_char_next
HBd:_ColorTween_set_startColor_m2562993758_AdjustorThunk
Mei:__Z50RuntimeInvoker_Boolean_t97287965_Int16_t2552820387PFvvEPK10MethodInfoPvPS4_
nea:__ZN17DirectorFrameTime14ResetDSPValuesEv
K2g:_Convert_ToDecimal_m1233667008
Nnd:__ZN22UnityAnalyticsSettings10SetEnabledEb
RM:__ZN4FMOD7Channel11setPositionEjj
Rh:_glBindSampler
Hgk:_GC_reclaim_block
N5f:_ClientContext_get_ClientHelloProtocol_m1654639078
Vh:_glGetVertexAttribiv
Dgf:_Enumerator_System_Collections_IEnumerator_get_Current_m1975949486_gshared
Vbj:_PatternCompiler_EmitSub_m193323684
Vbd:__ZN2UI11CanvasGroup23VirtualRedirectTransferER18StreamedBinaryReadILb0EE
Rra:__ZN9Scripting5Unity11Collections8LowLevel6Unsafe49NativeContainerSupportsDeferredConvertListToArray9InitProxyEv
MRc:__ZN8JSONRead8TransferIbEEvRT_PKc17TransferMetaFlagsb
rPh:_TimeSpan_ToString_m1128692466
Ckj:_AesManaged_CreateEncryptor_m2294080233
mhj:_Event_GetHashCode_m3559153592
MJh:_StringBuilder__ctor_m2367297767
kfk:_GC_promote_black_lists
rOg:_CultureInfo_construct_datetime_format_m1928121315
ASc:__Z29Transfer_Blittable_ArrayFieldI8JSONRead8Vector4fEvRT_R9ArrayInfoRK23StaticTransferFieldInfo
Rn:FUNCTION_TABLE_vf
GMe:_Binder_GetDerivedLevel_m3216810447
oo:FUNCTION_TABLE_vd
qo:FUNCTION_TABLE_vi
s3:__ZN13RuntimeStaticI37UnityShaderCompilerExtPluginConfigureLb0EE16StaticInitializeEPv
nKh:_StringBuilder_AppendFormat_m2403596038
xrf:_DSASignatureDeformatter_SetHashAlgorithm_m3186995552
LZh:_ReadOnlyCollection_1_System_Collections_Generic_ICollectionU3CTU3E_Clear_m2772202961_gshared
FKh:_UnicodeEncoding_GetString_m332467280
mJ:__ZNK8Animator17HasBoundPlayablesEv
FPd:_ResourceSet_ReadResources_m3663669011
_Mh:_SynchronizationContext_SetSynchronizationContext_m1249070039
cVi:_List_1_AddEnumerable_m1267044261_gshared
dji:__Z99RuntimeInvoker_Void_t1185182177_RuntimeObject_Int32_t2950945753_SByte_t1669577662_SByte_t1669577662PFvvEPK10MethodInfoPvPS4_
INj:__ZN6il2cpp2vm7Runtime9SetConfigEPKc
xMc:__ZN5Unity9rapidjson12PrettyWriterI16TempBufferWriterNS0_4UTF8IcEES4_13JSONAllocatorE10StartArrayEv
ura:__ZN9Scripting11UnityEngine16AndroidJNIHelper12CleanupProxyEv
ta:invoke_iiifiii
IIf:_RectTransform_INTERNAL_get_pivot_m2970933031
X9h:_UnityAction_1_Invoke_m927447181_gshared
_0j:__ZN6il2cpp2vm9Exception11FromNameMsgEPK11Il2CppImagePKcS6_S6_
dn:FUNCTION_TABLE_fiiifii
KI:__ZN10HumanTrait15InitializeClassEv
mfa:__Z14GetTimeManagerv
lwf:_Color32_op_Implicit_m213813866
lIf:_RectOffset_set_top_m713260669
Eqd:__ZN19TransportJavaScript7CleanupEv
jpc:__Z12GUIDToStringRK9UnityGUIDPc
eca:__ZN15FileSystemEntry4LockE12FileLockModeP12FileAccessor
Mma:__ZN9Scripting11UnityEngine10Vector3Int12CleanupProxyEv
FAk:_emscripten_glDrawArrays__wrapper
Dcj:_Parser__ctor_m3200411199
wTg:_Int32_Equals_m2976157357
Qti:__Z110RuntimeInvoker_Int32_t2950945753_Int32_t2950945753_Int32_t2950945753_Int32U26_t1369213839_Int32U26_t1369213839PFvvEPK10MethodInfoPvPS4_
CQ:__ZN11AudioSource22UnmuteActiveVideoSinksEv
k6i:_TlsException__ctor_m3717683709
Uck:__ZN4utf88internal20is_overlong_sequenceIiEEbjT_
DGj:__ZN6il2cpp2vm13MetadataCache8RegisterEPK22Il2CppCodeRegistrationPK26Il2CppMetadataRegistrationPK20Il2CppCodeGenOptions
Lmc:__Z41Register_UnityEngine_Cursor_get_lockStatev
uTj:__ZN14dense_hash_mapI10KeyWrapperIPK14Il2CppAssemblyEPK22Il2CppMonoAssemblyNameN6il2cpp5utils11PointerHashIS2_EENS4_14EqualsComparerINSt3__28equal_toIS3_EEEENSD_9allocatorINSD_4pairIKS4_S7_EEEEE13set_empty_keyERSJ_
nLa:__ZL20InitializeGUIShadersv
eRg:_Guid_CompareTo_m243656946
pxc:__Z20DestroyObjectDelayedP6Objectf
p1:__ZN20DynamicHeapAllocatorI17LowLevelAllocatorED0Ev
qjd:__ZL56__ManagedRegistrationHelperFunction_AnalyticsSessionInfoPv
eyc:__ZN11TimeManagerC2E10MemLabelId18ObjectCreationMode
s_b:__ZN9DepthPassD2Ev
tM:__ZN11AudioFilter6GetDSPEv
bcg:_RSACryptoServiceProvider_OnKeyGenerated_m863837376
gXf:_Scrollbar_OnDrag_m4289602768
p6:__ZN19RuntimeSceneManager14CanUnloadSceneEP10UnityScene
v_b:__Z22ExtractRenderNodeQueueRK11CullResults15ExtractionFlagsR15RenderNodeQueue
lP:__ZN24AudioScriptBufferManagerC2Ev
eUc:__ZN11UnityEngine9Analytics18SceneLoadTimeEvent12ToJsonStringER9JSONWrite
mZc:__ZNSt3__26vectorIh13stl_allocatorIhL18MemLabelIdentifier1ELi16EEE8__appendEj
b5e:_InternalEnumerator_1_System_Collections_IEnumerator_get_Current_m3854084659_AdjustorThunk
SMc:__ZN8JSONRead32GetValueForKeyWithNameConversionEPKN5Unity9rapidjson12GenericValueINS1_4UTF8IcEE13JSONAllocatorEEPKc
oXe:_U3CGetEnumeratorU3Ec__Iterator0_System_Collections_IEnumerator_get_Current_m283764921_gshared
YMg:_CultureInfo_get_IcuName_m2258611679
yNc:__Z18Transfer_BlittableI9JSONWriteLb0EfEvRK29SerializationCommandArgumentsR31RuntimeSerializationCommandInfo
WJa:__Z21GetAsyncUploadManagerv
Hj:_emscripten_glDetachShader
x_a:__ZN17GenericDynamicVBO20ReleaseChunkInternalERK21DynamicVBOChunkHandlejj
cbd:__ZL27CleanupModule_TextRenderingv
hok:_fmodl
Vsh:_SymmetricTransform_OFB_m3842617151
LIb:__ZN19RuntimeSceneManager11CreateSceneEv
Qvf:_Color__ctor_m286683560
Cbj:_PatternCompiler_Emit_m1540115729
b4c:_ps_get_standard_strings
R1b:__Z27SetupBakedOcclusionForLightbRK15SharedLightDataR17ShaderPassContext
jGf:_PropertyName_op_Implicit_m1633828199
Skk:__ZN6il2cpp2os5Mutex6UnlockEv
lmg:_EncoderFallbackException__ctor_m1051987327
Qoh:_BigInteger_ToString_m3278248272
R8g:_Decimal_System_IConvertible_ToBoolean_m1123794670
Vzi:__Z98RuntimeInvoker_Int32_t2950945753_RaycastResult_t3360306849_RaycastResult_t3360306849_RuntimeObjectPFvvEPK10MethodInfoPvPS4_
TTf:_Mask__ctor_m1269055150
Gae:__ZL99WaitHandle_t1743403487_CustomAttributesCacheGenerator_WaitHandle_t1743403487____Handle_PropertyInfoP21CustomAttributesCache
Xqg:_WebRequest_AddPrefix_m3187775913
KXb:__Z18RenderImageFiltersR10RenderLoopb
Med:__Z43CanvasRenderer_Get_Custom_PropMaterialCountP12Il2CppObject
$1b:__ZNSt3__227__insertion_sort_incompleteIR23CompareReflectionProbesP31RuntimeReflectionProbeBlendInfoEEbT0_S5_T_
IRi:_List_1_Remove_m1457733883_gshared
y1g:_DateTime_IsLetter_m156019844
Qzb:__ZN18StreamedBinaryReadILb1EE21TransferSTLStyleArrayI13dynamic_arrayIdLj0EEEEvRT_17TransferMetaFlags
MLd:_MonoEventInfo_GetEventInfo_m873645389
W2f:_MD4Managed_Encode_m386285215
qca:__ZN10InputEventD2Ev
ppd:__ZN22UnityWebRequestManagerD2Ev
rhj:_Event_get_character_m1666742088
FHb:__Z20SetPlayerPauseDirect11PlayerPause
Onk:_isalpha
l$f:_Text_get_mainTexture_m3501892889
etc:__ZZL31RegisterRectTransformPropertiesR22GenericPropertyBindingEN28Wrapper_RectTransformPivoty113SetFloatValueEPvf
j8g:_DateTimeOffset_get_Offset_m2040541042_AdjustorThunk
ELj:__ZN6il2cpp2vmL17IsSocketAsyncCallEP14Il2CppDelegate
D_g:_Slot_t3975888750_marshal_pinvoke_back
hdk:__ZN6il2cpp2vm6String6NewLenEPKcj
tRf:_Selectable_get_image_m1928917691
oGb:__ZN17PersistentManager9AddStreamEv
$k:_time
wBd:_ContentSizeFitter_set_verticalFit_m1831566876
zeg:_TripleDESCryptoServiceProvider_CreateDecryptor_m740960117
_vi:__Z122RuntimeInvoker_Void_t1185182177_Color_t2555686324_Single_t1397266774_SByte_t1669577662_SByte_t1669577662_SByte_t1669577662PFvvEPK10MethodInfoPvPS4_
tBf:_Material_EnableKeyword_m329692301
R0c:_cf2_stack_free
vdg:_SHA512Managed_HashCore_m2377807474
vUg:_Int64_Parse_m3309897583
JNg:_CompareInfo_IndexOf_m667936183
Ex:__ZN7mecanim9animation19EvaluateFloatValuesEPKNS0_18ClipMuscleConstantEPKNS_18ValueArrayConstantEPKNS0_12ClipBindingsEPKNS0_10ClipOutputEPNS0_18AnimationNodeStateEfbb
VF:__ZN8Animator31ClearInternalControllerPlayableEv
RTb:__ZN26SinglePassStereoSupportExt18AfterSetViewMatrixEv
xuf:_Bounds__ctor_m1937678907_AdjustorThunk
bKf:_SetupCoroutine_InvokeMember_m2661944898
ACh:_HashSet_1__ctor_m620629637_gshared
Lwa:__ZN10GameObject8TransferI24GenerateTypeTreeTransferEEvRT_
hPj:__ZN15dense_hashtableINSt3__24pairIK10KeyWrapperINS1_IPK9FieldInfoP11Il2CppClassEEEjEES9_17ReflectionMapHashIS8_EN14dense_hash_mapIS9_jSD_NS9_14EqualsComparerINS0_8equal_toIS8_EEEENS0_9allocatorISB_EEE9SelectKeyESI_SK_E4findERSA_
ZIg:_SimpleEnumerator_MoveNext_m3113120129
KIb:__ZN13LoadOperationC2E10MemLabelId
uOf:_InputField_SendOnValueChanged_m2560301445
lYb:__ZN13RenderTexture19SetAutoGenerateMipsEb
mIa:__Z20GetTextureFormatInfo13TextureFormat
Dog:_TypeConverterAttribute_Equals_m1580461255
e4f:_RSAManaged_ToXmlString_m2369501989
sA:__ZN26AnimatorControllerPlayable8GetFloatEiRf
p9g:_Decimal_System_IConvertible_ToUInt64_m1323635232_AdjustorThunk
KVd:_LogicalCallContext__ctor_m1263247987
D6g:_DateTime_System_IConvertible_ToSingle_m2193708681_AdjustorThunk
MDb:__ZNK35ScriptingManagedObjectProxyRegistry11InitProxiesEv
gcd:__ZN2UI14CanvasRenderer13AwakeFromLoadE17AwakeFromLoadMode
eYd:__ZL64String_t_CustomAttributesCacheGenerator_String_Split_m3580120853P21CustomAttributesCache
ijk:__ZN6il2cpp5utils10MemoryPool6MallocEj
KM:__ZN11SoundHandle8InstanceD2Ev
pPd:_ResourceEnumerator_Reset_m3754276504
Ufa:__ZN31CanvasBatchIntermediateRenderer13StaticDestroyEPv
COb:__ZNSt3__26__treeI17DeviceRasterState14MemoryCompLessIS1_ENS_9allocatorIS1_EEE25__emplace_unique_key_argsIS1_JS1_EEENS_4pairINS_15__tree_iteratorIS1_PNS_11__tree_nodeIS1_PvEEiEEbEERKT_DpOT0_
xza:__Z26scripting_method_get_class18ScriptingMethodPtr
ryk:_emscripten_glBindProgramARB__wrapper
zHi:_Array_InternalArray__set_Item_TisPlayerLoopSystem_t105772105_m93492520_gshared
Imc:__Z41Register_UnityEngine_CullingGroup_Disposev
Zbj:_PatternCompiler_EmitRepeat_m697083858
XQa:__ZN7Cubemap23VirtualRedirectTransferER19StreamedBinaryWriteILb0EE
TNj:__ZN6il2cpp2vm7Runtime47RaiseExecutionEngineExceptionIfMethodIsNotFoundEPK10MethodInfoPK19Il2CppGenericMethod
wu:__Z14FindAvatarRootPKN7mecanim8skeleton8SkeletonEPKjR9Transformb
Meb:__ZN25MultiBlocksMemoryFileData5WriteEyyPKv
TOd:_ResourceReader_Read7BitEncodedInt_m3568166465
Jqh:_BlockProcessor_Core_m2138791525
Dxj:_CanvasGroup_set_alpha_m4032573
$Bg:_Array_get_LongLength_m978104875
vQb:__ZL17ProgramUniform2fvPK7ApiGLESjiihPKv
wzk:b83
iZc:__ZN20TextRenderingPrivate8FontImpl21HasCharacterInTextureEjijfPj
bMf:_Transform_SetAsFirstSibling_m253439912
M6g:_DateTime_System_IConvertible_ToUInt16_m4182197229_AdjustorThunk
cxg:_Interval_get_IsDiscontiguous_m3016063288
V4i:_SslStreamBase_get_CheckCertRevocationStatus_m2739906607
ipk:_htonl
YNb:__Z20GetBufferManagerGLESv
vzk:b82
zCb:__ZN18StreamedBinaryReadILb0EE21TransferSTLStyleArrayI31ArrayOfManagedObjectsTransfererEEvRT_17TransferMetaFlags
ola:__ZL60__ManagedRegistrationHelperFunction_FailedToLoadScriptObjectPv
KQc:__Z18Transfer_BlittableI8JSONReadLb0EtEvRK29SerializationCommandArgumentsR31RuntimeSerializationCommandInfo
e7:__Z16GenerateTypeTreeRK6ObjectR8TypeTree24TransferInstructionFlags
BOg:_CultureInfo_CreateCulture_m1493441763
reg:_TripleDES_IsWeakKey_m2147489852
eB:__ZN34AnimationStateMachineMixerPlayable13EndTransitionEv
DL:__ZN12AudioManager21FixMasterGroupRoutingEv
_Za:__ZNK19ShaderPropertySheet11HasPropertyERKN9ShaderLab16FastPropertyNameE
qtk:dynCall_viffffii
Syi:__Z81RuntimeInvoker_Boolean_t97287965_NavigationU26_t1807167253_Navigation_t3049316579PFvvEPK10MethodInfoPvPS4_
wAk:_emscripten_glUniform1fv__wrapper
Cab:__ZN2UI13RectTransform19SetAnchoredPositionERK8Vector2f
IGd:_GridLayoutGroup_SetLayoutHorizontal_m2838109254
OCd:_Dropdown_RefreshShownValue_m2806045241
Hob:__Z18Transfer_BlittableI14SafeBinaryReadLb1E4AABBEvRK29SerializationCommandArgumentsR31RuntimeSerializationCommandInfo
k8j:__ZN6il2cpp6icalls8mscorlib6System4Enum12get_hashcodeEP12Il2CppObject
iik:_GC_set_no_dls
RAd:_ColorBlock_set_normalColor_m254595671_AdjustorThunk
Kmk:__ZN6il2cpp8metadata26Il2CppGenericMethodCompare6EqualsEPK19Il2CppGenericMethodS4_
W3e:_InternalEnumerator_1_get_Current_m1007906068_gshared
Hqa:__ZN9Scripting11UnityEngine7Color329InitProxyEv
Ohd:__ZN11UnityEngine9Analytics15AnalyticsConfig12EventsConfig8TransferI8JSONReadEEvRT_
$Ig:_SimpleEnumerator_Reset_m1520014659
US:__ZN9AudioClip7WWWOpenEPKciPjPPvS4_
yob:__Z18Transfer_BlittableI14SafeBinaryReadLb0E8Vector2fEvRK29SerializationCommandArgumentsR31RuntimeSerializationCommandInfo
O7f:_Context_set_ProtocolNegotiated_m2904861662
Q3j:__ZN15dense_hashtableINSt3__24pairIK10KeyWrapperINS1_IPKcS4_EEEiEES6_24NamespaceAndNamePairHashN14dense_hash_mapIS6_iS9_NS6_14EqualsComparerI26NamespaceAndNamePairEqualsEENS0_9allocatorIS8_EEE9SelectKeyESD_SF_E12resize_deltaEjj
buj:__ZL25UnresolvedVirtualCall_222P12Il2CppObjectfPK10MethodInfo
bkf:_RemotingServices_GetRemoteObject_m2117098022
Uxj:_CanvasRenderer_SetTexture_m1600559835
jVh:_Collection_1_System_Collections_IList_IndexOf_m4256072926_gshared
Erc:__Z53Register_UnityEngine_Input_INTERNAL_get_mousePositionv
QNb:__ZN7ApiGLES12DrawElementsE16GfxPrimitiveTypePKvjjjj
ksh:_EncryptedPrivateKeyInfo_get_Salt_m3453455261
D1g:_DateTime__ParseNumber_m1240316250
hTc:__ZN8JSONRead21TransferSTLStyleArrayI13dynamic_arrayIfLj0EEEEvRT_17TransferMetaFlags
Rhg:_Single_System_IConvertible_ToSingle_m1939829239_AdjustorThunk
TC:__ZN11UnityEngine9Animation31SetHumanTransformPropertyValuesERKNS0_21AvatarBindingConstantERKN7mecanim8skeleton13SkeletonPoseTIN4math4trsXEEEby
R0:__GLOBAL__sub_I_Runtime_Utilities_6_cpp
k0e:_InternalEnumerator_1_get_Current_m3839250771_gshared
dOg:_CultureInfo_get_TextInfo_m2342840448
ed:_SDL_GetTicks
dhd:__ZN2UI14CanvasRenderer11SyncCullingENS0_8SyncFlagE
dRj:__ZN15dense_hashtableINSt3__24pairIK10KeyWrapperINS1_IPK11Il2CppImageP11Il2CppClassEEEjEES9_17ReflectionMapHashIS8_EN14dense_hash_mapIS9_jSD_NS9_14EqualsComparerINS0_8equal_toIS8_EEEENS0_9allocatorISB_EEE9SelectKeyESI_SK_E6insertERKSB_
pD:__ZN8Animator24SortJobsBasedOnHierarchyERK13dynamic_arrayINS_11AnimatorJobELj0EERS0_IS2_Lj0EE
uu:__Z16AppendPathToHashRKN7mecanim5crc32EPKc
W5b:__Z21CreateShadowCullerJobP30CreateUmbraShadowCullerJobData
s1h:_ReadOnlyCollection_1_System_Collections_Generic_ICollectionU3CTU3E_Remove_m4072504734_gshared
nQb:__ZL18ProgramUniform2uivPK7ApiGLESjiihPKv
Azd:_U3COnFinishSubmitU3Ec__Iterator0_MoveNext_m2729496168
Yzk:_glUniform4iv__wrapper
E2b:__Z33GenerateShadowCasterPartsSortDataRK16ShadowCasterDatajRK15RenderNodeQueueRKNSt3__26vectorI20ShadowCasterPartData13stl_allocatorIS7_L18MemLabelIdentifier2ELi16EEEERK10Matrix4x4fRjP20ShadowCasterSortData
bWb:__ZZ23InitPlayerLoopCallbacksvEN51PostLateUpdateTriggerEndOfFrameCallbacksRegistrator7ForwardEv
WOh:_TimeSpan_Compare_m753151303
Whb:__ZN9GfxDevice16DynamicBatchMeshERK10Matrix4x4fPKhjjPKtj26GfxTransformVerticesParams25GfxTransformVerticesFlagsj
Grb:__Z29Transfer_Blittable_ArrayFieldI14SafeBinaryRead9BoundsIntEvRT_R9ArrayInfoRK23StaticTransferFieldInfo
Y$c:_cf2_computeDarkening
Gyj:_AnimationLayerMixerPlayable__ctor_m860721801_AdjustorThunk
dNd:_MonoPropertyInfo_get_property_info_m1599555644
Wqf:_DESTransform_CipherFunct_m3527261721
Gfk:_GC_expand_hp_inner
X5j:__ZNK15dense_hashtableI10KeyWrapperIP18Il2CppGenericClassES3_N6il2cpp8metadata22Il2CppGenericClassHashEN14dense_hash_setIS3_S6_NS3_14EqualsComparerINS5_25Il2CppGenericClassCompareEEENSt3__29allocatorIS3_EEE8IdentityESA_SD_E12test_deletedEj
XGc:__Z25Screen_Get_Custom_PropDpiv
Uyf:_UnityEventBase_RebuildPersistentCallsIfNeeded_m216788690
Jck:__ZN4utf812find_invalidIPKcEET_S3_S3_
vQf:_InputField_OnEndDrag_m4127187089
T3h:_ReadOnlyCollection_1_System_Collections_IList_RemoveAt_m2555465054_gshared
r$d:__ZL72RuntimeCompatibilityAttribute_t1169614002_CustomAttributesCacheGeneratorP21CustomAttributesCache
L5b:__Z59ProcessShadowCasterNodeVisibilityAndCullWithoutUmbra_KernelILN17CullingParameters9LayerCullE2ELi8EEvR9IndexListRK22SceneCullingParametersPK9SceneNodePK4AABBjjPKN4math7_float4E
Aah:_StackFrame__ctor_m343464319
KZ:__ZN11UnityEngine15CloudWebService20WebRequestRestClient7PrepareEv
lMd:_MonoField_CheckGeneric_m453069507
XYc:__ZN20TextRenderingPrivate19NativeTextGenerator23FixLineHorizontalOffsetEiii
TRe:_CustomAttributeNamedArgument_ToString_m1488801416_AdjustorThunk
ACb:__Z19TransferField_ArrayI18StreamedBinaryReadILb0EE27Converter_UnityEngineObjectEvRK23StaticTransferFieldInfoR31RuntimeSerializationCommandInfoRT0_
Vmf:_ObjectReader_ReadArrayOfString_m3550800559
yLe:_MonoCustomAttrs_GetCustomAttributesInternal_m648304078
xC:__ZN7mecanim9animation19DestroyAnimationSetEPNS0_12AnimationSetERNS_6memory9AllocatorE
vpa:__ZN9Scripting11UnityEngine12Experimental9Rendering16CameraProperties9InitProxyEv
Wfb:__ZN16MemoryFileSystem4OpenER13FileEntryData14FilePermission16FileAutoBehavior
ENg:_CompareInfo_GetSortKey_m1915852346
v8c:_ft_var_load_avar
Ffa:__ZN13RuntimeStaticI13RendererSceneLb0EE13StaticDestroyEPv
v7e:_DefaultComparer_Compare_m1297750557_gshared
l6f:_CipherSuiteCollection_get_Item_m3790183696
Nub:__Z18Transfer_BlittableI24GenerateTypeTreeTransferLb1E12PropertyNameEvRK29SerializationCommandArgumentsR31RuntimeSerializationCommandInfo
enj:_Toggle_OnEnable_m1421694809
p3a:__ZN14SafeBinaryRead21TransferSTLStyleArrayI10vector_mapIPKN5Unity4TypeE7Hash128NSt3__24lessIS5_EENS7_9allocatorINS7_4pairIS5_S6_EEEEEEEvRT_17TransferMetaFlags
TS:__ZN9AudioClip18GetQueuedAudioDataEPPvj
Sad:__ZN20TextRenderingPrivate21TextMeshGeneratorImpl14GarbageCollectEv
Zjc:__ZNK9Texture2D17CheckHasPixelDataEv
Bwb:__Z18Transfer_BlittableI19StreamedBinaryWriteILb0EELb0E9BoundsIntEvRK29SerializationCommandArgumentsR31RuntimeSerializationCommandInfo
c_b:__Z18SetShadowsKeywordsR17ShaderPassContext9LightType10ShadowType16ShadowProjectionbb
MFd:_Graphic_GetPixelAdjustedRect_m3729397999
VUj:__ZN14dense_hash_mapI10KeyWrapperINSt3__24pairIPK12PropertyInfoP11Il2CppClassEEEj17ReflectionMapHashIS8_ENS9_14EqualsComparerINS1_8equal_toIS8_EEEENS1_9allocatorINS2_IKS9_jEEEEEC2EjRKSB_RKSF_
_uc:__ZN17CollisionMeshDataC2Ev
Yif:_Dictionary_2_ToTValue_m692436965_gshared
GQd:_Marshal_Copy_m1222846562
zjc:__ZL24FindBelongingStructParamRPKcRNSt3__26vectorIN9ShaderLab20SerializedSubProgram14ConstantBufferENS2_9allocatorIS6_EEEE
O$g:_Stack_Resize_m3124769495
eWb:__ZZ23InitPlayerLoopCallbacksvEN47PostLateUpdateMemoryFrameMaintenanceRegistrator7ForwardEv
SNb:__ZN7ApiGLES20SetVertexArrayAttribEjj12VertexFormathjPKv
rgk:_GC_push_next_marked
P7a:__ZN18IDCollectorFunctor18GenerateInstanceIDEi17TransferMetaFlags
MMi:_GameObject_GetComponent_TisRuntimeObject_m2049753423_gshared
rwj:_TextGenerationSettings_Equals_m3618607189_AdjustorThunk
aog:_NameObjectCollectionBase_BaseAdd_m3437748750
nQh:_Type_internal_from_handle_m3156085815
nHj:__ZN15dense_hashtableINSt3__24pairIK10KeyWrapperIN6il2cpp5utils13dynamic_arrayIPK10Il2CppTypeLj4EEEEPFvvEEESA_NS3_8metadata19Il2CppSignatureHashEN14dense_hash_mapISA_SD_SG_NSA_14EqualsComparerINSF_22Il2CppSignatureCompareEEENS0_9allocatorISE_EEE9SelectKeyESK_SM_E12maybe_shrinkEv
z$h:_ReadOnlyCollection_1_System_Collections_Generic_ICollectionU3CTU3E_Add_m69722965_gshared
pG:__ZN8Animator8TransferI19StreamedBinaryWriteILb0EEEEvRT_
waa:__ZNSt3__27__sort4IRNS_6__lessI14ObjectLoadDataS2_EEPS2_EEjT0_S6_S6_S6_T_
JYb:__ZNK25CameraStackRenderingState16GetCurrentCameraEv
xna:__ZN9Scripting11UnityEngine9Rendering18GraphicsDeviceType9InitProxyEv
xzc:__Z22PlayableValidityChecksRK9HPlayableb
qse:__ZL57AnimationCurve_t3046754366_CustomAttributesCacheGeneratorP21CustomAttributesCache
M4a:__ZN15ResourceManagerD2Ev
Loc:__Z41Register_UnityEngine_Camera_GetAllCamerasv
iyf:_InvokableCall__ctor_m2158562079
mdj:_Assertion__ctor_m2128950829
und:__ZN28PerformanceReportingSettings8TransferI14SafeBinaryReadEEvRT_
g9a:__ZN15CacheWriterBase18GetAddressOfMemoryEv
SQc:__Z18Transfer_BlittableI8JSONReadLb1E5RectTIiEEvRK29SerializationCommandArgumentsR31RuntimeSerializationCommandInfo
K$j:__ZN6il2cpp2vm22EmbeddedResourceRecordC2ERKS1_
uJb:__ZL20DrawVBOChunkWithPassP6ShaderPN9ShaderLab4PassER17ShaderPassContextR10DynamicVBORK21DynamicVBOChunkHandle
$$i:_Collection_1__ctor_m825528237_gshared
SQa:__ZN9Texture2D13AwakeFromLoadE17AwakeFromLoadMode
jJa:__ZN4core8hash_mapIPK17RenderSurfaceBaseP13RenderTexture19PointerHashFunctionIS3_ENSt3__28equal_toIS3_EEE6insertERKS3_RKS5_
Tfh:_SetPropertyUtility_SetStruct_TisColorBlock_t2139031574_m1748367426_gshared
IDf:_PlayerConnection_get_instance_m1750121257
q6j:__ZN6il2cpp2vm3RCW14QueryInterfaceILb0EEEP14Il2CppIUnknownP15Il2CppComObjectRK10Il2CppGuid
CKi:_Dictionary_2_Do_CopyTo_TisRuntimeObject_TisRuntimeObject_m2341992100_gshared
w9i:_X509Store_get_Certificates_m56224934
jha:__ZN6prcoreL17RemapGenericFloatI15TexFormatRFloat18TexFormatARGBFloatEEvPKNS_9InnerInfoE
Ali:__Z85RuntimeInvoker_Void_t1185182177_Int64_t3736567304_Int32_t2950945753_Int64_t3736567304PFvvEPK10MethodInfoPvPS4_
g5f:_CipherSuite__ctor_m2440635082
gcg:_RSAPKCS1KeyExchangeFormatter_SetRSAKey_m1477802943
agg:_EvidenceEnumerator_get_Current_m1264365535
zod:__ZN11UnityEngine15PlatformWrapper20GetPlayerPrefsUInt64ERKN4core12basic_stringIcNS1_20StringStorageDefaultIcEEEEy
FQd:_Marshal_copy_from_unmanaged_m2834266824
Dtk:dynCall_iiiifii
e2b:__ZN20ReflectionProbeCacheC2ER13BatchRendererR15RenderLoopStats
EHf:_Rect_set_xMax_m1720695099_AdjustorThunk
noi:__Z59RuntimeInvoker_Int32_t2950945753_DateTimeOffset_t3229287507PFvvEPK10MethodInfoPvPS4_
hcb:__ZNK12HandlerChain6ExistsERK13FileEntryData
eWa:__ZN15SerializeTraitsI13dynamic_arrayI26EnlightenSystemInformationLj0EEE19ResizeSTLStyleArrayERS2_i
BMg:_Calendar__ctor_m106290643
VAc:__ZNSt3__26vectorIj13stl_allocatorIjL18MemLabelIdentifier1ELi16EEE6assignIPKjEENS_9enable_ifIXaasr21__is_forward_iteratorIT_EE5valuesr16is_constructibleIjNS_15iterator_traitsIS9_E9referenceEEE5valueEvE4typeES9_S9_
J1a:__ZN12InputManager23VirtualRedirectTransferER24GenerateTypeTreeTransfer
Mab:__ZN9Transform23VirtualRedirectTransferER24GenerateTypeTreeTransfer
fLc:__ZN12GUIClipState10BeginOnGUIER10InputEvent
Spi:__Z87RuntimeInvoker_RuntimeObject_Byte_t1134296376_RuntimeObject_RuntimeObject_RuntimeObjectPFvvEPK10MethodInfoPvPS4_
R6f:_HandshakeMessage_Process_m810828609
S6c:_UNITY_tt_size_ready_bytecode
h3f:_MD5SHA1_CreateSignature_m3583449066
IXc:__ZN13TextRendering4FontD2Ev
M_c:_UNITY_FT_Stream_Open
R7h:__ZN28GenericInterfaceFuncInvoker1Ib20UIVertex_t4057497605E6InvokeEPK10MethodInfoP12Il2CppObjectS0_
Qvb:__Z29Transfer_Blittable_ArrayFieldI24GenerateTypeTreeTransfer9BoundsIntEvRT_R9ArrayInfoRK23StaticTransferFieldInfo
sGd:_GraphicRegistry__cctor_m1805310505
Cuf:_Bounds_Equals_m3920299735
JEa:__ZN8keywords18KeywordSetToStringERK16ShaderKeywordSetRN4core12basic_stringIcNS3_20StringStorageDefaultIcEEEE
dVe:_GenericTypeParameterBuilder_GetGenericArguments_m2988765390
rLb:__ZN13GfxDeviceGLES26UpdateViewProjectionMatrixEv
Kki:__Z77RuntimeInvoker_Void_t1185182177_Int64_t3736567304_ResourceInfoU26_t1611441338PFvvEPK10MethodInfoPvPS4_
nHh:_List_1_CheckCollection_m1717250693_gshared
QAi:__Z53RuntimeInvoker_Int32_t2950945753_Keyframe_t4206410242PFvvEPK10MethodInfoPvPS4_
pL:__ZN4FMOD3DSP12setParameterEif
QGb:__ZN13MemoryManager16StaticInitializeEv
fOg:_CultureInfo_Equals_m1360976324
kf:___cxa_free_exception
Koe:__ZL69PersistentCall_t3407714124_CustomAttributesCacheGenerator_m_CallStateP21CustomAttributesCache
AN:__ZN4FMOD22FakeModChannelCallbackEPv
Fpa:__ZN9Scripting11UnityEngine12Experimental10PlayerLoop14PostLateUpdate9InitProxyEv
qf:_emscripten_glValidateProgram
DCa:__ZN4Mesh10CreateMeshEv
oR:__ZN4FMOD7SystemI11createSoundEPKcjP22FMOD_CREATESOUNDEXINFOPPNS_5SoundE
uMh:_NativeEventCalls_ResetEvent_internal_m885886540
m7g:_DateTime_CompareTo_m3889078633
z0c:_cf2_stack_clear
GNe:_NumberFormatter_set_CurrentCulture_m1358228087
e2j:__ZN6il2cpp6icalls8mscorlib6System4Type27get_IsGenericTypeDefinitionEP20Il2CppReflectionType
c8b:__ZN7Texture13SetAnisoLevelEi
XX:__ZNSt3__26__treeINS_12__value_typeIN4core12basic_stringIcNS2_20StringStorageDefaultIcEEEEjEENS_19__map_value_compareIS6_S7_NS_4lessIS6_EELb1EEE13stl_allocatorIS7_L18MemLabelIdentifier88ELi16EEE7destroyEPNS_11__tree_nodeIS7_PvEE
Flb:__ZN19EndOfFrameCallbacks7EnqueueEP18EndOfFrameCallbackb
MAf:_Input_set_compositionCursorPos_m1909373301
FWa:__ZN15SerializeTraitsI13dynamic_arrayI31EnlightenSystemAtlasInformationLj0EEE8TransferI19StreamedBinaryWriteILb0EEEEvRS2_RT_
UTc:__ZN27PerformanceReportingManager23VirtualRedirectTransferER24GenerateTypeTreeTransfer
t_c:_raccess_guess_vfat
zmi:__Z78RuntimeInvoker_IntPtr_t_SByte_t1669577662_RuntimeObject_BooleanU26_t4125257963PFvvEPK10MethodInfoPvPS4_
Sdd:__Z44Canvas_CUSTOM_GetETC1SupportedCanvasMaterialv
bIa:__ZN11HaloManager10UpdateHaloEiR9Transform11ColorRGBA32fjP6Object
Q9g:_Decimal_decimalSetExponent_m3707787243
S3:__ZN33InstancedMeshIntermediateRenderer13StaticDestroyEPv
Imd:__ZN28UnityConnectScriptingClasses35RemoteSettingsBeforeFetchFromServerEP21ScriptingExceptionPtr
O2j:__ZN14dense_hash_mapI10KeyWrapperIP14Il2CppIUnknownEjN6il2cpp5utils11PointerHashIS1_EENS3_14EqualsComparerINSt3__28equal_toIS2_EEEENS9_9allocatorINS9_4pairIKS3_jEEEEE13set_empty_keyERSF_
Glb:__ZN15dense_hashtableINSt3__24pairIK9TextureIDiEES2_14GfxGenericHashIS2_EN14GfxDoubleCacheIS2_iS6_NS0_8equal_toIS2_EEN31GfxDoubleCacheConcurrencyPolicy11LocklessGetE42GfxDoubleCacheDefaultEmptyDeletedGeneratorIS2_EE9SelectKeyES9_13stl_allocatorIS4_L18MemLabelIdentifier24ELi16EEE12resize_deltaEjj
AAa:__Z21DestroyShadowMapCacheP14ShadowMapCache
Oz:__ZN7mecanim9animation25CreateControllerWorkspaceEPKNS0_18ControllerConstantERNS_6memory9AllocatorE
_Li:_Array_InternalArray__get_Item_TisLabelFixup_t858502054_m3276643490_gshared
e9b:__Z20RequiredComponentsOf17ScriptingClassPtr
M1j:__ZN6il2cpp2vm13LivenessState5ResetEv
_Mc:__ZN9JSONWrite8TransferI11KeyframeTplIfEEEvRT_PKc17TransferMetaFlags
N7b:__ZN22RenderingCommandBuffer23CleanupTemporaryRTArrayER13dynamic_arrayINSt3__24pairIN9ShaderLab16FastPropertyNameEP13RenderTextureEELj0EE
k$g:_SortedList_GetImpl_m3689246167
__h:_ReadOnlyCollection_1_System_Collections_Generic_IListU3CTU3E_set_Item_m3209059215_gshared
Xkb:__ZN24BuiltinShaderParamValuesC2Ev
I7i:_PKCS12_Decode_m163534693
oNc:__ZL41CreateJSONTransferFunctionScriptingTraitsv
aec:__ZN6Shader23VirtualRedirectTransferER14SafeBinaryRead
ZPf:_InputField_SendOnSubmit_m3463846103
VNf:_WaitForSecondsRealtime_get_keepWaiting_m846832224
cFb:__Z23GetLateBehaviourManagerv
xji:__Z33RuntimeInvoker_Single_t1397266774PFvvEPK10MethodInfoPvPS4_
Mqb:__ZN14SafeBinaryRead21TransferSTLStyleArrayINSt3__26vectorI8Gradient13stl_allocatorIS3_L18MemLabelIdentifier1ELi16EEEEEEvRT_17TransferMetaFlags
U8:__ZN10MemoryPool10DeallocateEPv
Eti:__Z80RuntimeInvoker_Void_t1185182177_ScriptableRenderContext_t274343796_RuntimeObjectPFvvEPK10MethodInfoPvPS4_
slb:__ZN14GfxDeviceStats10ResetFrameEv
Kra:__ZN9Scripting5Unity11Collections8LowLevel6Unsafe43NativeSetClassTypeToNullOnScheduleAttribute12CleanupProxyEv
gtk:dynCall_vif
f6a:__ZN18LoadSceneOperation22CompleteLoadFirstSceneEv
v4g:_Convert_ToSByte_m4075629912
jtk:dynCall_vii
Irh:_KeyPairPersistence_FromXml_m746585742
Alg:_Decoder__ctor_m4046021500
oCb:__Z18Transfer_BlittableI18StreamedBinaryReadILb0EELb0EdEvRK29SerializationCommandArgumentsR31RuntimeSerializationCommandInfo
Bzd:_ColorBlock_get_fadeDuration_m121071467
xMj:__ZN6il2cpp6icalls8mscorlib6System8MonoType18GetFields_internalEP20Il2CppReflectionTypeiS5_
fsa:__ZN5Unity9Component16CheckConsistencyEv
WMd:_MonoMethod_get_ContainsGenericParameters_m3860345224
cCa:__ZN19ShaderPropertySheet37CreateTextureAuxPropertyUninitializedEN9ShaderLab16FastPropertyNameES1_PKc
dxb:__ZL26Transfer_SimpleNativeClassI19StreamedBinaryWriteILb0EE10RectOffsetLb1EEvRK29SerializationCommandArgumentsR31RuntimeSerializationCommandInfo
PPj:__ZN15dense_hashtableINSt3__24pairIK10KeyWrapperIPK10Il2CppTypeEjEES6_N6il2cpp8metadata14Il2CppTypeHashEN14dense_hash_mapIS6_jSB_NS6_14EqualsComparerINSA_26Il2CppTypeEqualityComparerEEENS0_9allocatorIS8_EEE9SelectKeyESF_SH_E3endEv
MMb:__ZN13GfxDeviceGLES17SetGpuProgramNameEP10GpuProgramPKc
XZ:__ZNK11UnityEngine15CloudWebService25WebRequestDownloadHandler11GetProgressEv
Evg:_CategoryUtils_CategoryFromName_m1352081402
ekh:_Array_InternalArray__ICollection_Add_TisMonoResource_t4103430009_m2699164149_gshared
LJj:__ZN6il2cpp2vm13MetadataCache28GetMethodDefinitionFromIndexEi
Dbk:__ZN6il2cpp2os20FileErrnoToErrorCodeEi
AMa:__ZN14SafeBinaryRead19TransferSTLStyleMapINSt3__23mapI39DeprecatedFastPropertyNameSerialization10ColorRGBAfNS1_4lessIS3_EENS1_9allocatorINS1_4pairIKS3_S4_EEEEEEEEvRT_17TransferMetaFlags
w2g:_Decimal_ThrowAtPos_m1170269346
$g:_atexit
NZf:_Selectable_set_image_m3625164794
o4e:_InternalEnumerator_1_get_Current_m1232221964_gshared
b3h:_ReadOnlyCollection_1_System_Collections_Generic_IListU3CTU3E_Insert_m1818924748_gshared
XSj:__ZN6il2cpp2vmL31GetObjectForMissingDefaultValueEj
$G:__ZNK26AnimatorOverrideController13GetBehavioursEv
Wyd:_AspectRatioFitter__ctor_m2468506840
Wqd:__ZN16UploadHandlerRawD0Ev
fNb:__ZN13GfxDeviceGLES22UpdateComputeResourcesERK22ComputeShaderResources
Gkd:__ZN11UnityEngine15PlatformWrapper30GetVRPlayAreaBoundaryDimensionEv
QIi:_Array_Sort_TisBoolean_t97287965_TisBoolean_t97287965_m2753381653_gshared
H8i:_X509Certificate_get_Hash_m410033711
Bgc:__ZN9ShaderLab14SerializedPassC2ERKS0_
xNc:__Z35Transfer_Blittable_FixedBufferFieldI9JSONWritehEvRK29SerializationCommandArgumentsR31RuntimeSerializationCommandInfo
l:STACKTOP
bne:__ZL48Random_t635017412_CustomAttributesCacheGeneratorP21CustomAttributesCache
z2c:_cff_get_name_index
_Va:__ZN21EnlightenSceneMapping16BuildRemapTablesEv
wja:__ZN6prcoreL12RemapGenericI13TexFormatRG8817TexFormatARGB8888EEvPKNS_9InnerInfoE
Xaa:__ZN17TransformInternal27UpdateDeepChildCountUpwardsER18TransformHierarchyii
xhg:_Single_System_IConvertible_ToBoolean_m1716619219_AdjustorThunk
eAc:__ZN16StreamedResource8TransferI14SafeBinaryReadEEvRT_
Uje:__ZL52Matrix4x4_t1817901843_CustomAttributesCacheGeneratorP21CustomAttributesCache
DCd:_Image_set_type_m2038193736
A:tempBigIntD
z7b:__ZNK25CameraStackRenderingState25CalculateCameraTargetTypeEv
tId:_PropertyBuilder_GetSetMethod_m128670376
y:tempBigIntR
x:tempBigIntS
w:tempBigIntP
pn:FUNCTION_TABLE_viffi
Aaa:__ZN6Object18RegisterInstanceIDEPS_
sub:__Z18Transfer_BlittableI24GenerateTypeTreeTransferLb1EsEvRK29SerializationCommandArgumentsR31RuntimeSerializationCommandInfo
H7j:__ZN15dense_hashtableINSt3__24pairIK10KeyWrapperIP12Il2CppObjectEN6il2cpp2gc9CachedCCWEEES5_NS7_5utils11PointerHashIS3_EEN14dense_hash_mapIS5_S9_SD_NS5_14EqualsComparerINS0_8equal_toIS4_EEEENS0_9allocatorISA_EEE9SelectKeyESI_SK_E11set_deletedER30dense_hashtable_const_iteratorISA_S5_SD_SM_SI_SK_E
whb:__ZNK9GfxDevice18GetWorldViewMatrixEv
gxi:__Z70RuntimeInvoker_Single_t1397266774_Single_t1397266774_Int32_t2950945753PFvvEPK10MethodInfoPvPS4_
Reg:_X509Certificate_GetPublicKey_m4184729161
Ywc:__ZZL31RegisterOtherRendererPropertiesR22GenericPropertyBindingEN28Wrapper_RendererSortingOrder13SetFloatValueEPvf
$4g:_Convert_ToUInt16_m3902921832
oQe:_Assembly_GetTypes_m1724781913
D2d:__ZL54TypeBuilder_t1073948154_CustomAttributesCacheGeneratorP21CustomAttributesCache
mLh:_UTF7Encoding_GetByteCount_m3616172568
Pzg:_SmallXmlParser_ReadComment_m1578426707
XHh:_List_1_AddEnumerable_m376418521_gshared
Xpi:__Z79RuntimeInvoker_Void_t1185182177_Byte_t1134296376_Byte_t1134296376_RuntimeObjectPFvvEPK10MethodInfoPvPS4_
SGj:__ZNSt3__218__insertion_sort_3IRN6il2cpp5utils11collections13ArrayValueMapIPK10Il2CppType17Il2CppInteropData26InteropDataToTypeConverterNS1_8metadata14Il2CppTypeLessENSA_26Il2CppTypeEqualityComparerEE12SortComparerEPS8_EEvT0_SH_T_
Ahb:__ZNK9GfxDevice25GetDeviceProjectionMatrixEv
Hgc:__ZNSt3__26__treeINS_12__value_typeI11ShaderTagIDS2_EENS_19__map_value_compareIS2_S3_NS_4lessIS2_EELb1EEENS_9allocatorIS3_EEE14__assign_multiINS_21__tree_const_iteratorIS3_PNS_11__tree_nodeIS3_PvEEiEEEEvT_SI_
ma:invoke_iidiii
yub:__Z18Transfer_BlittableI24GenerateTypeTreeTransferLb1EtEvRK29SerializationCommandArgumentsR31RuntimeSerializationCommandInfo
VT:__ZN12AudioManager33GetCurrentAmbisonicDefinitionNameE31UnityAudioEffectDefinitionFlags
sCc:__ZN11UTF16StringC2EPKc10MemLabelId
NBc:__ZN10systeminfo24GetRuntimePlatformStringEv
KWg:_MonoIO_DeleteFile_m3839141322
Zta:__ZN10SpookyHash5ShortEPKvjPyS2_
Jbd:__ZN9Scripting11UnityEngine6Canvas12CleanupProxyEv
i4:__ZN13RuntimeStaticI13ModuleManagerLb0EE13StaticDestroyEPv
cak:__ZN6il2cpp6icalls8mscorlib6System6String22RedirectToCreateStringEv
q2d:__ZL99ILGenerator_t1388622344_CustomAttributesCacheGenerator_ILGenerator_Mono_GetCurrentOffset_m993338688P21CustomAttributesCache
gTf:_LayoutRebuilder_ReapplyDrivenProperties_m2581469389
GCc:__ZN9Scripting20CreateUnityExceptionEPKcz
nCa:__ZN9ShaderLab6TexEnvC2ERKNS_25SerializedTexturePropertyE
WQf:_InputField_Append_m687033660
hxa:__ZN9Transform32SetLocalScaleWithoutNotificationERKN4math7_float3Ey
zLa:__ZN19ShaderPropertySheet38CopyTextureWithAuxiliaryPropertiesFromERKN9ShaderLab16FastPropertyNameERKS_
VYc:__ZN20TextRenderingPrivate19NativeTextGeneratorD2Ev
oLj:__ZN6il2cpp2vm19SocketPollingThread14DequeueRequestEv
M9j:__ZL10RevealLinkPv
e6g:_DateTime__ctor_m12900168_AdjustorThunk
K6b:__ZN27IntermediateRendererManager24AddIntermediateRenderersEP21IntermediateRenderersi
A7f:_ClientSessionCache_FromContext_m343076119
Fi:___cxa_end_catch
leg:_ToBase64Transform_TransformBlock_m2497349397
rog:_NameValueCollection_Add_m2418530856
eXd:_ReturnMessage_get_MethodSignature_m399735125
$dd:__Z43Register_UnityEngine_Canvas_set_scaleFactorv
wnh:_SortKeyBuffer_AppendLevel5_m3963841125
ufj:_PositionAssertion_Compile_m2500980346
EIg:_ArrayListWrapper_ToArray_m3192696690
u_c:_raccess_guess_linux_cap
qU:__Z36AudioSource_Get_Custom_PropIsPlayingP12Il2CppObject
oIc:__ZL48__ManagedRegistrationHelperFunction_StylePainterPv
RDg:_Attribute_GetCustomAttribute_m4034845276
Y4:__Z33InitializeBuiltinShaderParamNamesv
OQh:_Type_GetConstructor_m2219014380
yAd:_CanvasUpdateRegistry_SortLayoutList_m471948466
Hsa:__ZNK16TypeTreeIterator4TypeEv
NUb:__ZN10FileSystem25MountDataFolderFileSystemERKN4core12basic_stringIcNS0_20StringStorageDefaultIcEEEES6_
Txg:_ArgumentOutOfRangeException__ctor_m282481429
Thj:_GUILayoutUtility_Internal_MoveWindow_m3463958180
oj:_glGetUniformLocation
aMb:__ZN13GfxDeviceGLES32CreateColorRenderSurfacePlatformEP17RenderSurfaceBase19RenderTextureFormat
OXb:__ZN22RenderingCommandBuffer20ExecuteCommandBufferER17ShaderPassContextR15RenderNodeQueuejP13dynamic_arrayINSt3__24pairIN9ShaderLab16FastPropertyNameEP13RenderTextureEELj0EE16ComputeQueueTypeSA_
KS:__ZN12AudioManager24CreateFMODSoundFromMovieEP9AudioClip
F5f:_CipherSuite_createEncryptionCipher_m2533565116
vVc:__ZN19ControllerHitReport10onShapeHitERKN5physx20PxControllerShapeHitE
KIj:__ZN6il2cpp2vm13MetadataCache24GetGenericInstanceMethodEPK10MethodInfoPK20Il2CppGenericContext
Qfk:_GC_hblk_fl_from_blocks
bMd:_MonoField_GetParentType_m2478933781
Q9:__Z24ConvertSeparatorsToUnityPc
nSj:__ZN6il2cpp2gc19AppendOnlyGCHashMapINSt3__24pairIPK9EventInfoP11Il2CppClassEEP21Il2CppReflectionEvent17ReflectionMapHashIS9_ENS2_8equal_toIS9_EEE3AddERKS9_SB_
$Zi:_Collection_1_System_Collections_ICollection_CopyTo_m46221116_gshared
OYj:__ZN6il2cpp2vm6Thread20FreeThreadStaticDataEP12Il2CppThread
pih:_Array_InternalArray__IndexOf_TisClientCertificateType_t1004704908_m3457772631_gshared
wdi:__Z28RuntimeInvoker_RuntimeObjectPFvvEPK10MethodInfoPvPS4_
P0c:_cf2_glyphpath_finalize
G8d:__ZL56SecurityAction_t569814076_CustomAttributesCacheGeneratorP21CustomAttributesCache
_Yb:__Z20LookRotationToMatrixRK8Vector3fS1_P10Matrix3x3f
gIg:_ArrayListWrapper_set_Capacity_m2373297383
pQf:_Text_get_cachedTextGenerator_m2506989875
MDh:_Enumerator_System_Collections_IEnumerator_Reset_m502339360_AdjustorThunk
m0d:__ZL58DictionaryEntry_t3123975638_CustomAttributesCacheGeneratorP21CustomAttributesCache
Iwj:_TextGenerator_GetVerticesInternal_m3222977969
CTi:_List_1_RemoveAt_m4279084788_gshared
z_c:_UNITY_FT_Stream_Free
a$j:__ZN15dense_hashtableINSt3__24pairIK10KeyWrapperINS1_IP11Il2CppClassjEEES4_EES6_N6il2cpp8metadata14ArrayClassHashEN14dense_hash_mapIS6_S4_SB_NS6_14EqualsComparerINSA_17ArrayClassCompareEEENS0_9allocatorIS8_EEE9SelectKeyESF_SH_E12maybe_shrinkEv
pMc:__ZNK5Unity9rapidjson12GenericValueINS0_4UTF8IcEE13JSONAllocatorE6AcceptINS0_12PrettyWriterI16TempBufferWriterS3_S3_S4_EEEEbRT_
rqf:_CryptoConfig_EncodeLongNumber_m4127306320
awi:__Z87RuntimeInvoker_Void_t1185182177_Single_t1397266774_Single_t1397266774_SByte_t1669577662PFvvEPK10MethodInfoPvPS4_
jze:__ZL63AnalyticsSessionInfo_t2322308579_CustomAttributesCacheGeneratorP21CustomAttributesCache
Erd:__ZL47__ManagedRegistrationHelperFunction_VideoPlayerPv
dY:__ZN11UnityEngine15CloudWebService14DataDispatcher25OnDataBlockConsumedStaticEPv
BSi:_List_1_CheckIndex_m3044940639_gshared
ZNf:_GenericStack__ctor_m933681517
LAb:__Z29Transfer_Blittable_ArrayFieldI18StreamedBinaryReadILb1EE11QuaternionfEvRT_R9ArrayInfoRK23StaticTransferFieldInfo
RKe:_Math_Max_m482125436
Z_g:_SortedList_InitTable_m875730861
dRd:_ActivatedServiceTypeEntry_ToString_m1591455874
igg:_SecurityElement_ToXml_m3664345083
eGi:_Array_InternalArray__Insert_TisParameterModifier_t1461694466_m3664994573_gshared
_wh:_DefaultComparer_Equals_m1870794912_gshared
gfc:__Z14resize_trimmedINSt3__26vectorIN9ShaderLab20SerializedSubProgram16SamplerParameterENS0_9allocatorIS4_EEEEEvRT_j
ZZf:_Shadow_set_effectColor_m3910676693
Aqk:__ZNSt3__212basic_stringIcNS_11char_traitsIcEENS_9allocatorIcEEE6insertEjPKcj
qNc:__Z44InitializeTransferFunctionScriptingTraitsForI8JSONReadEvR31TransferFunctionScriptingTraits
PJb:__ZNSt3__27__sort4IRNS_4lessIN22BuiltinResourceManager8ResourceEEEPS3_EEjT0_S7_S7_S7_T_
Ing:_ListDictionary_Add_m3918308031
w7j:__ZNK15dense_hashtableINSt3__24pairIK10KeyWrapperIP12Il2CppObjectEN6il2cpp2gc9CachedCCWEEES5_NS7_5utils11PointerHashIS3_EEN14dense_hash_mapIS5_S9_SD_NS5_14EqualsComparerINS0_8equal_toIS4_EEEENS0_9allocatorISA_EEE9SelectKeyESI_SK_E23find_position_with_hashERS6_j
YPf:_Selectable_OnDisable_m3225138518
P5a:__ZN17PersistentManager34ExtractTimeSliceAwakeFromLoadQueueER27TimeSliceAwakeFromLoadQueueNS_9LockFlagsE
N7c:_UNITY_tt_face_get_location
Kkj:_AesManaged_CreateEncryptor_m1611897367
nYg:_DelegatePInvokeWrapper_WriteDelegate_t4270993571
X8b:__ZN10GameObject34AddFirstTransformComponentInternalEP9Transform
Kmc:__Z31Cursor_Get_Custom_PropLockStatev
V2:__ZNSt3__26__treeINS_12__value_typeINS_4pairIPcS3_EENS_3setIS3_15compare_tstringIPKcENS_9allocatorIS3_EEEEEENS_19__map_value_compareIS4_SD_20smaller_tstring_pairIS8_ELb1EEENSA_ISD_EEE7destroyEPNS_11__tree_nodeISD_PvEE
yR:__ZN12AudioManager29GetCurrentAmbisonicDefinitionE31UnityAudioEffectDefinitionFlags
Gnc:__Z52Register_UnityEngine_GameObject_GetComponentInParentv
uoa:__ZN9Scripting11UnityEngine16ScriptableObject12CleanupProxyEv
A3a:__ZN15SerializeTraitsINSt3__24pairIPKN5Unity4TypeE7Hash128EEE8TransferI14SafeBinaryReadEEvRS7_RT_
lfk:_GC_number_stack_black_listed
U9g:_Decimal_ToString_m4018746482_AdjustorThunk
V5b:__Z37GenerateCombinedDynamicVisibleListJobP11CullResults
UYa:__ZNK13ScreenManager21GetCursorInsideWindowEv
DRe:_CustomAttributeData_GetCustomAttributes_m1033457578
OQd:_SafeHandle_DangerousAddRef_m614714386
D2b:__Z20IntersectAABBFrustumRK4AABBPK5Planej
RYf:_ScrollRect_OnDrag_m688583138
Ptc:__ZN13RenderManager15InitializeClassEv
Voi:__Z74RuntimeInvoker_RuntimeObject_RuntimeObject_Double_t594665363_RuntimeObjectPFvvEPK10MethodInfoPvPS4_
grb:__ZN15SerializeTraitsI12PropertyNameE8TransferI14SafeBinaryReadEEvRS0_RT_
RYh:_ReadOnlyCollection_1_System_Collections_IList_IndexOf_m3120991897_gshared
AVd:_Header__ctor_m1921907550
T_f:_Slider_FindSelectableOnUp_m4062600878
OKe:_Math_Ceiling_m625148210
vtc:__ZZN9Transform15InitializeClassEvEN31FunctorImpl_114kDidAddComponent4CallEPviR11MessageData
yPc:__ZN9JSONWrite8TransferI11ColorRGBA32EEvRT_PKc17TransferMetaFlags
eSc:__Z22TransferField_NonArrayI8JSONRead27Converter_SimpleNativeClassI8GradientEEvRK23StaticTransferFieldInfoR31RuntimeSerializationCommandInfoRT0_
gEb:__ZN10MonoScript13AwakeFromLoadE17AwakeFromLoadMode
$wg:_Interval__ctor_m4022869013
KEg:_Boolean_System_IConvertible_ToUInt16_m3465173538
dVb:__ZN10MemoryFile21CreateFileSystemEntryE10MemLabelId14FilePermissionPvjb
NSb:__ZNK18GfxFramebufferGLES15DiscardContentsER12ObjectHandleI17RenderSurface_TagP17RenderSurfaceBaseE
j2f:_ARC4Managed_KeySetup_m2449315676
CPc:__ZN9JSONWrite8TransferI13dynamic_arrayI5RectTIiELj0EEEEvRT_PKc17TransferMetaFlags
FJj:__ZN6il2cpp2vm13MetadataCache27GetEventDefinitionFromIndexEi
U0h:_ReadOnlyCollection_1_System_Collections_IEnumerable_GetEnumerator_m2762559519_gshared
ila:__ZL63__ManagedRegistrationHelperFunction_ScriptableCullingParametersPv
A5g:_Convert_ToUInt64_m92315402
EOc:__Z18Transfer_BlittableI9JSONWriteLb1EdEvRK29SerializationCommandArgumentsR31RuntimeSerializationCommandInfo
Gxk:_glGetIntegerv__wrapper
cmg:_EncoderExceptionFallback__ctor_m3745979420
H:Math_pow
rta:__ZN10GameObject28FinalizeAddComponentInternalEPN5Unity9ComponentE
nDe:__ZL57Image_t2670269651_CustomAttributesCacheGenerator_m_SpriteP21CustomAttributesCache
OSa:__ZN9Texture2DD2Ev
$oj:_AudioExtensionManager_GetReadyToPlay_m1557263244
J4g:_Convert_ToSingle_m164367433
$Li:_Array_InternalArray__get_Item_TisILTokenInfo_t2325775114_m3110830457_gshared
I2g:_Convert_ToDecimal_m1284410333
A7g:_DateTime_CheckStyle_m1392838900
Rzg:_SmallXmlParser_ReadUntil_m2715581630
Qng:_NameObjectCollectionBase__ctor_m2090733912
Svg:_Group__cctor_m2230627219
lna:__ZN9Scripting11UnityEngine15SendMouseEvents9InitProxyEv
Edh:_Array_InternalArray__ICollection_Contains_TisDouble_t594665363_m1696010878_gshared
h0f:_BigInteger__cctor_m102257529
Eda:__ZN27IntermediateRendererManagerD2Ev
V7a:__ZN17PersistentManager27GetLoadErrorMessageFromPathERKN4core12basic_stringIcNS0_20StringStorageDefaultIcEEEE
y7i:_NetscapeCertTypeExtension_ToString_m1800688476
dm:_glGenRenderbuffers
m0j:__ZN6il2cpp6icalls8mscorlib6System2IO6MonoIO19GetCurrentDirectoryEPi
nJf:_Renderer_get_sortingOrder_m344607889
t3b:__Z21IntersectSegmentPlaneRK8Vector3fS1_RK5PlanePS_
nra:__ZN9Scripting11UnityEngine24AssemblyIsEditorAssembly9InitProxyEv
zHe:__ZL50Outline_t2536100125_CustomAttributesCacheGeneratorP21CustomAttributesCache
GDe:__ZL75InputField_t3762917431_CustomAttributesCacheGenerator_m_CharacterValidationP21CustomAttributesCache
ygj:_Uri_get_IsFile_m2450018824
$ba:__ZN14CachingManager7DisposeEv
hqa:__ZN9Scripting11UnityEngine8EnumInfo9InitProxyEv
dR:__ZN12AudioManager31GetCurrentSpatializerDefinitionEv
nng:_HybridDictionary_Add_m912320053
bDf:_MonoBehaviour_Invoke_m4227543964
L_a:__ZN12MeshRenderer16UpdateCachedMeshEv
Ujj:_KeyBuilder_IV_m3340234014
Lqb:__Z19TransferField_ArrayI14SafeBinaryRead27Converter_SimpleNativeClassI8GradientEEvRK23StaticTransferFieldInfoR31RuntimeSerializationCommandInfoRT0_
nwh:_DefaultComparer_Equals_m1163494476_gshared
c4i:_RIPEMD160Managed_GG_m3020389474
yeh:_Array_InternalArray__ICollection_Remove_TisDictionaryEntry_t3123975638_m3699186409_gshared
xPe:_Object_Equals_m1397037629
lB:__ZNK27StateMachineBehaviourPlayer25FireStateMachineBehaviourEiiN7mecanim12statemachine19StateMachineMessageE
$tf:_AsyncOperation_t1445031843_marshal_pinvoke_back
Ck:_emscripten_glGenVertexArrays
fHf:_Rect_get_center_m138276653
w8b:__ZN6Camera15SetOrthographicEb
q2c:_UNITY_FT_Stream_GetUShort
wLb:__ZN13GfxDeviceGLES14DisableScissorEv
nZc:__ZNSt3__26vectorIN20TextRenderingPrivate8FontImpl7IntRectE13stl_allocatorIS3_L18MemLabelIdentifier35ELi16EEE21__push_back_slow_pathIRKS3_EEvOT_
Juf:_Bounds_get_size_m1178783246_AdjustorThunk
Wii:__Z64RuntimeInvoker_Double_t594665363_RuntimeObject_Int32_t2950945753PFvvEPK10MethodInfoPvPS4_
j_e:_InternalEnumerator_1_System_Collections_IEnumerator_get_Current_m2141782011_AdjustorThunk
E9g:_Decimal_decimalMult_m3812462972
bag:_RecordProtocol_BeginSendRecord_m615249746
zc:_glVertexAttrib4f
zGh:_Enumerator_System_Collections_IEnumerator_get_Current_m209407522_AdjustorThunk
Cxf:_Display_get_systemHeight_m730809466
GIh:_List_1_System_Collections_IList_Insert_m4074493513_gshared
xCf:_Mesh_get_vertices_m3585684815
Whd:__ZN21UnityAnalyticsManagerD0Ev
ugj:_Uri_GetOpaqueWiseSchemeDelimiter_m1909471550
Pgk:_GC_set_hdr_marks
gDa:__Z17SetupObjectMatrixRK10Matrix4x4fi
guh:_Dictionary_2_OnDeserialization_m1254782141_gshared
Y2:__ZN13RuntimeStaticINSt3__23mapINS0_4pairIPcS3_EEPFbPvR14SafeBinaryReadE20smaller_tstring_pairIPKcENS0_9allocatorINS2_IKS4_S9_EEEEEELb0EE13StaticDestroyES5_
qXg:_FileStream_FlushBufferIfDirty_m4249802951
V7e:_DefaultComparer_Compare_m1916473435_gshared
tw:__ZN7mecanim9animation16CreateClipMemoryEPKNS0_4ClipEiRNS_6memory9AllocatorE
WZc:_open_face
H4a:__ZN30RuntimeInitializeOnLoadManager15ClassMethodInfo8TransferI19StreamedBinaryWriteILb0EEEEvRT_
Wwc:__ZZL31RegisterOtherRendererPropertiesR22GenericPropertyBindingEN30Wrapper_RendererReceiveShadows13SetFloatValueEPvf
Igd:__ZN2UI13PrepareOutputER9GfxDeviceRNS_7BatchesEjjNS_30AdditionalCanvasShaderChannelsE
uhd:__Z17RegisterModule_UIv
CLe:_MonoCustomAttrs_GetCustomAttributes_m1347331976
WCf:_Mesh_Clear_m2630385472
$ei:__Z46RuntimeInvoker_RuntimeObject_Int16_t2552820387PFvvEPK10MethodInfoPvPS4_
kUd:_SynchronizationAttribute_set_Locked_m2760363037
jSg:_Int16_Equals_m82811458
E3f:_PrivateKeyInfo_Decode_m986145117
hIf:_RectOffset_get_top_m2855347295
EN:__ZN4FMOD5Sound11setUserDataEPv
oec:__ZN14SafeBinaryRead21TransferSTLStyleArrayINSt3__26vectorIN9ShaderLab19SerializedSubShaderENS1_9allocatorIS4_EEEEEEvRT_17TransferMetaFlags
wvd:_ExecuteEvents_Execute_m533210008
nii:__Z137RuntimeInvoker_Void_t1185182177_Int32_t2950945753_RuntimeObject_RuntimeObject_RuntimeObject_RuntimeObject_RuntimeObject_SByte_t1669577662PFvvEPK10MethodInfoPvPS4_
ARg:_Guid_op_Equality_m4289903222
fz:__ZN27AnimationLayerMixerPlayable13SetInputCountEi
Gfb:__ZNK25SingleBlockMemoryFileData4SizeEv
A1g:_DateTime__ParseAmPm_m3478436123
Amd:__ZN11UnityEngine7Connect20RemoteConfigSettings19ConfigChangedStaticEPS1_RKN4core12basic_stringIcNS3_20StringStorageDefaultIcEEEER8JSONReadb
NO:__ZL50UnityAudioEffect_InternalSetFloatParameterCallbackP14FMOD_DSP_STATEif
d7j:__ZNK15dense_hashtableINSt3__24pairIK10KeyWrapperIP12Il2CppObjectEN6il2cpp2gc9CachedCCWEEES5_NS7_5utils11PointerHashIS3_EEN14dense_hash_mapIS5_S9_SD_NS5_14EqualsComparerINS0_8equal_toIS4_EEEENS0_9allocatorISA_EEE9SelectKeyESI_SK_E3endEv
N6g:_DateTime_System_IConvertible_ToUInt32_m3781235049
R1:__ZN17LowLevelAllocator4FreeEPvj
OFi:__Z77RuntimeInvoker_RuntimeObject_UIVertex_t4057497605_RuntimeObject_RuntimeObjectPFvvEPK10MethodInfoPvPS4_
mfi:__Z92RuntimeInvoker_Int32_t2950945753_RuntimeObject_RuntimeObject_SByte_t1669577662_RuntimeObjectPFvvEPK10MethodInfoPvPS4_
fUg:_Int64_System_IConvertible_ToType_m3223988955
I4b:__ZN14qsort_internal5QSortIP16RenderObjectDatai25RenderPrePassObjectSorterEEvT_S4_T0_T1_
Pdg:_SymmetricAlgorithm_Dispose_m1120980942
Iba:__ZL19StaticCleanupPlayerPv
DLe:_MonoCustomAttrs_RetrieveAttributeUsage_m2717094301
Mzc:__ZN13PlayableGraph4StopEv
rtf:_AnimationCurve_Init_m425927913
MP:__ZN12AudioManager37RebindAudioSourcesAndSubMixersToMixerEP10AudioMixer
ksa:__ZN9Behaviour10DeactivateE19DeactivateOperation
NSf:_LayoutGroup_DelayedSetDirty_m2562435574
RPa:__ZN13StreamingInfo8TransferI14SafeBinaryReadEEvRT_
Nec:__ZN15dense_hashtableINSt3__24pairIKiN4core17string_with_labelILi1EEEEEi18SInt32HashFunctionN14dense_hash_mapIiS5_S7_NS0_8equal_toIiEE13stl_allocatorIS6_L18MemLabelIdentifier1ELi16EEE9SelectKeyESA_SD_E15insert_noresizeERKS6_
r8j:__ZN6il2cpp2vmL22RaiseOverflowExceptionEv
Qp:__Z23CalculateGlobalRotation23TransformAccessReadOnly
nFa:__ZN16GraphicsSettings28SetLightsUseColorTemperatureEb
aMa:__ZNK9ShaderLab7Program11IsSupportedEPK6Shader
vJd:_TypeBuilder_GetMethodImpl_m3583143647
DGe:__ZL54LayoutGroup_t2436138090_CustomAttributesCacheGeneratorP21CustomAttributesCache
Kpk:_strcat
bBc:__Z18TransformPoints3x4RK10Matrix4x4fPK8Vector3fjPS2_ji
Paa:__ZL26DestroyGameObjectRecursiveR10GameObjectR11BatchDelete
ehk:_GC_allochblk_nth
std:_BaseInput_get_touchSupported_m2634027966
XYf:_ScrollRect_get_vScrollingNeeded_m1717136831
jkj:_SymmetricTransform_FinalEncrypt_m748885414
_vc:__Z7HaloTexP9Texture2DPhiiii
puk:dynCall_i
Dmk:__ZNK6il2cpp8metadata23Il2CppGenericMethodHashclEPK19Il2CppGenericMethod
VV:__ZN17AudioCustomFilter4InitEv
Etk:dynCall_f
Fng:_ListDictionary_GetEnumerator_m3395631195
Zub:__Z35Transfer_Blittable_FixedBufferFieldI24GenerateTypeTreeTransferjEvRK29SerializationCommandArgumentsR31RuntimeSerializationCommandInfo
wIa:__ZN8Playable13SetInputCountEi
UJj:__ZNK15dense_hashtableINSt3__24pairIK10KeyWrapperIP9FieldInfoEiEES5_N6il2cpp5utils11PointerHashIS3_EEN14dense_hash_mapIS5_iSB_NS5_14EqualsComparerINS0_8equal_toIS4_EEEENS0_9allocatorIS7_EEE9SelectKeyESG_SI_E13find_positionERS6_
Vsk:dynCall_v
Jka:__ZL52__ManagedRegistrationHelperFunction_DiagnosticSwitchPv
CRb:__ZN7ApiGLES14TextureSamplerEjjRK24GfxTextureSamplingParams17TextureColorSpace
b$g:_SortedList_System_Collections_IEnumerable_GetEnumerator_m2738760439
fZj:__ZN6il2cpp2vm6Thread8SetStateEP12Il2CppThreadNS0_11ThreadStateE
Aya:__ZN6Camera23VirtualRedirectTransferER14SafeBinaryRead
Htf:_Application_get_isEditor_m857789090
mmd:__ZN11UnityEngine7Connect13ConnectConfig11ConfigValueD2Ev
dSb:__ZNSt3__26__treeINS_12__value_typeIjP14DataBufferGLESEENS_19__map_value_compareIjS4_NS_4lessIjEELb1EEENS_9allocatorIS4_EEE7destroyEPNS_11__tree_nodeIS4_PvEE
una:__ZN9Scripting11UnityEngine9Rendering20SphericalHarmonicsL212CleanupProxyEv
Tzc:__ZN13PlayableGraph15SetPrepareStageE13DirectorStage
vb:invoke_viiiiiiii
MRg:_Int16_System_IConvertible_ToDateTime_m3080274979_AdjustorThunk
lZi:_Collection_1_ConvertItem_m1760499239_gshared
hSb:__ZN18GfxFramebufferGLES24UpdateDefaultFramebufferEP17RenderSurfaceBaseS1_N2gl6HandleILNS2_10ObjectTypeE9EEE
pxe:__ZL66GUIUtility_t1868551600_CustomAttributesCacheGenerator_s_OriginalIDP21CustomAttributesCache
Hs:__ZL67__ManagedRegistrationHelperFunction_SharedBetweenAnimatorsAttributePv
Rxa:__ZNK6Camera16GetCullingMatrixEv
r4i:_SslHandshakeHash__ctor_m4169387017
uHj:__ZN15dense_hashtableINSt3__24pairIK10KeyWrapperIN6il2cpp5utils13dynamic_arrayIPK10Il2CppTypeLj4EEEEPFvvEEESA_NS3_8metadata19Il2CppSignatureHashEN14dense_hash_mapISA_SD_SG_NSA_14EqualsComparerINSF_22Il2CppSignatureCompareEEENS0_9allocatorISE_EEE9SelectKeyESK_SM_E9copy_fromERKSP_j
fzj:_Animator_ResetTrigger_m2321267720
HVa:__ZN16LightmapSettings5ResetEv
hUa:__ZN12FileAccessor4ReadEyPvPy
aEf:__ZN23InterfaceActionInvoker3I6Guid_tP22ByteU5BU5D_t4116647657iE6InvokeEjP11Il2CppClassP12Il2CppObjectS0_S2_i
cfi:__Z67RuntimeInvoker_Void_t1185182177_Int16_t2552820387_Int32_t2950945753PFvvEPK10MethodInfoPvPS4_
tJc:__Z42Register_UnityEngine_Event_get_commandNamev
MWb:__Z12IsFirstFramev
r3i:_Collection_1_IsValidItem_m714924194_gshared
qMc:__ZN5Unity9rapidjson12PrettyWriterI16TempBufferWriterNS0_4UTF8IcEES4_13JSONAllocatorE12PrettyPrefixENS0_4TypeE
dH:__ZNK26AnimatorOverrideController27GetAnimationClipsToRegisterEv
y7:__ZN8TypeTreeC2E10MemLabelId
vaa:__ZNK15FileSystemEntry6ExistsEv
M0a:__ZNK9Transform21GetLocalToWorldMatrixER10Matrix4x4f
JLf:_Transform_INTERNAL_get_rotation_m2413441996
ojd:__GLOBAL__sub_I_artifacts_WebGL_codegenerator_0_cpp_6810
tyd:_TouchInputModule_IsModuleSupported_m384818291
B6:__ZN17PersistentManager18ReadObjectThreadedEiNS_9LockFlagsE
D7g:_DateTime_ToString_m884486936
S2f:_MD4Managed_HashCore_m3384203071
bT:__ZN13AudioListener23VirtualRedirectTransferER19StreamedBinaryWriteILb0EE
J6f:_ClientRecordProtocol_createClientHandshakeMessage_m3325677558
gje:__ZL103Component_t1923634451_CustomAttributesCacheGenerator_Component_GetComponentsForListInternal_m1419905927P21CustomAttributesCache
oMb:__ZN13GfxDeviceGLES11CopyTextureE9TextureIDS0_
p$g:_SortedList_get_Capacity_m919184864
Svh:_Dictionary_2_ContainsKey_m2278349286_gshared
Qwk:_emscripten_glViewport__wrapper
g_:__ZN11UnityEngine15CloudWebService23WebRequestUploadHandler13GetUploadDataERj
nwf:_Color32_ToString_m403383053_AdjustorThunk
Djg:_String_IndexOfOrdinalUnchecked_m460601827
x6a:__ZN13dynamic_arrayI28EnlightenRendererInformationLj0EE6insertEPS0_PKS0_S4_
lxj:_Canvas_get_sortingOrder_m1860900812
ySd:_ConfigHandler_ReadChannel_m781299361
lHf:_Rect_get_max_m350137314
K5b:__Z59ProcessShadowCasterNodeVisibilityAndCullWithoutUmbra_KernelILN17CullingParameters9LayerCullE1ELi8EEvR9IndexListRK22SceneCullingParametersPK9SceneNodePK4AABBjjPKN4math7_float4E
Iqi:__Z99RuntimeInvoker_Void_t1185182177_Int32_t2950945753_Int32_t2950945753_SByte_t1669577662_RuntimeObjectPFvvEPK10MethodInfoPvPS4_
M6c:_tt_size_select
CUd:_InternalRemotingServices_GetCachedSoapAttribute_m1042302982
vY:__ZN11UnityEngine15CloudWebService17SessionEventQueue15RestoreFromFileER12FileAccessorPvy
ISe:_ConstructorBuilder_GetILGenerator_m1421260830
_1a:__ZN14PlayerSettingsD2Ev
yUf:_RectMask2D_RemoveClippable_m773604960
nrg:_AsnEncodedData_SubjectAltName_m4049949414
n4g:_Convert_ToSByte_m1350241137
U$a:__ZN13dynamic_arrayI16BlendShapeVertexLj0EE18resize_initializedEj12ResizePolicy
uea:__ZN13PlayableGraph14DestroyOutputsEv
oYi:_Enumerator_System_Collections_IEnumerator_get_Current_m3895111131_gshared
jf:___syscall122
Q2g:_Convert_ToDecimal_m2858622624
HPe:_OperatingSystem__ctor_m1545635730
JRi:_List_1_RemoveAll_m2406195485_gshared
aW:__ZN9AudioClip16EnableLegacyModeEv
KTd:_Context_DoCallBack_m749197451
Rxj:_CanvasRenderer_set_materialCount_m4286588063
rpk:_mkdir
mWc:__ZN9Scripting11UnityEngine7Physics12CleanupProxyEv
Rnj:_VerticalLayoutGroup_SetLayoutHorizontal_m84550911
opg:_HttpWebRequest_get_ServicePoint_m3916606901
Ojk:__GLOBAL__sub_I_MemoryMappedFile_cpp
VFh:_Enumerator_MoveNext_m29052175_AdjustorThunk
i_f:_Slider_UpdateVisuals_m3662961057
DCc:__ZN18ScriptingArguments13CopyFromOtherERKS_
Gxg:_PKCS12_ReadSafeBag_m1585166574
S8c:_ps_hints_close
Axc:__Z16CreateRenderLoopR6Camera
yFb:__ZN32SerializationCommandQueueBuilder3AddERK20SerializationCommand
$1:_tlsf_create
y1h:_ReadOnlyCollection_1_System_Collections_IEnumerable_GetEnumerator_m2505713430_gshared
X4a:__ZN14SafeBinaryRead21TransferSTLStyleArrayINSt3__26vectorIN15ResourceManager10DependencyE13stl_allocatorIS4_L18MemLabelIdentifier52ELi16EEEEEEvRT_17TransferMetaFlags
HEb:__ZN13MonoBehaviour23VirtualRedirectTransferER18StreamedBinaryReadILb0EE
hgc:__ZN9ShaderLab20SerializedSubProgramC2ERKS0_
CZa:__ZN9Texture3D17UploadToGfxDeviceEv
ILi:_Array_InternalArray__get_Item_TisKeyValuePair_2_t71524366_m252172060_gshared
srk:__ZNK10__cxxabiv121__vmi_class_type_info27has_unambiguous_public_baseEPNS_19__dynamic_cast_infoEPvi
pNe:_MulticastDelegate_CombineImpl_m2857239134
TUh:_Version_op_Inequality_m1696193441
IQd:_Marshal_ReadByte_m1960935664
xTa:__ZN15QualitySettings23VirtualRedirectTransferER19StreamedBinaryWriteILb0EE
wIg:_ArrayListWrapper_CopyTo_m3756520478
qPd:_ResourceInfo_t2872965302_marshal_pinvoke
pAa:__ZN16RenderTextureMap5QueryEPK17RenderSurfaceBase
vka:__ZL42__ManagedRegistrationHelperFunction_CameraPv
Huc:__ZN8Material12CleanupClassEv
hxc:__ZN8Material8GetFloatEN9ShaderLab16FastPropertyNameE
OCc:__Z10IsInvokingR13MonoBehaviourPKc
Orf:_HashAlgorithm_TransformBlock_m4006041779
yJc:__Z11GetGUIStatev
jg:_glGetActiveUniform
Aih:_Array_InternalArray__IndexOf_TisSlot_t3975888750_m4250446283_gshared
NEc:__Z57Register_UnityEngine_MonoBehaviour_StartCoroutineManaged2v
YU:__Z13RegisterClassI9AudioClipEvPKc
RUg:_IntPtr__ctor_m620280096_AdjustorThunk
qg:_emscripten_glGetObjectParameterivARB
Kej:_CharacterClass_AddCharacter_m2370152363
Oya:__ZN15SerializeTraitsI10ColorRGBAfE8TransferI14SafeBinaryReadEEvRS0_RT_
WXh:_Collection_1_IsValidItem_m2333176545_gshared
Kba:__ZN22BuiltinResourceManager13StaticDestroyEPv
gna:__ZN9Scripting11UnityEngine25SerializePrivateVariables12CleanupProxyEv
Faa:__ZN10GameObject17GetComponentIndexEPN5Unity9ComponentE
gHi:_Array_InternalArray__set_Item_TisILTokenInfo_t2325775114_m309595583_gshared
zO:__ZN29AudioEffectInternalDefinition9CreateDSPEPN4FMOD6SystemEPvPfP23UnityAudioAmbisonicDataPP25UnityAudioSpatializerData
y8c:_UNITY_tt_face_vary_cvt
Cnh:_SimpleCollator_ClearBuffer_m2975394169
ehj:_Event_Internal_GetMousePosition_m1101229675
wac:__ZN35RegisterRuntimeInitializeAndCleanup22ExecuteInitializationsEv
FZe:_InternalEnumerator_1_System_Collections_IEnumerator_get_Current_m3575233890_gshared
Beg:_TripleDESCryptoServiceProvider_CreateEncryptor_m450924958
dgj:_UriParser_GetParser_m544052729
SQf:_Text_get_font_m2857203289
rK:__ZN23PreloadManagerOperation14SetFinalTimingEffff
zz:__ZN7mecanim13ValueArrayAddILb0EEEvPKNS_10ValueArrayES3_PKNS_14ValueArrayMaskEfbPS1_PS4_
OVe:_MethodBuilder_fixup_m1765890582
Wmf:_ObjectReader_ReadSimpleArray_m428957657
D3a:__ZN13BuildSettings8TransferI18StreamedBinaryReadILb0EEEEvRT_
iLe:_MissingFieldException__ctor_m4282575076
y9g:_Decimal_Equals_m2592017260
VSd:_ConfigHandler_OnEndParsing_m3764034673
_kf:_RemotingConfiguration_RegisterTypes_m2378540395
$Gc:__Z38Renderer_Get_Custom_PropSortingLayerIDP12Il2CppObject
wHg:_ArrayList_get_Capacity_m431818936
v2e:_InternalEnumerator_1_System_Collections_IEnumerator_get_Current_m767948013_gshared
N0e:_InternalEnumerator_1_System_Collections_IEnumerator_get_Current_m435848551_gshared
Dtf:_UnityAction_Invoke_m893829196
Cba:__ZNK11TypeManager23FindAllRTTIDerivedTypesEPK4RTTIR13dynamic_arrayIS2_Lj0EEb
Ds:__ZL58__ManagedRegistrationHelperFunction_AnimatorTransitionInfoPv
c3a:__ZN14AsyncOperationD0Ev
kPb:__Z29TextureIdMapGLES_QueryOrAlloc9TextureID
MRj:__ZN15dense_hashtableINSt3__24pairIK10KeyWrapperINS1_IPK12PropertyInfoP11Il2CppClassEEEjEES9_17ReflectionMapHashIS8_EN14dense_hash_mapIS9_jSD_NS9_14EqualsComparerINS0_8equal_toIS8_EEEENS0_9allocatorISB_EEE9SelectKeyESI_SK_E12resize_deltaEjj
Uvf:_Color_GetHashCode_m1829208463
DHb:__ZN13ScreenManager18SetAllowCursorLockEb25DisallowCursorLockReasons
BCc:__Z25scripting_raise_exception21ScriptingExceptionPtr
yRf:_Text_get_cachedTextGeneratorForLayout_m116487342
Jzj:__ZL11decimalLog2P19il2cpp_decimal_repr
c5a:__ZN15ResourceManager10Dependency8TransferI14SafeBinaryReadEEvRT_
B1i:_Collection_1_System_Collections_IList_Remove_m3800279569_gshared
wfk:_GC_extend_size_map
WUe:_GenericTypeParameterBuilder_GetCustomAttributes_m386082976
m$f:_Text_FontTextureChanged_m495427969
tOe:_NumberFormatter_RoundDecimal_m2957290908
bP:__ZN4FMOD6System9setDriverEi
c7b:__ZNK9Transform11GetRotationEv
Xxk:_emscripten_glGetIntegerv__wrapper
mkh:_Array_InternalArray__ICollection_Add_TisSingle_t1397266774_m1873979703_gshared
_ub:__Z18Transfer_BlittableI24GenerateTypeTreeTransferLb0EyEvRK29SerializationCommandArgumentsR31RuntimeSerializationCommandInfo
dMa:__ZN8Material14CreateMaterialER6ShaderN6Object9HideFlagsEb
JOh:_TimeSpan_get_Minutes_m4278980001_AdjustorThunk
pxj:_Canvas_set_sortingLayerID_m861680532
C5c:_tt_cmap12_char_map_binary
vhj:_GUI__cctor_m3051457990
kT:__ZN12AudioManager19RemoveAudioListenerEP13AudioListener
vCa:__Z25GetBuiltinResourceManagerv
C6j:__ZN6il2cpp2gc8GCHandle15GetTargetHandleEP12Il2CppObjectii
PSg:_Int32_System_IConvertible_ToByte_m3832391412
Ih:_llvm_trap
c5:__ZNSt3__27__sort5IRNS_6__lessIN12_GLOBAL__N_114ParamNameIndexES3_EEPS3_EEjT0_S7_S7_S7_S7_T_
Z8i:_X509Certificate_VerifySignature_m3988463526
E8f:_TlsClientCertificate_get_ClientCertificate_m1637836254
Tfk:_get_index
ew:__ZN21AnimationClipPlayable29CollectAnimationClipPlayablesER13dynamic_arrayIPS_Lj0EE
ts:__ZL54__ManagedRegistrationHelperFunction_PositionConstraintPv
nrh:_KeyBuilder_Key_m876696100
N5e:_InternalEnumerator_1_System_Collections_IEnumerator_get_Current_m2164048921_gshared
OOj:__ZN15dense_hashtableINSt3__24pairIK10KeyWrapperINS1_IPK14Il2CppAssemblyP11Il2CppClassEEEjEES9_17ReflectionMapHashIS8_EN14dense_hash_mapIS9_jSD_NS9_14EqualsComparerINS0_8equal_toIS8_EEEENS0_9allocatorISB_EEE9SelectKeyESI_SK_EC2ERKSN_j
sra:__ZN9Scripting11UnityEngine14AnimationCurve12CleanupProxyEv
isd:__ZL65__ManagedRegistrationHelperFunction_Internal_SubsystemDescriptorsPv
ALj:__ZN6il2cpp2vm21ThreadPoolCompartment12DetachThreadEP12Il2CppThread
jpf:_SByte_System_IConvertible_ToInt16_m885121451_AdjustorThunk
v2g:_Decimal_stripStyles_m1823381019
_Lb:__ZN13GfxDeviceGLES30SetBackBufferColorDepthSurfaceEP17RenderSurfaceBaseS1_
Npe:__ZL63TexturePlayableOutput_t648497447_CustomAttributesCacheGeneratorP21CustomAttributesCache
ZKc:__Z52Register_UnityEngine_GUIUtility_get_systemCopyBufferv
pLi:_LayoutGroup_SetProperty_TisBoolean_t97287965_m3903959758_gshared
fAc:__ZN16StreamedResource8TransferI18StreamedBinaryReadILb0EEEEvRT_
Lrc:__Z49Register_UnityEngine_Input_get_imeCompositionModev
hKf:_Sprite_INTERNAL_get_rect_m1600380876
Mec:__ZN15dense_hashtableINSt3__24pairIKiN4core17string_with_labelILi1EEEEEi18SInt32HashFunctionN14dense_hash_mapIiS5_S7_NS0_8equal_toIiEE13stl_allocatorIS6_L18MemLabelIdentifier1ELi16EEE9SelectKeyESA_SD_E12resize_deltaEjj
DBk:_emscripten_glDisableVertexAttribArray__wrapper
Gwa:__ZN14SafeBinaryRead21TransferSTLStyleArrayI13dynamic_arrayINSt3__24pairIi12ImmediatePtrIN5Unity9ComponentEEEELj0EEEEvRT_17TransferMetaFlags
Ipa:__ZN9Scripting11UnityEngine12Experimental10PlayerLoop14Initialization12CleanupProxyEv
pMe:_MonoType_GetAttributeFlagsImpl_m167182975
v4f:_EncryptedData_get_EncryptedContent_m3205649670
N_a:__ZN12MeshRenderer18CalculateLocalAABBER4AABBRKS_RK4Mesh
qdc:__ZN21UnityDefaultAllocatorI17LowLevelAllocatorE8AllocateEji
C8c:_tt_hadvance_adjust
Dz:__ZN7mecanim5human14HumanPoseClearERNS0_9HumanPoseERKNS_6bitsetILj83EEE
ndd:__ZL28InitializeUIScriptingClassesv
$si:__Z54RuntimeInvoker_Vector2_t2156229523_Vector3_t3722313464PFvvEPK10MethodInfoPvPS4_
g1h:_ReadOnlyCollection_1_System_Collections_IList_set_Item_m2162444692_gshared
bcb:__ZN12HandlerChain10AtomicMoveER13FileEntryDataS1_
Tlb:__ZN9GfxDevice17HasGPUFencePassedEPv
dea:__ZZN15DirectorManager15InitializeClassEvEN48PreLateUpdateDirectorDeferredEvaluateRegistrator7ForwardEv
QWc:__ZN20SpeedTreeWindManager6UpdateEf
Sji:__Z68RuntimeInvoker_Int64_t3736567304_IntPtr_t_MonoIOErrorU26_t1548853198PFvvEPK10MethodInfoPvPS4_
ju:__ZN7mecanim9animation20CreateAvatarConstantEPNS_8skeleton8SkeletonEPNS1_13SkeletonPoseTIN4math4trsXEEES8_PNS_5human5HumanES3_iRKS6_RNS_6memory9AllocatorE
$rd:__Z20RegisterModule_WebGLv
Gjc:__ZN12ShaderErrors11ShaderErrorC2ERKN4core12basic_stringIcNS1_20StringStorageDefaultIcEEEES7_S7_iibb
o0a:__ZN14CompressedMesh8TransferI19StreamedBinaryWriteILb0EEEEvRT_
dmh:_Array_InternalArray__Insert_TisDouble_t594665363_m675699942_gshared
m9a:__ZN13dynamic_arrayI15ComputeShaderCBLj0EE6assignEPKS0_S3_
TTi:_List_1_System_Collections_IList_Add_m3014885234_gshared
C9h:_UnityAction_1_Invoke_m3535252839_gshared
IZf:_Selectable_set_isPointerInside_m701571657
Ibj:_PatternCompiler_EmitNotCategory_m2023580103
SFa:__ZN24GenerateTypeTreeTransfer8TransferI21PlatformShaderDefinesEEvRT_PKc17TransferMetaFlags
O4a:__ZNK15ResourceManager22GetTypeVirtualInternalEv
N3j:__ZN6il2cpp2vmL36AddNestedTypesToNametoClassHashTableEPK11Il2CppImagePK20Il2CppTypeDefinition
BVi:_List_1_set_Capacity_m2707586410_gshared
eEf:_PlayerConnection_MessageCallbackInternal_m1914517467
juf:_AttributeHelperEngine__cctor_m1900959362
QXc:__ZN13TextRendering4Font23VirtualRedirectTransferER24GenerateTypeTreeTransfer
O5b:__Z59ProcessShadowCasterNodeVisibilityAndCullWithoutUmbra_KernelILN17CullingParameters9LayerCullE2ELi12EEvR9IndexListRK22SceneCullingParametersPK9SceneNodePK4AABBjjPKN4math7_float4E
vDe:__ZL102Image_t2670269651_CustomAttributesCacheGenerator_Image_t2670269651____eventAlphaThreshold_PropertyInfoP21CustomAttributesCache
rrg:_X509SubjectKeyIdentifierExtension_ToString_m12089275
zwi:__Z106RuntimeInvoker_RuntimeObject_RuntimeObject_Int32_t2950945753_Int16_t2552820387_RuntimeObject_RuntimeObjectPFvvEPK10MethodInfoPvPS4_
gUh:_UnhandledExceptionEventArgs__ctor_m224348470
Wxj:_CanvasRenderer_SetPopMaterial_m2720611463
rih:_Array_InternalArray__IndexOf_TisByte_t1134296376_m929524687_gshared
bV:__ZN11AudioSource15InitializeClassEv
Cvd:_ExecuteEvents_get_dragHandler_m3849431675
T$b:__ZN11HaloManager17RenderGeometryJobEP25DynamicVBOGeometryJobDataj
FEf:_Object_DestroyImmediate_m2288369078
Zbh:_Enum_System_IConvertible_ToDateTime_m3823814707
bJ:__ZNSt3__227__insertion_sort_incompleteIRPFbN7mecanim9animation13MuscleIndexIdES3_EPS3_EEbT0_S8_T_
PBk:_emscripten_glBlendEquation__wrapper
t_j:__ZN15dense_hashtableINSt3__24pairIK10KeyWrapperIP11Il2CppClassES4_EES5_N6il2cpp8metadata16SZArrayClassHashEN14dense_hash_mapIS5_S4_SA_NS5_14EqualsComparerINS9_19SZArrayClassCompareEEENS0_9allocatorIS7_EEE9SelectKeyESE_SG_E13set_empty_keyERKS7_
lqk:__ZNSt3__212basic_stringIcNS_11char_traitsIcEENS_9allocatorIcEEE6__initEPKcj
Oj:_emscripten_set_fullscreenchange_callback
wId:_PropertyBuilder_IsDefined_m406627924
R3h:_ReadOnlyCollection_1_System_Collections_IList_Insert_m4085855595_gshared
ecj:_PatternCompiler_NewLink_m3699449496
laf:_Enumerator_System_Collections_IDictionaryEnumerator_get_Key_m2502357460_AdjustorThunk
Tj:_emscripten_glDrawArrays
sBf:_Material_HasProperty_m2704238996
CVb:__ZZ23InitPlayerLoopCallbacksvEN43EarlyUpdateExecuteMainThreadJobsRegistrator7ForwardEv
o$:__ZN11UnityEngine15CloudWebService19SessionEventManagerC2Ev
xGg:_Char_System_IConvertible_ToSingle_m2690985411_AdjustorThunk
Yj:_clock_getres
i5h:_Comparison_1_Invoke_m668117148_gshared
vng:_DictionaryNodeEnumerator_FailFast_m2494733641
Kzc:__ZN15DirectorManager22ConstructPlayableGraphEPKc
zrd:__ZN13RuntimeStaticI14dynamic_bitsetLb0EE16StaticInitializeEPv
FIh:_List_1_System_Collections_IList_IndexOf_m581320577_gshared
Yga:__ZNSt3__222__merge_move_constructIRNS_4lessIN4core12basic_stringIcNS2_20StringStorageDefaultIcEEEEEENS_11__wrap_iterIPS6_EESB_EEvT0_SC_T1_SD_PNS_15iterator_traitsISC_E10value_typeET_
pFc:__Z41Register_UnityEngine_Camera_get_eventMaskv
AW:__ZL19CleanupModule_Audiov
Caj:_IntervalCollection_CopyTo_m2976848759
lAd:_CanvasUpdateRegistry_ObjectValidForUpdate_m2723813849
Rmb:__ZN18GlslGpuProgramGLES25LoadFromBinaryShaderCacheERjRKN4core12basic_stringIcNS1_20StringStorageDefaultIcEEEER17ShaderChannelMaskPKc
Mha:__ZN6prcoreL17RemapGenericFloatI18TexFormatARGBFloat14TexFormatRHalfEEvPKNS_9InnerInfoE
KRi:_List_1_RemoveAt_m1433290785_gshared
Oli:__Z81RuntimeInvoker_Void_t1185182177_Int64_t3736567304_RuntimeObject_Int32_t2950945753PFvvEPK10MethodInfoPvPS4_
csb:__Z29Transfer_Blittable_ArrayFieldI14SafeBinaryReadiEvRT_R9ArrayInfoRK23StaticTransferFieldInfo
qMj:__ZN6il2cpp6icalls8mscorlib6System8MonoType8GetFieldEP20Il2CppReflectionTypeP12Il2CppStringi
vHj:__ZN15dense_hashtableINSt3__24pairIK10KeyWrapperIN6il2cpp5utils13dynamic_arrayIPK10Il2CppTypeLj4EEEEPFvvEEESA_NS3_8metadata19Il2CppSignatureHashEN14dense_hash_mapISA_SD_SG_NSA_14EqualsComparerINSF_22Il2CppSignatureCompareEEENS0_9allocatorISE_EEE9SelectKeyESK_SM_E5clearEv
Ycg:_SHA256Managed_ProcessBlock_m2297835517
kyk:_emscripten_glVertexAttrib3fv__wrapper
w0g:_Convert_ToBoolean_m4098720762
L3h:_ReadOnlyCollection_1_System_Collections_ICollection_CopyTo_m511916545_gshared
hfh:_Array_InternalArray__ICollection_Remove_TisOrderBlock_t1585977831_m1449044465_gshared
PC:__ZL25SetAdditionalCurvesValuesRN7mecanim10ValueArrayERKN11UnityEngine9Animation20AnimationSetBindingsERKNS_18ValueArrayConstantES9_RKS0_
ovj:_DisplayBuffer_OnCommand_m444302511
MQe:_AssemblyName__ctor_m1753467291
p_f:_Slider_set_minValue_m3431883418
fCc:__ZN8Material10GetTextureEN9ShaderLab16FastPropertyNameE
rgf:_Enumerator_System_Collections_IEnumerator_get_Current_m1657817602_gshared
RXa:__ZN18StreamedBinaryReadILb0EE21TransferSTLStyleArrayI13dynamic_arrayI10Matrix4x4fLj16EEEEvRT_17TransferMetaFlags
Ruc:__ZNK28MonoBehaviourPropertyBinding13GetFloatValueERKN11UnityEngine9Animation10BoundCurveE
jYb:__ZL20BlitToStagingTextureP7TextureiS0_i
Jhk:_GC_generic_malloc
Kqg:_WebHeaderCollection_get_Keys_m910440889
bMb:__ZN13GfxDeviceGLES32CreateDepthRenderSurfacePlatformEP17RenderSurfaceBase17DepthBufferFormat
mIg:_ArrayListWrapper_Clear_m2625302714
PG:__ZN26AnimatorOverrideController13AwakeFromLoadE17AwakeFromLoadMode
eCk:_emscripten_glIsTexture__wrapper
b6f:_CipherSuiteCollection_System_Collections_IEnumerable_GetEnumerator_m3240848888
Irk:_llvm_bswap_i32
F5h:_Comparison_1_BeginInvoke_m3417636795_gshared
$hb:__ZN9GfxDevice25ReleaseAsyncCommandHeaderEPN21GfxDeviceAsyncCommand3ArgE
L9i:_X509Crl_Parse_m3164013387
fke:__ZL75Mesh_t3648964284_CustomAttributesCacheGenerator_Mesh_HasChannel_m4256962133P21CustomAttributesCache
IEb:__ZN13MonoBehaviour23VirtualRedirectTransferER17RemapPPtrTransfer
lTb:__ZN21UniformBufferTFMethod20IsBoneCountSupportedEi
hmb:__ZN4gles14UseGLSLProgramER15DeviceStateGLESjbij
NGd:_HorizontalLayoutGroup_CalculateLayoutInputHorizontal_m750541069
_tg:_X509CertificateCollection__ctor_m1395805580
SOd:_ResourceReader_CreateResourceInfo_m1818330740
jzj:_OnOverrideControllerDirtyCallback_Invoke_m764065723
WLa:__ZN6Shader27MarkShaderStateNotSupportedEPKS_
gla:__ZL55__ManagedRegistrationHelperFunction_DrawShadowsSettingsPv
qla:__ZL52__ManagedRegistrationHelperFunction_GradientAlphaKeyPv
LEf:_Object_Internal_CloneSingle_m1021157572
QSb:__ZN25TransformFeedbackSkinning8SkinMeshERK18VertexStreamSourceP9GfxBufferP17GPUSkinPoseBufferS4_ii17ShaderChannelMaskb
k3j:__ZN15dense_hashtableINSt3__24pairIK10KeyWrapperIP14Il2CppIUnknownEjEES5_N6il2cpp5utils11PointerHashIS3_EEN14dense_hash_mapIS5_jSB_NS5_14EqualsComparerINS0_8equal_toIS4_EEEENS0_9allocatorIS7_EEE9SelectKeyESG_SI_E12resize_deltaEjj
COd:_ResolveEventArgs__ctor_m1455935166
kQh:_Type_Equals_m1673304139
pJe:_SynchronizedReader_Read_m1388613247
Exb:__Z22TransferField_NonArrayI19StreamedBinaryWriteILb0EE27Converter_SimpleNativeClassI8GUIStyleEEvRK23StaticTransferFieldInfoR31RuntimeSerializationCommandInfoRT0_
hXf:_Scrollbar_OnPointerDown_m3213715319
MSc:__ZN8JSONRead8TransferIN4math12int3_storageEEEvRT_PKc17TransferMetaFlagsb
PWb:__ZN27IntermediateRendererManager29ClearAllIntermediateRenderersEv
Fxd:_StandaloneInputModule__ctor_m2419721820
T8e:_Comparer_1_System_Collections_IComparer_Compare_m2018996185_gshared
Rp:__Z17CalculateGlobalSM23TransformAccessReadOnlyRKN4math7_float4E
mKg:_CollectionBase_System_Collections_IList_Contains_m2994901969
Wl:_emscripten_glLoadIdentity
Jac:__ZNSt3__26vectorINS_4pairIN4core12basic_stringIcNS2_20StringStorageDefaultIcEEEEPK17MessageIdentifierEENS_9allocatorISA_EEE26__swap_out_circular_bufferERNS_14__split_bufferISA_RSC_EEPSA_
mze:__ZL57RemoteSettings_t1718627291_CustomAttributesCacheGeneratorP21CustomAttributesCache
UAj:_NativeMethodAttribute_set_HasExplicitThis_m2961870915
REf:_Vector3_get_zero_m1409827619
FWb:__ZN6Shader16GetDefaultOrNullEv
kq:__ZN4AABB8TransferI14SafeBinaryReadEEvRT_
Wdh:_Array_InternalArray__ICollection_Contains_TisX509ChainStatus_t133602714_m795171973_gshared
a2j:__ZN6il2cpp2vm8Liveness8FromRootEP12Il2CppObjectPv
Z0a:__ZN12MeshRenderer23VirtualRedirectTransferER19StreamedBinaryWriteILb0EE
Dcc:__Z11MD5ToStringPh
RKj:__ZN23InterfaceActionInvoker4IixxbE6InvokeEjP11Il2CppClassP12Il2CppObjectixxb
wrc:__Z38Input_Get_Custom_PropCompositionStringv
g0:__GLOBAL__sub_I_artifacts_WebGL_codegenerator_0_cpp_862
CW:__ZN19AudioSampleProvider7AcquireEjRNS_6HandleE
y$f:_Text_get_alignment_m1496827807
ith:_ContentInfo_get_ASN1_m1776225219
npe:__ZL82NativeContainerNeedsThreadIndexAttribute_t764917452_CustomAttributesCacheGeneratorP21CustomAttributesCache
TY:__ZN9JSONWrite8TransferIN4core12basic_stringIcNS1_20StringStorageDefaultIcEEEEEEvRT_PKc17TransferMetaFlags
ZXa:__ZN10SpriteBone8TransferI19StreamedBinaryWriteILb0EEEEvRT_
L4g:_Convert_ToSingle_m2533452644
uqk:__ZNSt3__212basic_stringIcNS_11char_traitsIcEENS_9allocatorIcEEE6resizeEjc
b2a:__ZN14PlayerSettings16CheckConsistencyEv
FV:__ZN11AudioModule30GetOrCreateDSPFromCustomFilterEP17AudioCustomFilter
Mud:_EventTrigger_OnPointerEnter_m986348926
x2j:__ZN6il2cpp6icalls8mscorlib6System13GlobalizationL20culture_lcid_locatorEPKvS5_
Eeg:_X509Certificate__ctor_m1413707489
Y1h:_ReadOnlyCollection_1_System_Collections_Generic_ICollectionU3CTU3E_Remove_m2211264472_gshared
JQa:__ZNK12CubemapArray16ExtractImageImplEP14ImageReferenceNS0_8BlitModeEbi
SBc:__ZN10systeminfo24GetSystemLanguageCultureEi
Zjb:__ZN9GfxDevice24RequestAsyncReadbackDataEP20GfxAsyncReadbackDataRK27GfxAsyncReadbackRequestDesc
Jpi:__Z240RuntimeInvoker_RuntimeObject_Int16_t2552820387_RuntimeObject_Int32_t2950945753_Int32_t2950945753_Int32_t2950945753_SByte_t1669577662_SByte_t1669577662_SByte_t1669577662_SByte_t1669577662_Int16_t2552820387_SByte_t1669577662_SByte_t1669577662PFvvEPK10MethodInfoPvPS4_
o2a:__ZN10VRSettings8TransferI14SafeBinaryReadEEvRT_
Zpa:__ZN9Scripting11UnityEngine12Experimental18GlobalIllumination11LightDataGI9InitProxyEv
NQh:_Type_IsMarshalByRefImpl_m914778231
cbb:__ZNK17FileSystemHandler10IsReadOnlyERK13FileEntryData
n$c:_UNITY_FT_Outline_Get_CBox
gGc:__Z56Register_UnityEngine_SystemInfo_GetOperatingSystemFamilyv
bLg:_Hashtable__ctor_m2302711321
ja:invoke_viifiiii
TFg:_Byte_TryParse_m1467448483
Nvj:_DelegatePInvokeWrapper_OnCommandSentHandler_t613111342
PKf:_Texture2D_get_whiteTexture_m2176011403
SAa:__ZN22PerThreadPageAllocator14AcquireNewPageEj
c6h:_Func_2_Invoke_m3516477887_gshared
zne:__ZL65SelectionBaseAttribute_t3493465804_CustomAttributesCacheGeneratorP21CustomAttributesCache
ekg:_String_ToString_m3872792296
qub:__Z18Transfer_BlittableI24GenerateTypeTreeTransferLb1E9BoundsIntEvRK29SerializationCommandArgumentsR31RuntimeSerializationCommandInfo
PWg:_FileStream_GetSecureFileName_m449783930
l1b:__ZN6Camera13ClearNoSkyboxEb
iKe:_UnexceptionalStreamWriter_Flush_m82278468
hLa:__ZNK15PlayableMethods21CanInvokeProcessFrameEv
m2e:_InternalEnumerator_1_get_Current_m3911557813_gshared
KGj:__ZNK15dense_hashtableI10KeyWrapperIPK17Il2CppGenericInstES4_N6il2cpp8metadata21Il2CppGenericInstHashEN14dense_hash_setIS4_S7_NS4_14EqualsComparerINS6_24Il2CppGenericInstCompareEEENSt3__29allocatorIS4_EEE8IdentityESB_SE_E12test_deletedEj
ttd:_BaseInput_get_touchCount_m1263753282
mda:__ZNSt3__27__sort5IR17CompareInstanceIDPP6ObjectEEjT0_S6_S6_S6_S6_T_
oAj:_CustomEventData_Internal_Create_m4267220301
SWd:_RemotingSurrogate_SetObjectData_m2713731796
bmg:_DecoderReplacementFallbackBuffer_Reset_m3943028589
aoe:__ZL56RenderTexture_t2108887433_CustomAttributesCacheGeneratorP21CustomAttributesCache
YRb:__ZN18GfxFramebufferGLES10InvalidateEv
lCh:_Enumerator_System_Collections_IEnumerator_get_Current_m282279808_AdjustorThunk
ZRf:_LayoutRebuilder_MarkLayoutRootForRebuild_m1241498911
hMh:_CompressedStack_CreateCopy_m2591279216
hcg:_RSAPKCS1KeyExchangeFormatter_CreateKeyExchange_m1611814432
V3:__ZN10MemoryPoolD2Ev
BLc:__ZNSt3__26__treeINS_12__value_typeIN4core12basic_stringIcNS2_20StringStorageDefaultIcEEEEN5IMGUI12NamedControlEEENS_19__map_value_compareIS6_S9_NS_4lessIS6_EELb1EEENS_9allocatorIS9_EEE7destroyEPNS_11__tree_nodeIS9_PvEE
lrg:_AsnEncodedData_KeyUsageExtension_m1792651780
b8j:__ZN6il2cpp2os5posix15PosixWaitObjectD2Ev
qlb:__ZN14GfxDeviceStats19EndClientFrameStatsEv
GPf:_InputField_set_asteriskChar_m1794444908
ilc:__ZN9Scripting26RaiseArgumentNullExceptionEPKc
LCk:b120
i2:__ZL18InternalLogConsolePKcz
S$e:_InternalEnumerator_1_get_Current_m685192625_gshared
cKe:_UnexceptionalStreamReader_Read_m16956299
$Od:_ResourceReader_ReadValueVer1_m183253382
o8:__Z37scripting_method_get_nth_argumenttype18ScriptingMethodPtri
sR:__ZN11AudioSource16UpdatePauseStateEv
Uca:__ZL52StaticUnregisterSceneLoadedCallback_LightmapSettingsPv
zvf:_Camera_get_main_m3643453163
CEc:__Z48Register_UnityEngine_MonoBehaviour_StopCoroutinev
Llk:__ZN6il2cpp5utils25NativeDelegateMethodCache17AddNativeDelegateEPFvvEPK10MethodInfo
yTf:_LayoutRebuilder_U3CRebuildU3Em__5_m1288787547
r0b:__ZN27DeviceViewProjMatricesStateD2Ev
VJf:_SendMouseEvents__cctor_m2378365934
f_h:_ReadOnlyCollection_1_System_Collections_IList_set_Item_m3582274843_gshared
FBf:_Mathf_Pow_m856735666
uga:__ZL39CreateRegisteredMessageIdentifiersArrayPv
bub:__Z18Transfer_BlittableI24GenerateTypeTreeTransferLb0E8Vector3fEvRK29SerializationCommandArgumentsR31RuntimeSerializationCommandInfo
lnh:_SimpleCollator_FilterExtender_m72900315
MXc:__ZNK13TextRendering4Font22GetTypeVirtualInternalEv
zze:__ZL61CertificateHandler_t2739891000_CustomAttributesCacheGeneratorP21CustomAttributesCache
TLf:_Transform_set_parentInternal_m2066300701
x5a:__ZN19StreamedBinaryWriteILb0EE21TransferSTLStyleArrayINSt3__26vectorIN15ResourceManager10DependencyE13stl_allocatorIS5_L18MemLabelIdentifier52ELi16EEEEEEvRT_17TransferMetaFlags
JYf:_ScrollRect_EnsureLayoutHasRebuilt_m3415112783
FMe:_Binder_FindMostDerivedMatch_m239579024
VZe:_InternalEnumerator_1_get_Current_m476140818_AdjustorThunk
Jjj:_GUIUtility_EndContainerGUIFromException_m530164245
pyj:_RectTransformUtility_INTERNAL_CALL_RectangleContainsScreenPoint_m1214874141
BI:__ZZN8Animator15InitializeClassEvEN37FunctorImpl_439kDidModifyOverrideClip4CallEPviR11MessageData
ZOa:__ZN6prcoreL10inner_flipILj2EEEvPhS1_j
PIj:__ZN6il2cpp2vm13MetadataCache14GetPointerTypeEP11Il2CppClass
POa:__ZNK14Texture2DArray16ExtractImageImplEP14ImageReferenceNS0_8BlitModeEbi
eKh:_StringBuilder_Append_m2383614642
$Oc:__ZN9JSONWrite8TransferIbEEvRT_PKc17TransferMetaFlags
Gua:__ZN12TLSAllocatorI14StackAllocatorED0Ev
o1a:__ZN11TimeManager16CheckConsistencyEv
V1h:_ReadOnlyCollection_1_System_Collections_Generic_ICollectionU3CTU3E_Add_m2451728105_gshared
zZb:__ZN21GfxDeviceAsyncCommand10ArgScratch15ThreadedCleanupEv
vzc:__Z14DoubleToStringd
elg:_StringComparer_GetHashCode_m2080455020
Ctb:__ZN12NativeBufferI27Converter_UnityEngineObjectE15SetupForWritingER9ArrayInfo
TOi:_List_1_CheckCollection_m2118769249_gshared
oe:_glTexImage3D
ACd:_DefaultControls_SetDefaultColorTransitionValues_m2033775311
jWg:_Path_IsPathRooted_m3515805419
MGi:_Array_InternalArray__set_Item_TisChar_t3634460470_m741842250_gshared
s6i:_TlsServerSettings_set_RsaParameters_m853026166
l5j:__ZN6il2cpp2vm5Field22StaticGetValueInternalEP9FieldInfoPvS4_
Lmg:_Encoding_GetByteCount_m1264711659
TP:__ZN11AudioSource12ApplyFiltersEv
_sf:_RC2_Create_m2052783340
OQg:_Guid__ctor_m3421080095_AdjustorThunk
xe:_JS_SystemInfo_GetCurrentCanvasWidth
yck:__ZN6il2cpp8metadataL22FormatGenericArgumentsEPK17Il2CppGenericInst
_mc:__ZL34GetComponentsImplementationRecurseILb1ELi0ELi1EEbR10GameObjectbRK17CompareParametersRK39GetComponentsImplementation_ReturnValue
WCa:__ZNK17InstancingBatcher15RenderInstancesERK15RenderNodeQueuePK17BatchInstanceDataj16VertexInputMasksPFbPvS6_iR11MeshBuffersR16DrawBuffersRangeRiSC_E
Bbh:_Double_Equals_m1674752021
WPf:_InputField_OnDisable_m1824300767
rmh:_CodePointIndexer_ToIndex_m1008730487
YDc:__Z37Texture_CUSTOM_get_texelSize_InjectedP12Il2CppObjectR13Vector2fIcall
mUg:_Int64_System_IConvertible_ToUInt64_m2815650160_AdjustorThunk
M2a:__ZN10VRSettings8TransferI18StreamedBinaryReadILb0EEEEvRT_
Ey:__ZN22AnimationMixerPlayable12MixerProcessEP35AnimationPlayableEvaluationConstantP32AnimationPlayableEvaluationInputP33AnimationPlayableEvaluationOutputM17AnimationPlayableFvS1_S3_S5_EPFvS1_S3_S5_ESA_PFvS5_S1_S3_S5_PN7mecanim16ValueArrayWeightEfEPFvS1_S3_S5_SD_fE
K9e:_Enumerator_get_CurrentKey_m2230405065_gshared
JKe:_Math_Abs_m3912393749
W8f:_TlsClientFinished_ProcessAsSsl3_m3094597606
Ivf:_Camera_get_allCamerasCount_m528453758
Kxb:__Z19TransferField_ArrayI19StreamedBinaryWriteILb0EE27Converter_SimpleNativeClassI8GradientEEvRK23StaticTransferFieldInfoR31RuntimeSerializationCommandInfoRT0_
ZYa:__ZNK13ScreenManager12IsFullscreenEv
ohc:__ZN24GenerateTypeTreeTransfer8TransferINSt3__26vectorIN9ShaderLab20SerializedSubProgram15VectorParameterENS1_9allocatorIS5_EEEEEEvRT_PKc17TransferMetaFlags
ZQc:__Z18Transfer_BlittableI8JSONReadLb0E12PropertyNameEvRK29SerializationCommandArgumentsR31RuntimeSerializationCommandInfo
pzk:_glGetUniformBlockIndex__wrapper
BCg:_Array_CreateInstance_m2696293787
rKh:_UnicodeEncoding__ctor_m1074918879
PXa:__ZN7SubMesh8TransferI18StreamedBinaryReadILb0EEEEvRT_
sWe:_OpCode_Equals_m1376200488_AdjustorThunk
nBd:_ColorBlock_op_Inequality_m2718216889
p3g:_Convert_ToInt16_m2763665794
bf:_emscripten_glIsEnabled
Inc:__Z45Register_UnityEngine_GameObject_get_transformv
gTe:_DerivedType_GetConstructors_m483065502
v7:__Z29scripting_class_instance_size17ScriptingClassPtr
uSc:__Z29Transfer_Blittable_ArrayFieldI8JSONRead5RectTIiEEvRT_R9ArrayInfoRK23StaticTransferFieldInfo
hne:__ZL82RectOffset_t1369453676_CustomAttributesCacheGenerator_RectOffset__ctor_m2718275157P21CustomAttributesCache
JEi:__Z68RuntimeInvoker_Boolean_t97287965_SByte_t1669577662_SByte_t1669577662PFvvEPK10MethodInfoPvPS4_
Qui:__Z165RuntimeInvoker_Void_t1185182177_RuntimeObject_Int32_t2950945753_Int32_t2950945753_RuntimeObject_Int32_t2950945753_Single_t1397266774_Single_t1397266774_RuntimeObjectPFvvEPK10MethodInfoPvPS4_
iHd:_Image_set_preserveAspect_m769358756
O$:__ZN11UnityEngine15CloudWebService19SessionEventManager26ProcessEventQueueJobStaticEPv
BBf:_Mathf_Min_m1073399594
bdf:_KeyCollection__ctor_m4231035512_gshared
T3c:_otv_Coverage_get_last
X_:__ZN11UnityEngine15CloudWebService19SessionEventManager37OnTimerExpiredPerformArchiveJobStaticEPv
SNc:__Z18Transfer_BlittableI9JSONWriteLb1E9BoundsIntEvRK29SerializationCommandArgumentsR31RuntimeSerializationCommandInfo
Xlg:_DecoderReplacementFallbackBuffer__ctor_m1669699347
bfj:_Group_GetWidth_m3299755715
H2g:_Decimal_op_Implicit_m1920400487
umi:__Z253RuntimeInvoker_Int32_t2950945753_RuntimeObject_Int32_t2950945753_Int32_t2950945753_RuntimeObject_Int32_t2950945753_UInt32U26_t3735378166_UInt32U26_t3735378166_RuntimeObject_DecoderFallbackBufferU26_t3866396827_ByteU5BU5DU26_t4057885439_SByte_t1669577662PFvvEPK10MethodInfoPvPS4_
kHa:__ZN10builtintex15GetWhiteTextureEv
IWd:_MonoMethodMessage_get_TypeName_m3758247133
LLg:_Enumerator_get_Entry_m2184304359
t4g:_Convert_ToSByte_m2653811524
Qmk:__ZN6il2cpp6icalls8mscorlib6System10Reflection4Emit11DerivedType21create_unmanaged_typeEP20Il2CppReflectionType
kHd:_Image_set_fillCenter_m3776786491
Blc:__Z39Register_UnityEngine_Sprite_get_texturev
yzj:__ZL10rescale128PyS_Piiiii
XS:__ZN9AudioClip7WWWSeekEPvjS0_
o$d:__ZL63FixedBufferAttribute_t3759792648_CustomAttributesCacheGeneratorP21CustomAttributesCache
l3:__ZL32StaticInitializeIUnityInterfacesPv
eZb:__Z13CameraProjectRK8Vector3fRK10Matrix4x4fS4_RK5RectTIiERS_b
Rda:__Z22CreateMutexLockedStackv
QJb:__ZNSt3__27__sort5IRNS_4lessIN22BuiltinResourceManager8ResourceEEEPS3_EEjT0_S7_S7_S7_S7_T_
EOe:_NumberFormatter_FormatNumber_m1763569482
gKf:_Sprite_get_rect_m2575211689
xWb:__ZN9ShaderLab11ShaderStateD2Ev
z7c:_Ins_DELTAP
VFb:__Z23TransferScriptingObjectI24GenerateTypeTreeTransferEvRT_18ScriptingObjectPtr17ScriptingClassPtrPK15MonoScriptCache
icj:_PatternLinkStack_GetOffset_m3697714525
rKj:_AnalyticsEvent__cctor_m3994162614
bJc:__Z19GetSpecificGUIStatei
QJc:__ZN12GUIClipState5ApplyER10InputEvent
vyg:_X509Certificate_GetUnsignedBigInteger_m1025066663
qxb:__ZL17Transfer_GUIStyleI19StreamedBinaryWriteILb0EELb0EEvRK29SerializationCommandArgumentsR31RuntimeSerializationCommandInfo
p1b:__ZN10TextureRef4InitEP7Textureb
VFf:_PlayerConnectionInternal_UnityEngine_IPlayerEditorConnectionNative_Initialize_m2565175798
gXg:_MonoIO_GetFileType_m101289143
yDa:__Z19ScheduleJobInternalR8JobFencePFvPvES1_11JobPriority
fpa:__ZN9Scripting11UnityEngine12Experimental9Rendering12VisibleLight9InitProxyEv
nog:_KeysCollection_get_Count_m3943311735
M_e:_InternalEnumerator_1_get_Current_m2832154098_gshared
HUh:_Version__ctor_m1550720073
nKj:__ZNSt3__211__tree_nextIPNS_16__tree_node_baseIPvEEEET_S5_
x5j:__ZN15dense_hashtableI10KeyWrapperIP18Il2CppGenericClassES3_N6il2cpp8metadata22Il2CppGenericClassHashEN14dense_hash_setIS3_S6_NS3_14EqualsComparerINS5_25Il2CppGenericClassCompareEEENSt3__29allocatorIS3_EEE8IdentityESA_SD_E14squash_deletedEv
dia:__ZN6prcoreL17RemapGenericFloatI17TexFormatRGBAHalf17TexFormatRGBFloatEEvPKNS_9InnerInfoE
Cgi:__Z52RuntimeInvoker_Double_t594665363_Decimal_t2948259380PFvvEPK10MethodInfoPvPS4_
s3e:_InternalEnumerator_1_get_Current_m784835552_gshared
NGc:__Z35Sprite_Get_Custom_PropPixelsPerUnitP12Il2CppObject
NGj:__ZNSt3__26__sortIRN6il2cpp5utils11collections13ArrayValueMapIPK10Il2CppType17Il2CppInteropData26InteropDataToTypeConverterNS1_8metadata14Il2CppTypeLessENSA_26Il2CppTypeEqualityComparerEE12SortComparerEPS8_EEvT0_SH_T_
i8a:__ZN11PreloadDataD2Ev
Oqd:__ZN15DownloadHandler14ProcessHeadersERK9HeaderMap
cYc:__ZNSt3__26vectorINS_4pairIifEE13stl_allocatorIS2_L18MemLabelIdentifier35ELi16EEE6assignINS_11__wrap_iterIPS2_EEEENS_9enable_ifIXaasr21__is_forward_iteratorIT_EE5valuesr16is_constructibleIS2_NS_15iterator_traitsISC_E9referenceEEE5valueEvE4typeESC_SC_
Vb:invoke_iifi
pGg:_Char_System_IConvertible_ToInt16_m975497224_AdjustorThunk
wHc:__ZN18CrashReportHandler10SendReportER16CrashReportEvent
iah:_Delegate_CreateDelegate_m995503480
DAk:_emscripten_glGetObjectParameterivARB__wrapper
GNj:__ZNK6il2cpp5utils10StringViewIcE5RFindEc
sTe:_DerivedType_get_Module_m3032466746
KHa:__ZN15SharedLightData15UpdateTransformERK9Transform
KDe:__ZL71InputField_t3762917431_CustomAttributesCacheGenerator_m_OnValidateInputP21CustomAttributesCache
hib:__ZN9GfxDevice24CreateRenderDepthSurfaceE9TextureIDiiii16TextureDimension17DepthBufferFormat18SurfaceCreateFlags
U8b:__ZL30CollectComponentsWithoutAddingR10GameObjectPKN5Unity4TypeE17ScriptingClassPtrR13dynamic_arrayI16AddComponentDataLj0EES9_PN4core12basic_stringIcNSA_20StringStorageDefaultIcEEEE
bK:__ZN18AssetBundleManagerD2Ev
n1j:__ZN6il2cpp2vm9Exception27GetIndexOutOfRangeExceptionEv
poc:__Z44Register_UnityEngine_RectOffset_get_verticalv
pUf:_MaskableGraphic_set_maskable_m243551751
usa:__ZN5Unity9Component8TransferI14SafeBinaryReadEEvRT_
PGh:_List_1_System_Collections_IList_Remove_m2702745770_gshared
eh:_JS_SystemInfo_GetCurrentCanvasHeight
TXe:_ArrayReadOnlyList_1_IndexOf_m1911574180_gshared
_Tf:_Mask_OnEnable_m2186824439
zOf:_InputField_SetCaretVisible_m2216480850
Sug:_X509EnhancedKeyUsageExtension_CopyFrom_m3750050754
kMa:__ZNK8Material22GetTypeVirtualInternalEv
wKc:__Z34GUIStyle_Get_Custom_PropFixedWidthP12Il2CppObject
p0h:_ReadOnlyCollection_1_System_Collections_IList_Clear_m1076810235_gshared
hFh:_Enumerator_System_Collections_IEnumerator_get_Current_m3405349194_AdjustorThunk
sCg:_Array_SetValue_m3412648248
L9j:__ZN6il2cpp2gc16GarbageCollector11GetWeakLinkEPPv
gak:__GLOBAL__sub_I_Console_cpp
Vha:__ZN6prcoreL17RemapGenericFloatI14TexFormatRHalf17TexFormatRGBAHalfEEvPKNS_9InnerInfoE
r0f:_BigInteger_GetBytes_m1259701831
WNj:__ZN6il2cpp2vm7Runtime11InvokeArrayEPK10MethodInfoPvP11Il2CppArrayPP15Il2CppException
ykg:_String_memcpy_m2826223007
C3i:_RijndaelManaged_CreateDecryptor_m1421727258
E7c:_Dual_Project
njb:__ZN9GfxDevice15BeginFrameStatsEv
_Eh:_Enumerator_MoveNext_m2407049913_gshared
$Jh:_StringBuilder_Replace_m1682610486
zRb:__ZN4gles20EnsureTextureCreatedEP7ApiGLESP17RenderSurfaceGLES
Nra:__ZN9Scripting5Unity11Collections8LowLevel6Unsafe48NativeDisableContainerSafetyRestrictionAttribute9InitProxyEv
PZb:__ZN15ReplacementPass13PrepareSubsetEjRK10RenderNodeifRK17ShaderReplaceData
XP:__Z32AudioMeasurement_GetTimeConstantff
Ack:__ZN6il2cpp8metadata11FieldLayout12LayoutFieldsEjjjRKNSt3__26vectorIPK10Il2CppTypeNS2_9allocatorIS6_EEEERNS1_15FieldLayoutDataE
Ncb:__ZNK20LocalFileSystemPosix9EnumerateEPKcP19dynamic_block_arrayI13FileEntryInfoLj32EEbPPv19FileEnumerationFlag
YKd:_MethodInfo_MakeGenericMethod_m1996785325
Jtd:_BaseInputModule_DetermineMoveDirection_m770437496
pTd:_Context_get_HasGlobalDynamicSinks_m3672814609
Xaj:_Match__ctor_m2464595873
i6b:__ZL27PrepareSceneNodesJobCombineP25ScheduleSceneNodesJobData
_D:__ZN9BlobWrite8TransferIN7mecanim12statemachine18StateMachineMemoryEEEvRT_PKc17TransferMetaFlags
o9i:_X509CertificateEnumerator_Reset_m1825523691
qqb:__Z22TransferField_NonArrayI14SafeBinaryRead27Converter_SimpleNativeClassI8GUIStyleEEvRK23StaticTransferFieldInfoR31RuntimeSerializationCommandInfoRT0_
pUj:__ZN14dense_hash_mapI10KeyWrapperIPK10Il2CppTypeEjN6il2cpp8metadata14Il2CppTypeHashENS4_14EqualsComparerINS6_26Il2CppTypeEqualityComparerEEENSt3__29allocatorINSB_4pairIKS4_jEEEEEC2EjRKS7_RKSA_
TKb:__ZN13GfxDeviceGLESD2Ev
uec:__ZNSt3__26vectorIN9ShaderLab26SerializedShaderDependencyENS_9allocatorIS2_EEE6resizeEj
yLi:_Activator_CreateInstance_TisRuntimeObject_m729575857_gshared
Lda:__ZN18AsyncUploadManager13StaticDestroyEPv
EXc:__ZN9Scripting11UnityEngine4Font9InitProxyEv
Xdc:__ZN6Shader7SetNameEPKc
$9b:__ZN19CustomRenderTexture22HandleBoundaryWrappingERKNS_14UpdateZoneInfoEj
mwj:_TextGenerationSettings_CompareColors_m3051734236
hKj:__ZN6il2cpp2vm13MetadataCache32GenerateCustomAttributeTypeCacheEi
dig:_Single_Equals_m438106747
doe:__ZL101Time_t2420636075_CustomAttributesCacheGenerator_Time_t2420636075____realtimeSinceStartup_PropertyInfoP21CustomAttributesCache
nqd:__ZN20UnityWebRequestProtoI24UnityWebRequestTransport16AtomicRefCounter14RedirectHelper14ResponseHelper15DownloadHandler13UploadHandler18CertificateHandler12HeaderHelper14AsyncOperationE35Task_FinalizeAfterDHCompleteContentEPv
IPd:_RuntimeResourceSet__ctor_m2765575100
Nic:__ZN9ShaderLab9SubShader31UpdateLightModeToPassIndexTableEv
M8f:_TlsClientCertificate_ProcessAsSsl3_m3265529850
GC:__ZNK11UnityEngine9Animation30GenericBindingValueArrayUniqueclERKNS0_14GenericBindingES4_
qlg:_ASCIIEncoding_GetChars_m2543669481
pph:_BigInteger_IsProbablePrime_m567194283
MVe:_MethodBuilder_GetCustomAttributes_m731278908
J7c:_Direct_Move_Y
H7c:_Direct_Move_X
tni:__Z51RuntimeInvoker_Single_t1397266774_Double_t594665363PFvvEPK10MethodInfoPvPS4_
MHc:__ZN18CrashReportHandlerC2ERKN4core12basic_stringIcNS0_20StringStorageDefaultIcEEEES6_y
Bi:_glClearDepthf
cBc:__ZN19SkinnedMeshRenderer7GetMeshEv
AHa:__ZN19RuntimeSceneManager14GetActiveSceneEv
Jrk:_memcpy
RJb:__ZNSt3__218__insertion_sort_3IRNS_4lessIN22BuiltinResourceManager8ResourceEEEPS3_EEvT0_S7_T_
ynf:_MultiArrayFixupRecord_FixupImpl_m1721674130
rNj:__ZN6il2cpp6icalls8mscorlib6SystemL8IsStaticEPK9EventInfo
E3c:_otv_LookupList_validate
e5d:__ZL49_Module_t135161706_CustomAttributesCacheGeneratorP21CustomAttributesCache
eCh:_GenericEqualityComparer_1_Equals_m687841776_gshared
uqc:__Z57Register_UnityEngine_Transform_INTERNAL_get_localPositionv
m4b:__ZNSt3__27__sort4IR15ReflProbeSorterPP15ReflectionProbeEEjT0_S6_S6_S6_T_
ZEa:__ZN16GraphicsSettings10SmartResetEv
Bkc:__ZN19StreamedBinaryWriteILb0EE4InitE24TransferInstructionFlags20BuildTargetSelection
VVf:_DelegatePInvokeWrapper_GetRayIntersectionAllCallback_t3913627115
IBj:__ZN15dense_hashtableINSt3__24pairIK10KeyWrapperIPK22Il2CppGenericParameterEP11Il2CppClassEES6_N6il2cpp5utils11PointerHashIS4_EEN14dense_hash_mapIS6_S9_SE_NS6_14EqualsComparerINS0_8equal_toIS5_EEEENS0_9allocatorISA_EEE9SelectKeyESJ_SL_E9copy_fromERKSO_j
vqh:_ASN1Convert_ToInt32_m254930636
Bbd:__GLOBAL__sub_I_artifacts_WebGL_codegenerator_0_cpp_6461
cx:__ZN7mecanim8skeleton25SkeletonPoseComputeGlobalIN4math4trsXEEEvPKNS0_8SkeletonEPKNS0_13SkeletonPoseTIT_EEPS9_ii
QTh:_UInt64_ToString_m1529093114
zsc:__ZNK28RectTransformPropertyBinding9BindValueER6ObjectRKN11UnityEngine9Animation14GenericBindingERNS3_10BoundCurveE
vd:_emscripten_glLoadMatrixf
x4:__ZL33TransformAccessArray_CleanupClassPv
wBf:_Material_SetInt_m1783799378
_Bg:_Array_GetLength_m2178203778
vAf:_Input_GetMouseButtonDown_m2081676745
QRg:_Int16_System_IConvertible_ToDouble_m1661805412_AdjustorThunk
B0a:__ZN4Mesh14UploadMeshDataEb
SCk:_emscripten_glCreateProgram__wrapper
xGb:__ZN18ScreenManagerWebGL17RestoreCursorLockEv
xvc:__ZN14RenderSettings12CleanupClassEv
xlc:__Z43DataUtility_CUSTOM_INTERNAL_CALL_GetPaddingP12Il2CppObjectR8Vector4f
RT:__ZN21AudioScriptingClasses26InvokeOnAudioManagerUpdateEP21ScriptingExceptionPtr
elb:__ZN18AsyncUploadManager15DoDeCruncherJobEP26FileAssetUploadInstruction
cjb:__ZN9GfxDevice15ImmediateNormalEfff
eMf:_Enumerator__ctor_m1351041375
htd:_BaseInput_get_compositionString_m1887614380
svb:__ZN13GUIStyleState8TransferI24GenerateTypeTreeTransferEEvRT_
bzk:_emscripten_glGetActiveAttrib__wrapper
tZa:__ZN9Texture3D23VirtualRedirectTransferER14SafeBinaryRead
rrd:__Z33CertificateHandler_CUSTOM_ReleaseP12Il2CppObject
KHi:_Array_InternalArray__set_Item_TisVector2_t2156229523_m2671087464_gshared
FMi:_Array_InternalArray__get_Item_TisVector4_t3319028937_m1117939728_gshared
Tfc:__ZNSt3__26vectorIN9ShaderLab20SerializedSubProgram16TextureParameterENS_9allocatorIS3_EEE8__appendEj
g9i:_X509CertificateCollection_Contains_m743657353
eWg:_DirectoryInfo_Initialize_m1389772934
ZSa:__ZN9Texture2D13UploadTextureEi
NQb:__ZN7ApiGLES9MapBufferEjN2gl12BufferTargetEllj
XO:__ZN4FMOD6System19setSoftwareChannelsEi
vkb:__ZN9GfxDevice19SetSinglePassStereoE16SinglePassStereo
Hrk:_bitshift64Lshr
bDa:__Z40BuildSingleStreamChannelInfoWithDefaultsP11ChannelInfoRK20VertexChannelsLayout17ShaderChannelMaskS4_S4_
gLg:_Hashtable_System_Collections_IEnumerable_GetEnumerator_m2751657639
sGc:__Z62ScriptableObject_CUSTOM_CreateScriptableObjectInstanceFromTypeP12Il2CppObject
EVd:_HeaderHandler_Invoke_m3513051789
ZFe:__ZL77CanvasScaler_t2767979955_CustomAttributesCacheGenerator_m_ReferenceResolutionP21CustomAttributesCache
Bhi:__Z144RuntimeInvoker_RuntimeObject_RuntimeObject_Int32_t2950945753_RuntimeObject_RuntimeObject_RuntimeObject_RuntimeObject_RuntimeObject_RuntimeObjectPFvvEPK10MethodInfoPvPS4_
bQh:_Type_get_IsPointer_m4067542339
q$f:_Text_get_supportRichText_m1837499160
Prc:__Z60Register_UnityEngine_Input_INTERNAL_set_compositionCursorPosv
QEf:_Vector3_Magnitude_m3447562852
puf:_Component__ctor_m1928064382
etk:dynCall_viiiii
ktk:dynCall_viiiif
N5b:__Z59ProcessShadowCasterNodeVisibilityAndCullWithoutUmbra_KernelILN17CullingParameters9LayerCullE1ELi12EEvR9IndexListRK22SceneCullingParametersPK9SceneNodePK4AABBjjPKN4math7_float4E
G9c:_Cubic_To
e7f:_Context_get_Protocol_m1078422015
mFc:__Z44Register_UnityEngine_Camera_get_farClipPlanev
jr:__Z25InverseTransformDirection23TransformAccessReadOnlyRKN4math7_float3Eb
Y8f:_TlsClientHello_Update_m3773127362
tnj:_ToggleGroup_SetAllTogglesOff_m4184050071
z7j:__ZN6il2cpp2gc16GarbageCollector14GetOrCreateCCWEP12Il2CppObjectRK10Il2CppGuid
J4j:__ZN6il2cpp2vm5Image21FromTypeNameParseInfoEPK11Il2CppImageRKNS0_17TypeNameParseInfoEb
NLe:_MonoCustomAttrs_IsDefined_m2996012389
ZNb:__ZN17BufferManagerGLES13AcquireBufferEjN14DataBufferGLES11BufferUsageEb
Nwj:_TextGenerator_PopulateAlways_m1922695746
Y3g:_Decimal__ctor_m3650533794
wUf:_MaskableGraphic_UpdateClipParent_m2605828397
yeg:_TripleDESTransform_GetStrongKey_m292426577
bSe:_AssemblyBuilder_get_Location_m384539722
Rnd:__ZN16UnityAdsSettingsD0Ev
bQb:__ZNK7ApiGLES10DebugLabelEN2gl10ObjectTypeEjPKc
yoa:__ZN9Scripting11UnityEngine9Matrix4x412CleanupProxyEv
FWg:_DirectoryNotFoundException__ctor_m4004339866
rrk:__ZNK10__cxxabiv121__vmi_class_type_info16search_below_dstEPNS_19__dynamic_cast_infoEPKvib
wwj:_TextGenerator__ctor_m1349784994
gVf:_Navigation_Equals_m317484440
H1i:_Collection_1_System_Collections_IList_set_Item_m876512695_gshared
zlc:__Z38DataUtility_CUSTOM_Internal_GetMinSizeP12Il2CppObjectP13Vector2fIcall
Bzc:__ZN8PlayableC2E17ScriptingClassPtr18DirectorPlayerType
mNf:_Vector3_Distance_m886789632
Dmf:_ObjectReader_ReadObjectGraph_m1689734232
sDf:_MonoBehaviour_StopCoroutine_m907039165
wXj:_il2cpp_class_has_attribute
brh:_DSAManaged_get_KeySize_m2738463749
DG:__ZN14SafeBinaryRead21TransferSTLStyleArrayI13dynamic_arrayIjLj0EEEEvRT_17TransferMetaFlags
bja:__ZN6prcoreL12RemapGenericI15TexFormatRGB88817TexFormatARGB8888EEvPKNS_9InnerInfoE
KNf:_Vector4_op_Subtraction_m1632208160
T7:__Z27FindOrCreateMonoScriptCache17ScriptingClassPtr22InitScriptingCacheTypeP6Objecti
pBb:__Z18Transfer_BlittableI18StreamedBinaryReadILb0EELb1E8Vector3fEvRK29SerializationCommandArgumentsR31RuntimeSerializationCommandInfo
ehd:__ZN2UI14CanvasRenderer13SyncVertexPtrER8JobFenceNS0_8SyncFlagE
uOg:_CultureInfo_GetFormat_m732021304
j8:__Z35scripting_method_get_argument_count18ScriptingMethodPtr
Gmi:__Z46RuntimeInvoker_RuntimeObject_Double_t594665363PFvvEPK10MethodInfoPvPS4_
qmg:_EncoderReplacementFallback__ctor_m2980727890
ZHg:_ArrayList_Synchronized_m1327684267
lmc:__Z20Gradient_CUSTOM_InitP12Il2CppObject
OKd:_MethodBase_get_IsPublic_m2180846589
aLc:__Z48Register_UnityEngine_GUIUtility_Internal_ExitGUIv
Rxh:_DefaultComparer_Equals_m2574572657_gshared
nXg:_FileStream_get_CanWrite_m1199612770
m6b:__ZL21CullDynamicObjectsJobP14CullingJobDataj
ldd:__ZN2UI15ClearCanvasDataER8JobFenceRNS_10CanvasDataE
PJd:_TypeBuilder_get_IsGenericParameter_m1751799710
Aac:__ZN14ManagerContext17InitializeClassesEv
e$:__ZNSt3__26__treeINS_12__value_typeIN19CloudServiceHandler11ServiceTypeEPS2_EENS_19__map_value_compareIS3_S5_NS_4lessIS3_EELb1EEE13stl_allocatorIS5_L18MemLabelIdentifier88ELi16EEE25__emplace_unique_key_argsIS3_JRKNS_21piecewise_construct_tENS_5tupleIJRKS3_EEENSI_IJEEEEEENS_4pairINS_15__tree_iteratorIS5_PNS_11__tree_nodeIS5_PvEEiEEbEERKT_DpOT0_
pK:__ZN19StreamedBinaryWriteILb0EE21TransferSTLStyleArrayINSt3__26vectorI14ConstantStringNS2_9allocatorIS4_EEEEEEvRT_17TransferMetaFlags
Ezb:__ZN18StreamedBinaryReadILb1EE21TransferSTLStyleArrayI31ArrayOfManagedObjectsTransfererEEvRT_17TransferMetaFlags
zZf:_Selectable_get_spriteState_m1246443483
eVh:_Collection_1_System_Collections_ICollection_CopyTo_m787979241_gshared
a3h:_ReadOnlyCollection_1_System_Collections_Generic_ICollectionU3CTU3E_Clear_m1551418550_gshared
XB:__ZN8Animator24SetupAnimationClipsCacheEv
Xsk:dynCall_viiiiiiiiii
g9c:_t1_hints_open
VMe:_MonoType_get_AssemblyQualifiedName_m2662925380
rAf:_GUILayer_INTERNAL_CALL_HitTest_m1069802956
j0f:_BigInteger_GenerateRandom_m3872771375
SFi:__Z75RuntimeInvoker_RuntimeObject_Single_t1397266774_RuntimeObject_RuntimeObjectPFvvEPK10MethodInfoPvPS4_
xN:__ZN4FMOD7Channel11getUserDataEPPv
NJi:_Array_swap_TisBoolean_t97287965_TisBoolean_t97287965_m1115288271_gshared
C4c:_UNITY_tt_face_load_gasp
D$f:_Text_set_fontSize_m3617617524
O_c:_ft_ansi_stream_close
im:_JS_Sound_SetPitch
gNh:_Thread_FreeLocalSlotValues_m1195763560
_gg:_String_IndexOf_m1977622757
kYj:_il2cpp_runtime_invoke_convert_args
wyd:_TouchInputModule_Process_m3715678669
Iii:__Z114RuntimeInvoker_Int32_t2950945753_RuntimeObject_Int32_t2950945753_Int32_t2950945753_RuntimeObject_Int32_t2950945753PFvvEPK10MethodInfoPvPS4_
sHg:_ArrayList__cctor_m3052737821
r9:__ZN4core8hash_mapIiP4RTTIN11TypeManager27HashFunctorPersistentTypeIDENSt3__28equal_toIiEEE6insertERKiRKS2_
o0j:__ZN6il2cpp6icalls8mscorlib6System2IO6MonoIO11GetFileStatEP12Il2CppStringPNS3_8FileStatEPi
Mjb:__ZN9GfxDevice33InsertCustomMarkerCallbackAndDataEPFviPvEiS0_j
RZb:__ZNK9ShaderLab9IntShader6GetTagE11ShaderTagIDb
u3b:__Z25CalculateShadowCasterCullbPK5PlaneRK10Matrix4x4fRK8Vector3fff9LightTypeS7_R16ShadowCasterCullPKb
iqa:__ZN9Scripting11UnityEngine8EnumInfo12CleanupProxyEv
Qed:__ZN2UI14CanvasRenderer11SetMaterialEP8Materiali
Aig:_String__ctor_m229724522
_2d:__ZL54AssemblyName_t270931938_CustomAttributesCacheGeneratorP21CustomAttributesCache
VJa:__ZNK13RenderTexture37IsBoundMultisampledOnSecondaryTextureEv
Kfk:_GC_freehblk
e6i:_X509ExtensionCollection__ctor_m551870633
Rsc:__ZZL31RegisterRectTransformPropertiesR22GenericPropertyBindingEN32Wrapper_RectTransformAnchorMinx013GetFloatValueEPv
TVe:_MethodBuilder_MakeGenericMethod_m2175748754
P$b:__Z28RenderSceneShaderReplacementRK13dynamic_arrayI16RenderObjectDataLj0EERK19SharedRendererSceneP6ShaderRKN4core12basic_stringIcNS9_20StringStorageDefaultIcEEEER17ShaderPassContext
tcj:_QuickSearch_Search_m3063517397
Faf:_Enumerator_Reset_m2443320674_gshared
r8c:_ft_var_get_value_pointer
Ed:_glClearColor
PCc:__ZN9Scripting35DestroyObjectFromScriptingImmediateEP6Objectb
MDg:_AsyncCallback_Invoke_m3156993048
m7b:__ZNK6Camera48AreVRStereoViewMatricesWithinSingleCullToleranceEv
Bz:__ZN7mecanim5human25HumanPoseAddAdditiveLayerERNS0_9HumanPoseERKS1_fRKNS_6bitsetILj83EEE
Gzk:_glGetRenderbufferParameteriv__wrapper
cth:_SymmetricTransform_FinalDecrypt_m1677319445
rTg:_Int32_Equals_m3996243976_AdjustorThunk
thc:__ZN24GenerateTypeTreeTransfer8TransferINSt3__26vectorIN9ShaderLab20SerializedSubProgram12UAVParameterENS1_9allocatorIS5_EEEEEEvRT_PKc17TransferMetaFlags
nc:invoke_iiiiiiiiiiiiiii
Eak:__ZN6il2cpp2os6Thread33UnregisterCurrentThreadForCleanupEv
gCk:_emscripten_glIsRenderbuffer__wrapper
S3c:_otv_Coverage_get_first
ccd:__ZN2UI11CanvasGroup8TransferI19StreamedBinaryWriteILb0EEEEvRT_
BWg:_DirectoryInfo__ctor_m1000259829
LAa:__ZNK20IntermediateRenderer8GetLayerEv
dNg:_CultureInfo_ConstructInvariant_m3774343375
VXb:__ZN10Instancing10SetKeywordER16ShaderKeywordSetNS_7KeywordE
CTa:__ZN15QualitySettings8TransferI14SafeBinaryReadEEvRT_
MCg:_Array_ClearInternal_m532048538
X3i:_RIPEMD160Managed_HashCore_m2350629432
$1g:_DateTime__ctor_m12900168
jci:_IndexedSet_1_Insert_m1432638049_gshared
MYf:_ScrollRect_CalculateOffset_m927043599
ALi:_Array_FindLast_TisRuntimeObject_m1088586648_gshared
eUf:_Mask_GetModifiedMaterial_m2692272647
vjd:__ZN9Scripting11UnityEngine14RemoteSettings12CleanupProxyEv
jEc:__Z44Register_UnityEngine_RenderTexture_get_widthv
Hwf:_CullingGroup_t2096318768_marshal_pinvoke_back
U4j:__ZNSt3__26vectorIN6il2cpp2vm5Image20EmbeddedResourceDataENS_9allocatorIS4_EEE21__push_back_slow_pathIS4_EEvOT_
Vkk:__ZN6il2cpp2os9FastMutexD2Ev
Atk:dynCall_viiiiiif
Gjj:_GUIUtility_EndGUIFromException_m3524906492
c7:__ZN14SerializedFile10ReadObjectEx18ObjectCreationModebPPK8TypeTreePbR6Object
zej:_Expression_GetFixedWidth_m945658
xUi:_List_1_RemoveAll_m818254423_gshared
efj:_Literal_Compile_m2228022079
UJb:__ZN14dynamic_bitset6resizeEjb
B8c:_tt_property_get
Adh:_Array_InternalArray__ICollection_Contains_TisSlot_t3975888750_m58971838_gshared
oZ:__ZN11UnityEngine15CloudWebService10RestClientINS0_23WebRequestRestHeaderMapEE7SetDataEPKhj
iE:__ZN7mecanim8skeleton16SkeletonPoseCopyIN4math4trsXES3_EEvPKNS0_13SkeletonPoseTIT_EEPNS4_IT0_EE
_Dj:__ZN14dense_hash_mapI10KeyWrapperIPK11Il2CppClassEPKcN6il2cpp5utils11PointerHashIS1_EENS4_14EqualsComparerINSt3__28equal_toIS3_EEEENSC_9allocatorINSC_4pairIKS4_S6_EEEEE15set_deleted_keyERSI_
hhb:__ZN9GfxDevice34SetStencilRefWhenStencilWasSkippedEi
Isg:_X509Certificate2_Reset_m3988214799
mc:invoke_fi
Ljk:__ZN6il2cpp6icalls8mscorlib6System10Reflection4Emit11TypeBuilder20create_runtime_classEP27Il2CppReflectionTypeBuilderS7_
h2:__ZL21InternalAssertConsolePKcz
kc:invoke_ff
vsh:_RSAManaged_add_KeyGenerated_m3688329863
ibf:_Enumerator_get_CurrentKey_m3735262888_gshared
Prf:_HashAlgorithm_TransformFinalBlock_m3005451348
pRg:_Guid_NewGuid_m923091018
xd:_emscripten_glVertexAttrib3f
xRj:__ZN30dense_hashtable_const_iteratorINSt3__24pairIK10KeyWrapperINS1_IPK11Il2CppImageP11Il2CppClassEEEjEES9_17ReflectionMapHashIS8_EN14dense_hash_mapIS9_jSD_NS9_14EqualsComparerINS0_8equal_toIS8_EEEENS0_9allocatorISB_EEE9SelectKeyESI_SK_EppEv
zek:__ZThn8_N6il2cpp2vm13CachedCCWBaseINS0_13ManagedObjectEE7DestroyEv
rcg:_RSAPKCS1SignatureDeformatter_SetKey_m614724234
wKh:_UnicodeEncoding_GetByteCount_m3498858619
nNh:_Thread_GetSerializedCurrentUICulture_m3681656498
Ach:_Enum_ToObject_m26687919
pbi:_UnityEvent_1_FindMethod_Impl_m555893253_gshared
MYc:__ZN20TextRenderingPrivate8TextMesh11ApplyToMeshEv
Geh:_Array_InternalArray__ICollection_Remove_TisSlot_t384495010_m635565498_gshared
yvk:_emscripten_glDrawRangeElements__wrapper
yza:__Z28scripting_class_is_valuetype17ScriptingClassPtr
Bna:__ZN9Scripting11UnityEngine9Rendering13CommandBuffer9InitProxyEv
Ycc:__ZNSt3__25dequeI10InputEventNS_9allocatorIS1_EEE19__add_back_capacityEv
G0a:__ZN14BlendShapeDataD2Ev
oQb:__ZL18ProgramUniform3uivPK7ApiGLESjiihPKv
O3i:_RijndaelTransform_Encrypt128_m1940909042
aMe:_MonoEnumInfo_get_Cache_m752167006
Ked:__Z47CanvasRenderer_Set_Custom_PropHasPopInstructionP12Il2CppObjecth
CCf:_Mesh_get_uv3_m3614955461
ASa:__ZN5Image8SetImageEii13TextureFormatb
A8:__ZN17MessageIdentifier21GetRegisteredMessagesEv
w8j:__ZN6il2cpp2vm5Array3NewEP11Il2CppClassj
a0e:_InternalEnumerator_1_get_Current_m3900374024_gshared
Faj:_DelegatePInvokeWrapper_CostDelegate_t1722821004
tJg:_SynchronizedArrayListWrapper_CopyTo_m2886332653
png:_HybridDictionary_Remove_m2295600623
H3j:__GLOBAL__sub_I_Image_cpp
sdg:_SHA512Managed__ctor_m330347986
KNa:__ZNSt3__27__sort5IRPFbRKNS_4pairIN9ShaderLab16FastPropertyNameEfEES6_EPS4_EEjT0_SB_SB_SB_SB_T_
bF:__ZN11UnityEngine9Animation23SetMotionXProperyValuesERKNS0_30AnimatorGenericBindingConstantERKN7mecanim9animation14AvatarConstantERKNS5_12AvatarOutputE15TransformAccessy
sw:__ZN7mecanim9animation17GetClipCurveCountERKNS0_18ClipMuscleConstantE
Alk:__ZNSt3__26vectorINS_12basic_stringIDsNS_11char_traitsIDsEENS_9allocatorIDsEEEENS4_IS6_EEE8__appendEj
cph:_Kernel_LeftShift_m3302851050
Qbk:__ZN14dense_hash_mapI10KeyWrapperIPK19Il2CppGenericMethodEP10MethodInfoN6il2cpp8metadata23Il2CppGenericMethodHashENS4_14EqualsComparerINS8_26Il2CppGenericMethodCompareEEENSt3__29allocatorINSD_4pairIKS4_S6_EEEEE15set_deleted_keyERSG_
Krb:__Z29Transfer_Blittable_ArrayFieldI14SafeBinaryRead4AABBEvRT_R9ArrayInfoRK23StaticTransferFieldInfo
BSc:__ZN8JSONRead21TransferSTLStyleArrayI13dynamic_arrayI8Vector4fLj0EEEEvRT_17TransferMetaFlags
wid:__ZN14UnityAnalytics15SendCustomEventEPN11UnityEngine9Analytics15UserCustomEventE
aag:_RecordProtocol_SendRecord_m515492272
zSd:_ConfigHandler_ReadProvider_m3620509535
BAj:_UnityAnalyticsHandler_Internal_Destroy_m2102025341
Eze:__ZL56g_UnityEngine_UI_Assembly_CustomAttributesCacheGeneratorP21CustomAttributesCache
XPe:_Random__ctor_m4122933043
ooc:__Z46Register_UnityEngine_RectOffset_get_horizontalv
rOa:__ZN18DelayedCallManager8ClearAllEv
fgi:__Z180RuntimeInvoker_RuntimeObject_RuntimeObject_Int32_t2950945753_RuntimeObject_Int32U26_t1369213839_BooleanU26_t4125257963_BooleanU26_t4125257963_Int32U26_t1369213839_SByte_t1669577662PFvvEPK10MethodInfoPvPS4_
DFc:__Z22Mesh_CUSTOM_HasChannelP12Il2CppObject30InternalScriptingShaderChannel
a2f:_ASN1Convert_ToInt32_m2228176117
Exj:_CanvasGroup_get_interactable_m1362547832
P4b:__ZNK25RenderPrePassObjectSorterclERK16RenderObjectDataS2_
APd:_ResourceSet_Dispose_m1823973062
V6e:_InternalEnumerator_1_System_Collections_IEnumerator_get_Current_m3537550566_AdjustorThunk
Pzb:__Z22TransferField_NonArrayI18StreamedBinaryReadILb1EE27Converter_SimpleNativeClassI8GUIStyleEEvRK23StaticTransferFieldInfoR31RuntimeSerializationCommandInfoRT0_
le:_Mix_LoadWAV_RW
w3f:_EncryptedPrivateKeyInfo__ctor_m25839594
jke:__ZL81Mesh_t3648964284_CustomAttributesCacheGenerator_Mesh_get_subMeshCount_m3992802841P21CustomAttributesCache
Ox:__ZN7mecanim6memory16MecanimAllocator8AllocateEjj
JRb:__Z13IsFloatFormat14GraphicsFormat
gDe:__ZL84GraphicRaycaster_t2999697109_CustomAttributesCacheGenerator_m_IgnoreReversedGraphicsP21CustomAttributesCache
JVe:_MethodBuilder_Invoke_m3837446660
sC:__ZNSt3__27__sort4IRNS_6__lessIN11UnityEngine9Animation13CachedBindingES4_EEPS4_EEjT0_S8_S8_S8_T_
e2h:_ReadOnlyCollection_1_System_Collections_IList_Clear_m12445504_gshared
x6j:__ZN6il2cpp2gcL12alloc_handleEPNS0_10HandleDataEP12Il2CppObjectb
WLf:_Transform_get_worldToLocalMatrix_m399704877
Laj:_Enumerator_MoveNext_m55255603
Wme:__ZL57SpaceAttribute_t3956583069_CustomAttributesCacheGeneratorP21CustomAttributesCache
Wqg:_WebRequest_AddDynamicPrefix_m4246631209
fkh:_Array_InternalArray__ICollection_Add_TisRefEmitPermissionSet_t484390987_m1720891963_gshared
C9:__ZL16ReadTypeTreeImplILb1EEbR8TypeTreeRK16TypeTreeIteratorRPKhS6_i
Ckk:__ZN6il2cpp6icalls8mscorlib6System11Diagnostics10StackTrace9get_traceEP15Il2CppExceptionib
UWe:_Action_3_Invoke_m1376317295_gshared
Eif:_Dictionary_2_set_Item_m3327106492_gshared
De:_glBlendEquationSeparate
sm:_emscripten_glDeleteVertexArrays
dNb:__ZN13GfxDeviceGLES17SetComputeUniformE12ObjectHandleI18ComputeProgram_TagPvER18ComputeShaderParamjPKv
RBk:b95
odj:_Parser_IsNameChar_m698176442
WOi:_List_1_RemoveAt_m3459335427_gshared
vBk:_emscripten_glValidateProgram__wrapper
iBc:__ZN13MeshScripting27PrintErrorCantAccessChannelEPK4Mesh30InternalScriptingShaderChannel
pNf:_Vector3_get_sqrMagnitude_m1474274574_AdjustorThunk
p7i:_GeneralNames_ToString_m489778282
Ke:_emscripten_glUniform3fv
jeh:_Array_InternalArray__ICollection_Contains_TisRaycastHit2D_t2279581989_m2733133723_gshared
V0g:_Convert_ToByte_m1442000130
Sbg:_RSACryptoServiceProvider_get_KeySize_m2654153358
j1j:__ZN6il2cpp2vm9Exception20GetArgumentExceptionEPKcS3_
mTc:__Z29Transfer_Blittable_ArrayFieldI8JSONReadiEvRT_R9ArrayInfoRK23StaticTransferFieldInfo
DGh:_Enumerator_MoveNext_m625797905_AdjustorThunk
xIi:_Array_Resize_TisCustomAttributeTypedArgument_t2723150157_m3021884250_gshared
Fzk:_glDrawArrays__wrapper
_V:__ZN9AudioClip27IsFormatSupportedByPlatformERKN4core12basic_stringIcNS0_20StringStorageDefaultIcEEEE
amb:__ZN16GeometryJobTasks20ScheduleGeometryJobsER9GfxDevicePFvP15GeometryJobDataEPK22GeometryJobInstructionjb
ghc:__ZN9ShaderLab26SerializedShaderDependency8TransferI24GenerateTypeTreeTransferEEvRT_
w9h:_InvokableCall_3_Invoke_m3141788616_gshared
_bj:_PatternCompiler_EmitUntil_m3644194775
S4c:_UNITY_FT_Match_Size
jy:__ZN7mecanim20CreateValueArrayMaskEPKNS_18ValueArrayConstantERNS_6memory9AllocatorE
Krh:_KeyPairPersistence_ToXml_m812591779
zMe:_MonoType_GetFields_internal_m776921855
Qkd:__ZN11UnityEngine7Connect14AppUpdateEventC2Ev
XOd:_ResourceReader_Dispose_m3597121875
fza:__ZN12ImageFilters17RemoveImageFilterERK11ImageFilter
tuf:_BootConfigData__ctor_m4255151374
RFf:_PlayerConnectionInternal_UnityEngine_IPlayerEditorConnectionNative_RegisterInternal_m1817895617
ZYe:_InternalEnumerator_1_get_Current_m3073360606_AdjustorThunk
tek:__ZThn4_N6il2cpp2vm13ManagedObject14QueryInterfaceERK10Il2CppGuidPPv
Njb:__ZN9GfxDevice31InsertCustomBlitCallbackAndDataEPFviPvER33UnityRenderingExtCustomBlitParams
LUb:__Z32AddPathRemapsForBuiltinResourcesRKN4core12basic_stringIcNS_20StringStorageDefaultIcEEEE
TGa:__ZN14RenderSettings23VirtualRedirectTransferER24GenerateTypeTreeTransfer
atb:__ZL26Transfer_SimpleNativeClassI17RemapPPtrTransfer17AnimationCurveTplIfELb0EEvRK29SerializationCommandArgumentsR31RuntimeSerializationCommandInfo
rui:__Z82RuntimeInvoker_Single_t1397266774_RuntimeObject_TextGenerationSettings_t1351628751PFvvEPK10MethodInfoPvPS4_
XOf:_InputField_set_caretWidth_m707310868
um:_glDeleteTransformFeedbacks
y6h:_U3CCreateWhereIteratorU3Ec__Iterator1D_1_MoveNext_m612748497_gshared
pf:_JS_WebRequest_Send
Dek:__ZN6il2cpp2os4Time31GetTicks100NanosecondsMonotonicEv
rbk:__ZNSt3__26__treeINS_12basic_stringIcNS_11char_traitsIcEENS_9allocatorIcEEEENS_4lessIS6_EENS4_IS6_EEE16__construct_nodeIJRKS6_EEENS_10unique_ptrINS_11__tree_nodeIS6_PvEENS_22__tree_node_destructorINS4_ISH_EEEEEEDpOT_
AWg:_MonoIO_GetFileSystemEntries_m37351365
y4g:_Convert_ToSByte_m516918950
dyk:_emscripten_glGenRenderbuffers__wrapper
yDf:_MonoBehaviour_print_m330341231
OIf:_ReapplyDrivenProperties_Invoke_m1151937880
N3i:_RijndaelTransform_ECB_m670662322
jKj:__ZN6il2cpp2vm13MetadataCache21GetFieldInfoFromIndexEj
_ve:__ZL62EventType_t3528516131_CustomAttributesCacheGenerator_mouseDragP21CustomAttributesCache
zEg:_Boolean_System_IConvertible_ToDouble_m2859188631_AdjustorThunk
kX:__ZN5physx14PxLightCpuTaskD2Ev
Oq:__ZNSt3__26vectorIN4core12basic_stringIcNS1_20StringStorageDefaultIcEEEENS_9allocatorIS5_EEE6assignINS_11__wrap_iterIPS5_EEEENS_9enable_ifIXaasr21__is_forward_iteratorIT_EE5valuesr16is_constructibleIS5_NS_15iterator_traitsISE_E9referenceEEE5valueEvE4typeESE_SE_
hJf:_Vector2_get_zero_m540426400
NWj:_il2cpp_init
$ki:__Z105RuntimeInvoker_RuntimeObject_RuntimeObject_StreamingContext_t3711869237_ISurrogateSelectorU26_t3801502798PFvvEPK10MethodInfoPvPS4_
Obd:__ZNSt3__26__treeIPN2UI14CanvasRendererENS_4lessIS3_EENS_9allocatorIS3_EEE7destroyEPNS_11__tree_nodeIS3_PvEE
N$b:__ZL25UpdateCameraDepthTexturesRK17RenderLoopContextP13RenderTextureS3_RK13dynamic_arrayI16RenderObjectDataLj0EEbbbR17ShaderPassContext
hMb:__ZN13GfxDeviceGLES22UploadTextureSubData2DE9TextureIDPKhiiiiii14GraphicsFormat
$7e:_DefaultComparer_Compare_m3648806637_gshared
_Gc:__Z35Register_UnityEngine_Screen_get_dpiv
SWc:__ZN13SpeedTreeWind7AdvanceEbd
n_e:_InternalEnumerator_1_get_Current_m923139215_AdjustorThunk
wHj:__ZN15dense_hashtableINSt3__24pairIK10KeyWrapperIN6il2cpp5utils13dynamic_arrayIPK10Il2CppTypeLj4EEEEPFvvEEESA_NS3_8metadata19Il2CppSignatureHashEN14dense_hash_mapISA_SD_SG_NSA_14EqualsComparerINSF_22Il2CppSignatureCompareEEENS0_9allocatorISE_EEE9SelectKeyESK_SM_E12expand_arrayEjN21dense_hash_map_traits17integral_constantIbLb0EEE
Vhh:_Array_FindLastIndex_TisRuntimeObject_m2929523835_gshared
Spc:__ZN9Transform16SetLocalPositionERK8Vector3f
Edc:__ZN10BootConfig4Data12InitFromFileEPPKcjS2_
HTc:__ZL62__ManagedRegistrationHelperFunction_ParticleSystemVertexStreamPv
DO:__ZN12SoundManagerC2Ev
A4c:_UNITY_tt_face_free_name
lH:__ZNSt3__26__sortIRNS_6__lessI4PPtrI13AnimationClipES4_EEPS4_EEvT0_S8_T_
H0c:_cff_random
KQb:__ZN14DataBufferGLES3MapEjjj
Co:FUNCTION_TABLE_fidi
Rja:__ZL77__ManagedRegistrationHelperFunction_NativeContainerIsAtomicWriteOnlyAttributePv
eYe:_ArrayReadOnlyList_1_Contains_m2459654648_gshared
Pxa:__ZNK6Camera33CalculateFarPlaneWorldSpaceLengthEv
wtd:_BaseInput_GetButtonDown_m3789908809
WTi:_List_1_System_Collections_IList_Insert_m2401407093_gshared
BTe:_EnumBuilder_get_BaseType_m1707640163
vRj:__ZNK15dense_hashtableINSt3__24pairIK10KeyWrapperINS1_IPK11Il2CppImageP11Il2CppClassEEEjEES9_17ReflectionMapHashIS8_EN14dense_hash_mapIS9_jSD_NS9_14EqualsComparerINS0_8equal_toIS8_EEEENS0_9allocatorISB_EEE9SelectKeyESI_SK_E5beginEv
t0c:_cf2_stack_setReal
JJ:__ZL60__ManagedRegistrationHelperFunction_MeshReconstructionConfigPv
y0:__GLOBAL__sub_I_Runtime_Graphics_3_cpp
LL:__ZN4FMOD3DSP8getInputEiPPS0_PPNS_13DSPConnectionE
NR:__ZN11SoundHandle8Instance13CreateChannelERS_b
$Oe:_NumberFormatter_NumberToString_m2529982306
YS:__ZN13AudioListenerD2Ev
Cad:_UNITY_FT_Done_Library
Okk:__ZN6il2cpp2os5MutexC2Eb
g8i:_PKCS12__cctor_m3271060407
w9e:_Comparer_1__cctor_m2282308543_gshared
kgd:__ZN2UI13CanvasManager17EmitDataForCameraEP6Camera
r2f:_ARC4Managed_CheckInput_m1562172012
wFh:_Enumerator_MoveNext_m4018122760_gshared
vAj:_CustomEventData_Dispose_m4023815755
S5i:_TlsStream_ReadBytes_m2334803179
eGc:__Z44Register_UnityEngine_Material_GetTextureImplv
N3h:_ReadOnlyCollection_1_System_Collections_IList_Add_m2445024939_gshared
_wf:_Debug_Log_m4051431634
Wzk:_glUniform3uiv__wrapper
IXg:_FileStream_EndRead_m3904255625
bHb:__ZL8MainLoopv
blc:__ZN17TransformInternal25CopyTransformSubhierarchyER18TransformHierarchyjS1_yyjb
hue:__ZL59AnimatorStateInfo_t509032636_CustomAttributesCacheGeneratorP21CustomAttributesCache
_Ud:_CallContextRemotingData_Clone_m14303327
vfd:__Z47Register_UnityEngine_CanvasRenderer_SetMaterialv
iCk:_emscripten_glIsShader__wrapper
CUc:__ZN11UnityEngine9Analytics16StartupTimeEvent23SetAssembliesTimingInfoEyy
crh:_DSAManaged_get_PublicOnly_m3575594967
sLa:__ZN9ShaderLabL15GetSizedTextureEPK6CameraRKNS_16FastPropertyNameEbbRb
$ad:__Z26CleanupTextRenderingModulev
eT:__ZN13AudioListener23VirtualRedirectTransferER24GenerateTypeTreeTransfer
fcb:__ZNK12HandlerChain9EnumerateEPKcP19dynamic_block_arrayI13FileEntryInfoLj32EEbPPv19FileEnumerationFlag
h1a:__ZThn32_N12MeshRendererD1Ev
BJa:__ZN13RenderTexture23VirtualRedirectTransferER19StreamedBinaryWriteILb0EE
wdk:__ZN6il2cpp2vm13ComObjectBase17GetMarshalSizeMaxERK10Il2CppGuidPvjS5_jPj
Qpk:_truncate
Vhc:__ZN9ShaderLab27SerializedShaderVectorValue8TransferI18StreamedBinaryReadILb0EEEEvRT_
BUa:__ZN8Renderer21RendererBecameVisibleEv
Anb:__ZN10Instancing11DrawAPIArgsD2Ev
r4:__ZN10MemoryPool16StaticInitializeEPv
dga:__ZN11TypeManager21CleanupGlobalInstanceEv
Jch:_Enum_ToString_m2240012010
N:Math_atan
xa:invoke_iifii
MN:__ZNK10SampleClip11GetResourceEv
QLd:_MonoEvent_get_Name_m3774595291
phb:__ZN9GfxDevice15GetStereoMatrixE21MonoOrStereoscopicEye24BuiltinShaderMatrixParamR10Matrix4x4f
Web:__ZN4core12basic_stringIcNS_20StringStorageDefaultIcEEE6resizeEj
wJc:__Z43Register_UnityEngine_Event_set_displayIndexv
tVc:__GLOBAL__sub_I_CmEventProfiler_cpp
Rti:__Z128RuntimeInvoker_RuntimeObject_RuntimeObject_SByte_t1669577662_SByte_t1669577662_SByte_t1669577662_SByte_t1669577662_RuntimeObjectPFvvEPK10MethodInfoPvPS4_
GKh:_UnicodeEncoding_GetMaxByteCount_m3053620432
GUd:_ArgInfo__ctor_m1950205784
L6h:_Nullable_1_Equals_m4046255732_AdjustorThunk
dwa:__ZN17GlobalGameManager23VirtualRedirectTransferER24GenerateTypeTreeTransfer
emd:__ZN19UnityConnectServiceD0Ev
_mj:_ToggleGroup_ValidateToggleIsInGroup_m3201190739
NNj:__ZN6il2cpp2vm7Runtime17GetDelegateInvokeEP11Il2CppClass
hNd:_MonoProperty_get_PropertyType_m4138957578
L0:___cxx_global_var_init_123
Bld:__ZN11UnityEngine15PlatformWrapper21GetCopyTextureSupportEv
S6g:_DateTime_get_Month_m1566006993_AdjustorThunk
gdh:_Array_get_swapper_TisRaycastResult_t3360306849_m1267000905_gshared
$ag:_SslClientStream__ctor_m3478574780
EV:__ZN11AudioModule27IsFormatSupportedByPlatformEPKc
vZc:_UNITY_FT_Render_Glyph
XSe:_DerivedType_GetFields_m3190137327
Bud:_EventSystem_OnDisable_m3820258344
UQa:__ZN9Texture2D5ResetEv
eTc:__Z19TransferField_ArrayI8JSONRead16Converter_StringEvRK23StaticTransferFieldInfoR31RuntimeSerializationCommandInfoRT0_
Csf:_MACTripleDES_Setup_m560957914
qvc:__ZZN10MeshFilter15InitializeClassEvEN31FunctorImpl_108kDidAddComponent4CallEPviR11MessageData
VHj:__ZN15dense_hashtableINSt3__24pairIK10KeyWrapperIPK19Il2CppGenericMethodEPK26Il2CppGenericMethodIndicesEES6_N6il2cpp8metadata23Il2CppGenericMethodHashEN14dense_hash_mapIS6_SA_SE_NS6_14EqualsComparerINSD_26Il2CppGenericMethodCompareEEENS0_9allocatorISB_EEE9SelectKeyESI_SK_E6insertERKSB_
Y4b:__Z19SetupShadowCullDataRK27ScriptableCullingParametersRK17ShaderReplaceDataPK22SceneCullingParametersf16ShadowProjectionR14ShadowCullData
Wma:__ZN9Scripting11UnityEngine14UnityException12CleanupProxyEv
A$c:_cff_size_request
gLa:__ZN15DirectorManager14ConnectionPool12SwitchBucketEP14ConnectionList
fdd:__ZN2UI11CompareFuncEPNS_6CanvasES1_
qN:__ZN4FMOD7Channel11set3DSpreadEf
ilk:__ZN6il2cpp2os6Memory14AlignedReAllocEPvjj
Mif:_Dictionary_2_Resize_m1156965638_gshared
o9c:_pshinter_get_t1_funcs
UPa:__ZN24GenerateTypeTreeTransfer16TransferTypelessEPjPKc17TransferMetaFlags
hjh:_Array_InternalArray__IndexOf_TisPlayableBinding_t354260709_m3544096311_gshared
Ddg:_SHA512Managed_processLength_m2162821715
pQb:__ZL18ProgramUniform4uivPK7ApiGLESjiihPKv
LGf:_Vector3_get_normalized_m2454957984
QMh:_Mutex_CreateMutex_internal_m3763633491
CFe:__ZL74SpriteState_t1362986479_CustomAttributesCacheGenerator_m_HighlightedSpriteP21CustomAttributesCache
jHa:__ZN10builtintex21GetAttenuationTextureEv
Rm:FUNCTION_TABLE_viiiiiiiiiiiiiii
LAc:__ZNK4Mesh19CanAccessFromScriptEv
zsa:__ZN17PersistentManager43LocalSerializedObjectIdentifierToInstanceIDERK31LocalSerializedObjectIdentifierRiNS_9LockFlagsE
d4:__Z15GetGraphicsCapsv
ZRb:__ZN7ApiGLES15BindVertexArrayEN2gl6HandleILNS0_10ObjectTypeE3EEE
Dth:_Dictionary_2_System_Collections_IDictionary_Remove_m316877720_gshared
I_b:__Z20IntersectionAABBAABBRK10MinMaxAABBS1_PS_
_sc:__ZZL31RegisterRectTransformPropertiesR22GenericPropertyBindingEN32Wrapper_RectTransformSizeDeltax013SetFloatValueEPvf
d5i:_SslStreamBase_get_SecurityProtocol_m596101988
sWj:__ZNSt3__212basic_stringIcNS_11char_traitsIcEENS_9allocatorIcEEE6__initIPKcEENS_9enable_ifIXsr21__is_forward_iteratorIT_EE5valueEvE4typeESA_SA_
api:__Z121RuntimeInvoker_Void_t1185182177_Int32_t2950945753_Int32_t2950945753_Int32_t2950945753_Int32_t2950945753_Int32_t2950945753PFvvEPK10MethodInfoPvPS4_
z8c:_ft_var_load_item_variation_store
Mxg:_DeriveBytes_set_Salt_m441577179
Lbi:_UnityEvent_3_FindMethod_Impl_m1640458315_gshared
$1d:__ZL61ConstructorBuilder_t2813524108_CustomAttributesCacheGeneratorP21CustomAttributesCache
nob:__Z18Transfer_BlittableI14SafeBinaryReadLb1EhEvRK29SerializationCommandArgumentsR31RuntimeSerializationCommandInfo
F$f:_Text_get_verticalOverflow_m2420459396
Tga:__ZNSt3__224__buffered_inplace_mergeIRNS_4lessIN4core12basic_stringIcNS2_20StringStorageDefaultIcEEEEEENS_11__wrap_iterIPS6_EEEEvT0_SC_SC_T_NS_15iterator_traitsISC_E15difference_typeESG_PNSF_10value_typeE
y0d:__ZL51HashKeys_t1568156503_CustomAttributesCacheGeneratorP21CustomAttributesCache
u_b:__ZNK6Camera19GetStereoSeparationEv
t6:__Z22DestroyObjectHighLevelP6Objectb
Fqf:_KeySizes__ctor_m3113946058
a$b:__Z26BeginRenderQueueExtractionR15RenderNodeQueuePK16RendererCullDataRK13CullingOutputPK12LODDataArray15ExtractionFlagsP18JobBatchDispatcher
cZc:__ZNK13TextRendering4Font10GetTextureEv
nj:_emscripten_glVertexAttrib3fv
FUd:_LifetimeServices__cctor_m2128864873
LJf:_ScriptableObject_CreateScriptableObjectInstanceFromType_m2783367459
$Rh:_UInt16_TryParse_m3193697465
Q$j:__ZN6il2cpp6icalls8mscorlib6System9Threading6Thread16SetName_internalEP12Il2CppThreadP12Il2CppString
rj:_glBeginTransformFeedback
$9g:_Decimal_op_Division_m2407964042
FPf:_InputField_get_asteriskChar_m965956856
_Ha:__ZN18JobBatchDispatcherC2E11JobPriorityi
Krf:_HashAlgorithm_Create_m644612360
$Ef:_Playable_get_Null_m3556999077
Foh:_BigInteger_TestBit_m1507066813
KJc:__ZN8GUIStyle14GetBuiltinFontEv
ojb:__ZN9GfxDevice13EndFrameStatsEv
fwc:__Z7Empty2DP9Texture2DPhiiii
iHi:_Array_InternalArray__set_Item_TisRefEmitPermissionSet_t484390987_m3786305619_gshared
evj:_DisplayBuffer_GetAllDisplayLines_m956916978
WYj:__ZN6il2cpp2vm6Thread16RequestInterruptEP12Il2CppThread
OK:__ZL34StaticDestroyAudioCustomFilterRootPv
SXe:_ArrayReadOnlyList_1_GetEnumerator_m3931906247_gshared
Xna:__ZN9Scripting11UnityEngine9Profiling7Sampler9InitProxyEv
h9a:__ZN19ComputeShaderKernelD2Ev
k_a:__ZN10DynamicVBO9DrawChunkERK21DynamicVBOChunkHandleP17VertexDeclarationPKNS_10DrawParamsEi
sCj:__ZN6il2cpp2vmL17SetupEventsLockedEP11Il2CppClassRKNS_2os12FastAutoLockE
opc:__ZN10systeminfo21GetTemporaryCachePathEv
rlj:_AnalyticsEventTracker_Start_m1087627554
Cek:__ZN6il2cpp2os4Time29GetTicksMillisecondsMonotonicEv
HGd:_GridLayoutGroup_CalculateLayoutInputVertical_m357562599
iMh:_CompressedStack_Capture_m3327262890
_Jh:_StringBuilder_Replace_m1968561789
w9a:__ZN12ScriptMapper8TransferI14SafeBinaryReadEEvRT_
Hub:__Z18Transfer_BlittableI24GenerateTypeTreeTransferLb1E10Matrix4x4fEvRK29SerializationCommandArgumentsR31RuntimeSerializationCommandInfo
Nxd:_StandaloneInputModule_get_repeatDelay_m1143359059
XLh:_UTF8Encoding_GetMaxByteCount_m420651053
due:__ZL73AnimationMotionXToDeltaPlayable_t272231551_CustomAttributesCacheGeneratorP21CustomAttributesCache
BPc:__ZN9JSONWrite8TransferI10Matrix4x4fEEvRT_PKc17TransferMetaFlags
d1c:_cf2_hintmap_map
j7g:_DateTime_Compare_m2855073242
dPi:_List_1_get_Item_m1651423686_gshared
$Ph:_Type_get_IsExplicitLayout_m1182254884
vrb:__ZN15SerializeTraitsI5RectTIfEE8TransferI14SafeBinaryReadEEvRS1_RT_
tKh:_UnicodeEncoding__ctor_m3604373700
eEc:__Z41Register_UnityEngine_Texture_get_wrapModev
E_c:_UNITY_FT_Raccess_Get_DataOffsets
Dzc:__ZN14PlayableOutputC2EjP13PlayableGraph
RUa:__ZThn32_NK8Renderer11GetMaterialEi
uBd:_ContentSizeFitter_get_rectTransform_m3297799590
Xek:__ZN6il2cpp6icalls8mscorlib6System7Runtime15InteropServices8GCHandle15GetTargetHandleEP12Il2CppObjectii
Bvf:_CameraCallback_Invoke_m3308824940
W1a:__ZN9InputAxis8TransferI18StreamedBinaryReadILb0EEEEvRT_
Yeg:_X509Certificate_Import_m3563119820
k1:__ZN13MemoryManager12GetAllocatorE10MemLabelId
s0f:_BigInteger_ToString_m3260066955
ghb:__ZN9GfxDevice29GetMinimumNodesPerGraphicsJobEv
xie:__ZL63RuntimePlatform_t4159857903_CustomAttributesCacheGenerator_NaClP21CustomAttributesCache
M5h:_Func_1_Invoke_m370346740_gshared
Zrc:__Z13RegisterClassI4MeshEvPKc
xqb:__ZN14SafeBinaryRead8TransferIyEEvRT_PKc17TransferMetaFlags
d_f:_Slider__ctor_m873361617
qJe:_SynchronizedWriter__ctor_m495278869
cqc:__ZN2UI13RectTransform13GetWorldSpaceER8Vector3fR8Vector2f
qQd:_GCHandle__ctor_m2690474163_AdjustorThunk
lfa:__ZN15DirectorManager17OnSampleFixedTimeEv
B6b:__ZNK13RendererScene21GetDynamicObjectCountEv
d3g:_Double_Parse_m1135962389
f6i:_X509Extension__ctor_m710637961
WNg:_CultureInfo_get_CurrentCulture_m1632690660
Yrh:_PKCS1_OS2IP_m65970018
P0f:_ModulusRing_BarrettReduction_m3024442734
X$h:_ReadOnlyCollection_1_System_Collections_IList_set_Item_m70952451_gshared
p4a:__ZNSt3__26vectorIN30RuntimeInitializeOnLoadManager9ClassInfoE13stl_allocatorIS2_L18MemLabelIdentifier13ELi16EEE8__appendEj
nvb:__ZN24GenerateTypeTreeTransfer32TransferSTLStyleArrayWithElementI23ManagedObjectTransfererEEvRT_17TransferMetaFlags
Cbk:__ZN6il2cpp6icalls8mscorlib6System11Environment12get_PlatformEv
mpg:_HttpWebRequest__cctor_m1467954389
f6f:_CipherSuiteCollection_System_Collections_IList_Remove_m2463347416
SAf:_DefaultValueAttribute_GetHashCode_m3368187153
Png:_DictionaryNodeEnumerator_get_Value_m1345533116
ZTc:__ZN27PerformanceReportingManager19ConfigChangedStaticEPS_RKN4core12basic_stringIcNS1_20StringStorageDefaultIcEEEER8JSONReadb
smc:__Z42Register_UnityEngine_Behaviour_get_enabledv
N4i:_SslStreamBase_EndNegotiateHandshake_m1124299797
x4i:_SslStreamBase__ctor_m3009266308
zVj:__ZN6il2cpp2vm14TypeNameParser23ParseNestedTypeOptionalERi
R5a:__ZN17PersistentManager22CheckInstanceIDsLoadedEPiiNS_9LockFlagsE
Ukk:__ZN6il2cpp2os13FastMutexImplC2Ev
XPd:_RuntimeHelpers_InitializeArray_m4077124945
m4a:__ZN30RuntimeInitializeOnLoadManager9ClassInfo8TransferI14SafeBinaryReadEEvRT_
A0f:_BigInteger_op_Equality_m1194739960
qLh:_UTF7Encoding_GetCharCount_m2792854727
TJ:__ZN9Scripting11UnityEngine2XR5Tango24MeshReconstructionConfig9InitProxyEv
C2b:__ZL13RenderCastersiRK8Vector3fS1_RK13ShadowJobDataR17ShaderPassContextRKNSt3__26vectorI16ShadowCasterData13stl_allocatorIS9_L18MemLabelIdentifier2ELi16EEEERKNS8_I20ShadowCasterPartDataSA_ISG_LSB_2ELi16EEEERK15RenderNodeQueuebPKj
nl:_emscripten_glGetShaderInfoLog
E$f:_Text_get_horizontalOverflow_m4155575610
_mf:_ObjectReader_RecordFixup_m4125245357
V4c:_UNITY_ft_glyphslot_set_bitmap
OKi:_Dictionary_2_Do_ICollectionCopyTo_TisRuntimeObject_m1362949338_gshared
Cl:_glUniform1i
lQf:_InputField_Validate_m4147207871
pIa:__ZN6prcoreL11inner_clearILj3EEEvPhjjj
PMg:_CCGregorianCalendar_dmy_from_fixed_m494173177
bSi:_List_1_System_Collections_IList_IndexOf_m3211997095_gshared
HFg:_Byte_System_IConvertible_ToUInt64_m371883985_AdjustorThunk
h7c:_Read_CVT_Stretched
RMj:__ZN6il2cpp6icalls8mscorlib6System18CollectTypeMethodsINS_5utils10functional10TrueFilterEEEvP11Il2CppClassPKS7_jRKT_RNSt3__26vectorIPK10MethodInfoNSE_9allocatorISI_EEEERA65535_b
kHb:__Z14SetPlayerPause11PlayerPauseb
Dka:__ZL48__ManagedRegistrationHelperFunction_CullingGroupPv
iKg:_CollectionBase_System_Collections_ICollection_CopyTo_m2850099809
b$h:_ReadOnlyCollection_1_System_Collections_IEnumerable_GetEnumerator_m3042843502_gshared
$xd:_StandaloneInputModule_ActivateModule_m2232892298
yQd:_GCHandle_Free_m1457699368_AdjustorThunk
qNh:_Thread_get_CurrentUICulture_m1397429997
T1c:_cff_done_blend
WFd:_Graphic_RegisterDirtyLayoutCallback_m1235519898
y5:__Z30scripting_stack_trace_info_for21ScriptingExceptionPtrR14StackTraceInfo
gqa:__ZN9Scripting11UnityEngine6Events14UnityEventBase12CleanupProxyEv
yuk:_glCompressedTexSubImage3D__wrapper
XZf:_Selectable_Select_m1465131241
J0b:__ZN15SkyboxGenerator18GetSixFaceSkyboxVBEv
WRj:__ZN15dense_hashtableINSt3__24pairIK10KeyWrapperINS1_IPK12PropertyInfoP11Il2CppClassEEEjEES9_17ReflectionMapHashIS8_EN14dense_hash_mapIS9_jSD_NS9_14EqualsComparerINS0_8equal_toIS8_EEEENS0_9allocatorISB_EEE9SelectKeyESI_SK_EC2ERKSN_j
AM:__ZN15AudioReverbZone7CleanupEv
ITb:__ZN10BufferGLESD0Ev
SGb:__Z20scripting_gc_disablev
WDg:_Attribute_IsDefined_m1430686743
uaj:_IntervalCollection_Optimize_m161975983
XLj:__ZN6il2cpp2vm10ThreadPool5QueueEP14Il2CppDelegatePPvS3_P12Il2CppObject
IUh:_Version__ctor_m417728625
Jja:__ZN16memory_pool_implILi68EE15AutoPoolWrapper10InitializeEPv
_0g:_Convert_ToByte_m3567528984
I8h:_InvokableCall_1_Invoke_m3497872319_gshared
GFb:__ZN9Scripting35ErrorMessageForUnsupportedEnumFieldE17ScriptingFieldPtr
zmh:_Level2MapComparer__cctor_m1866197409
_Ab:__Z29Transfer_Blittable_ArrayFieldI18StreamedBinaryReadILb1EEfEvRT_R9ArrayInfoRK23StaticTransferFieldInfo
uia:__ZN6prcoreL26RemapGenericIntegerToFloatI17TexFormatARGB888818TexFormatARGBFloatEEvPKNS_9InnerInfoE
T9e:_Enumerator_get_CurrentKey_m2230405065_AdjustorThunk
DJg:_BitArray__ctor_m2765908219
blg:_StringComparer_get_InvariantCultureIgnoreCase_m2404489191
Zvj:_Font_get_material_m1471867149
Gek:__ZN6il2cpp6icalls8mscorlib6System7Runtime16CompilerServices14RuntimeHelpers15InitializeArrayEP11Il2CppArrayi
wTd:_Context_Freeze_m2594571993
Kod:__ZZN18UnityConnectClient23RegisterGlobalCallbacksEvEN46EarlyUpdateUnityConnectClientUpdateRegistrator7ForwardEv
Gid:__ZNSt3__26__treeINS_12__value_typeIjN4core12basic_stringIcNS2_20StringStorageDefaultIcEEEEEENS_19__map_value_compareIjS7_NS_4lessIjEELb1EEE13stl_allocatorIS7_L18MemLabelIdentifier6ELi16EEE25__emplace_unique_key_argsIjJNS_4pairIjS6_EEEEENSH_INS_15__tree_iteratorIS7_PNS_11__tree_nodeIS7_PvEEiEEbEERKT_DpOT0_
mab:__ZN12ImmediatePtrI9TransformE8TransferI18StreamedBinaryReadILb0EEEEvRT_
alh:_Array_InternalArray__ICollection_CopyTo_TisInt32_t2950945753_m3102754797_gshared
AGf:_Quaternion_ToString_m2203056442
TXa:__ZN10Matrix4x4f8TransferI18StreamedBinaryReadILb0EEEEvRT_
wNh:_Thread_Start_m2860771284
WWi:_List_1_AddEnumerable_m2295992518_gshared
t1g:_DateTime_YearMonthDayFormats_m827415370
TQ:__ZN4FMOD7Channel19getReverbPropertiesEP29FMOD_REVERB_CHANNELPROPERTIES
F5b:__ZL23NormalizeRobustInternalRK8Vector3fRfS2_f
fPf:_InputField_get_selectionColor_m2548343601
vjh:_Array_LastIndexOf_TisRuntimeObject_m2701366436_gshared
HMj:__ZN6il2cpp6icalls8mscorlib6System8MonoType13GetInterfacesEP20Il2CppReflectionType
YZ:__ZN11UnityEngine15CloudWebService25WebRequestDownloadHandler7OnAbortEv
yXb:__ZN6Camera12CustomRenderER11CullResultsR17ShaderPassContextPK21CameraRenderingParamsNS_10RenderFlagEPNS_21PerformRenderFunctionEPFvvE
Zrg:_PublicKey_GetUnsignedBigInteger_m3873409673
Cak:__ZN6il2cpp2os6Thread22SetNativeThreadCleanupEPFvPvE
IBh:_GenericEqualityComparer_1_Equals_m2669134646_gshared
j7e:_DefaultComparer_Compare_m1649892577_gshared
Kof:_RuntimeMethodHandle__ctor_m2867240657
Pkg:_DecoderFallback_get_StandardSafeFallback_m2130338133
J$a:__ZN14SafeBinaryRead21TransferSTLStyleArrayI13dynamic_arrayI10BlendShapeLj0EEEEvRT_17TransferMetaFlags
cn:FUNCTION_TABLE_vdd
mub:__Z18Transfer_BlittableI24GenerateTypeTreeTransferLb1E10ColorRGBAfEvRK29SerializationCommandArgumentsR31RuntimeSerializationCommandInfo
Cha:__ZN6prcoreL17RemapGenericFloatI18TexFormatRGBAFloat16TexFormatRGFloatEEvPKNS_9InnerInfoE
gMj:__ZN6il2cpp6icalls8mscorlib6System8MonoType8get_NameEP20Il2CppReflectionType
Snh:_SimpleCollator_LastIndexOf_m2130553617
Jqb:__ZNSt3__26vectorI10RectOffset13stl_allocatorIS1_L18MemLabelIdentifier1ELi16EEE8__appendEj
P7e:_DefaultComparer_Compare_m1920986590_gshared
uPh:_TimeSpan_op_Equality_m1999885032
f5i:_SslStreamBase_get_ServerCertificates_m2154373069
q4j:__ZN6il2cpp2vmL29AddTypeToNametoClassHashTableEPK11Il2CppImagei
Po:FUNCTION_TABLE_ff
Ro:FUNCTION_TABLE_fi
QOe:_NumberFormatter_ZeroTrimEnd_m3065471008
Uja:__ZL93__ManagedRegistrationHelperFunction_NativeContainerSupportsDeallocateOnJobCompletionAttributePv
tyg:_X509Certificate_get_DSA_m1760272844
pNh:_Thread_get_CurrentCulture_m349116646
iNh:_Thread_Thread_internal_m4184414727
Yrc:__Z13RegisterClassI12MeshRendererEvPKc
qd:_emscripten_glGetAttribLocation
NVb:__ZZ23InitPlayerLoopCallbacksvEN39PostLateUpdateResetInputAxisRegistrator7ForwardEv
SP:__ZN4FMOD12ChannelGroup14getParentGroupEPPS0_
ud:_emscripten_set_blur_callback
l$i:_Collection_1_IsValidItem_m1475436662_gshared
pSa:__ZNK14ImageReference9ClipImageEiiii
Zuc:__ZN4MeshC2E10MemLabelId18ObjectCreationMode
o3b:__ZN10Matrix4x4f30SetPositionAndOrthoNormalBasisERK8Vector3fS2_S2_S2_
hua:__ZN5RectTIfE8TransferI24GenerateTypeTreeTransferEEvRT_
fBd:_ColorBlock_Equals_m518833916
l8j:__ZN6il2cpp6icalls8mscorlib6System4Enum8ToObjectEP20Il2CppReflectionTypeP12Il2CppObject
f5b:__ZL30FrustumCullReflectionProbesJobP26ReflectionProbeCullJobDataj
hIi:_Array_qsort_TisUIVertex_t4057497605_m4120916435_gshared
VYb:__ZN12FlareManager6UpdateEv
f2j:__ZN6il2cpp6icalls8mscorlib6System4Type29GetGenericTypeDefinition_implEP20Il2CppReflectionType
xUc:__ZNSt3__26__treeINS_12__value_typeIN4core12basic_stringIcNS2_20StringStorageDefaultIcEEEEiEENS_19__map_value_compareIS6_S7_NS_4lessIS6_EELb1EEE13stl_allocatorIS7_L18MemLabelIdentifier1ELi16EEE25__emplace_unique_key_argsIS6_JNS_4pairIKS6_iEEEEENSH_INS_15__tree_iteratorIS7_PNS_11__tree_nodeIS7_PvEEiEEbEERKT_DpOT0_
L4a:__ZN27GenericSlowGarbageCollector16ProcessReferenceEi
rna:__ZN9Scripting11UnityEngine10Resolution9InitProxyEv
Sth:_Dictionary_2_get_Item_m1749337561_gshared
mSc:__ZN8JSONRead21TransferSTLStyleArrayI13dynamic_arrayI8BitFieldLj0EEEEvRT_17TransferMetaFlags
Ema:__ZN35ScriptingManagedObjectProxyRegistry13RegisterProxyEPKcPFvvES3_
MSd:_LifetimeServices_set_SponsorshipTimeout_m2538334028
ZJj:__ZN15dense_hashtableINSt3__24pairIK10KeyWrapperIP9FieldInfoEiEES5_N6il2cpp5utils11PointerHashIS3_EEN14dense_hash_mapIS5_iSB_NS5_14EqualsComparerINS0_8equal_toIS4_EEEENS0_9allocatorIS7_EEE9SelectKeyESG_SI_E4findERS6_
jJi:_Array_Sort_TisCustomAttributeTypedArgument_t2723150157_m3248988944_gshared
sla:__ZL43__ManagedRegistrationHelperFunction_Hash128Pv
Gok:_fopen
ymb:__ZN20GpuProgramParameters15AddTextureParamEPKciib16TextureDimensionP16PropertyNamesSet
i$c:__ZN20TextRenderingPrivate8FontImplD2Ev
b0:__ZN19CloudServiceHandler8SaveFileERKN4core12basic_stringIcNS0_20StringStorageDefaultIcEEEEPKvj
sfk:_GC_init
MMe:_MonoType_IsPointerImpl_m3340652279
Ywk:_glFramebufferTexture2D__wrapper
lmk:__ZN6il2cpp6icalls8mscorlib6System7Runtime8Remoting7Proxies9RealProxy27InternalGetTransparentProxyEP12Il2CppObjectP12Il2CppString
I8j:__ZN6il2cpp2vm6Method10IsInflatedEPK10MethodInfo
Jek:__ZNK6il2cpp8metadata14Il2CppTypeLessclEPK10Il2CppTypeS4_
Ofk:_GC_remove_header
xDa:__ZL17InstanceBufferJobIN10Instancing14RenderLoopArgsEEvP21InstanceBufferJobDataIT_E
e4a:__ZNSt3__26vectorIi13stl_allocatorIiL18MemLabelIdentifier13ELi16EEE8__appendEj
Krd:__GLOBAL__sub_I_artifacts_WebGL_legacybindings_VR_0_cpp
jXd:_ReturnMessage_get_OutArgs_m1641976511
rUd:_SynchronizationAttribute_IsContextOK_m324067792
p6j:__ZN6il2cpp2vm6Object6IsInstEP12Il2CppObjectP11Il2CppClass
EWe:_Action_1_BeginInvoke_m1817882028_gshared
zxb:__Z19TransferField_ArrayI19StreamedBinaryWriteILb0EE27Converter_UnityEngineObjectEvRK23StaticTransferFieldInfoR31RuntimeSerializationCommandInfoRT0_
CGa:__Z16GetMSAALevelDesc9MSAALevel
_ch:_Environment_GetMachineConfigPath_m43519138
iEe:__ZL65Mask_t1803652131_CustomAttributesCacheGenerator_m_ShowMaskGraphicP21CustomAttributesCache
z1e:_InternalEnumerator_1_System_Collections_IEnumerator_get_Current_m4203917072_gshared
x9g:_Decimal_decimal2Int64_m2102545213
QXb:__ZN8Renderer27EnsureTransformInfoUpToDateEv
HBk:_emscripten_glFrontFace__wrapper
Ja:invoke_fiffi
w9:__ZN14SerializedFile14SerializedType8ReadTypeILb1EEEbibRPKhS3_Pi
p9h:_InvokableCall_1_Invoke_m1160628299_gshared
Ntd:_ExecuteEvents_get_pointerEnterHandler_m1185301724
L4i:_InternalAsyncResult__ctor_m2194591319
DIa:__ZN8Playable7SetTimeEd
g5:__ZN13RuntimeStaticI12GraphicsCapsLb0EE16StaticInitializeEPv
WWg:_FileLoadException__ctor_m3879680456
OQc:__Z18Transfer_BlittableI8JSONReadLb1E8Vector4fEvRK29SerializationCommandArgumentsR31RuntimeSerializationCommandInfo
$5c:_tt_cmap2_validate
h2c:_cff_cmap_unicode_done
gRd:_ActivationServices_CreateProxyFromAttributes_m3864561181
Idc:__ZN9Scripting20SendScriptingMessageER10GameObjectPKc18ScriptingObjectPtr
fui:__Z67RuntimeInvoker_Void_t1185182177_Scene_t2348375561_Int32_t2950945753PFvvEPK10MethodInfoPvPS4_
gHb:__Z26IsSplashScreenFadeCompletev
qFc:__Z42Register_UnityEngine_Camera_get_clearFlagsv
zEb:__ZN13MonoBehaviour13AwakeFromLoadE17AwakeFromLoadMode
JMj:__ZNSt3__26__treeIP11Il2CppClassNS_4lessIS2_EENS_9allocatorIS2_EEED2Ev
S_f:_Slider_FindSelectableOnRight_m3576909722
oac:__ZN13RenderManager27UpdatePreviousFrameMatricesEv
Oyb:__Z35Transfer_Blittable_FixedBufferFieldI18StreamedBinaryReadILb1EExEvRK29SerializationCommandArgumentsR31RuntimeSerializationCommandInfo
ELi:_Array_InternalArray__get_Item_TisByte_t1134296376_m3566214066_gshared
Eba:__Z22SetManagerPtrInContextiP6Object
P2a:__ZN14PlayerSettings8TransferI19StreamedBinaryWriteILb0EEEEvRT_
yQc:__Z18Transfer_BlittableI8JSONReadLb0E10ColorRGBAfEvRK29SerializationCommandArgumentsR31RuntimeSerializationCommandInfo
pNg:_NumberFormatInfo_set_NumberNegativePattern_m1999304795
SUi:_List_1_System_Collections_IList_Insert_m2238786360_gshared
uUe:_GenericTypeParameterBuilder_IsSubclassOf_m2266644074
ath:_SymmetricTransform_ThrowBadPaddingException_m2926778011
ONg:_CompareInfo_ToString_m2684143229
Wda:__ZN15DirectorManagerD2Ev
r_f:_Slider_get_maxValue_m414465787
MQj:__ZN15dense_hashtableINSt3__24pairIK10KeyWrapperINS1_IPK10MethodInfoP11Il2CppClassEEEjEES9_17ReflectionMapHashIS8_EN14dense_hash_mapIS9_jSD_NS9_14EqualsComparerINS0_8equal_toIS8_EEEENS0_9allocatorISB_EEE9SelectKeyESI_SK_E9copy_fromERKSN_j
eug:_X509CertificateEnumerator_System_Collections_IEnumerator_get_Current_m4218613192
eld:__ZN11UnityEngine15PlatformWrapper12GetInfoFlagsEv
MWf:_Scrollbar_set_direction_m473480640
OKh:_UTF32Encoding__ctor_m1635603592
ITh:_UInt64_Equals_m1879425698_AdjustorThunk
Yfj:_Uri_IsPredefinedScheme_m1188665625
r2j:__ZN6il2cpp6icalls8mscorlib6System13Globalization11CultureInfo45construct_internal_locale_from_current_localeEP17Il2CppCultureInfo
Klh:_Array_InternalArray__ICollection_CopyTo_TisUIVertex_t4057497605_m487823430_gshared
vqg:_ServicePointManager_get_CheckCertificateRevocationList_m1645465614
OKj:_SessionStateChanged_Invoke_m1365949269
aTb:__ZN15TextureTFMethod16BindForRenderingEj
OUc:__ZN11UnityEngine9Analytics33PerformanceReportingRenderingInfoC2Ev
dye:__ZL49Canvas_t3310196443_CustomAttributesCacheGeneratorP21CustomAttributesCache
gIb:__ZN14GraphicsHelper20IsViewportFullscreenERK9GfxDevice
ojf:_SoapMethodAttribute_SetReflectionObject_m503748123
lRg:_Guid_Equals_m3683678873_AdjustorThunk
r4j:__ZN15dense_hashtableINSt3__24pairIK10KeyWrapperINS1_IPKcS4_EEEiEES6_24NamespaceAndNamePairHashN14dense_hash_mapIS6_iS9_NS6_14EqualsComparerI26NamespaceAndNamePairEqualsEENS0_9allocatorIS8_EEE9SelectKeyESD_SF_E4findERS7_
BYc:__ZN20TextRenderingPrivate8FontImpl13CharacterInfo8TransferI19StreamedBinaryWriteILb0EEEEvRT_
tKj:__ZN6il2cpp2os19SocketHandleWrapper7ReleaseEv
NAa:__ZNK20IntermediateRenderer11GetMaterialEi
mVc:__ZN9Scripting11UnityEngine11Collision2D12CleanupProxyEv
Ctf:_BeforeRenderHelper_Invoke_m50072094
TVd:_MethodCall_get_MethodBase_m550047245
v3a:__ZNSt3__27__sort4IRNS_6__lessINS_4pairIPKN5Unity4TypeE7Hash128EES8_EEPS8_EEjT0_SC_SC_SC_T_
zua:__ZNK11NamedObject22GetTypeVirtualInternalEv
gWa:__ZN15SerializeTraitsI13dynamic_arrayI28EnlightenRendererInformationLj0EEE19ResizeSTLStyleArrayERS2_i
Ofj:_Uri_EscapeString_m2061933484
F2e:_InternalEnumerator_1_System_Collections_IEnumerator_get_Current_m1096730143_gshared
XKc:__ZN5IMGUI16GetFocusedWindowER8GUIState
S2g:_Convert_ToDecimal_m3815908452
$vf:_Color_op_Equality_m1112359053
Rvf:_Color__ctor_m286683560_AdjustorThunk
bXc:__ZN9Scripting11UnityEngine13TreePrototype9InitProxyEv
fYg:_DelegatePInvokeWrapper_ReadDelegate_t714865915
xyg:_CollectionBase_Clear_m1509125218
VLc:__ZN11IMGUIModule21QueryGUIDisplayTargetE17ScriptingClassPtr
QGj:__ZNSt3__27__sort4IRN6il2cpp5utils11collections13ArrayValueMapIPK10Il2CppType17Il2CppInteropData26InteropDataToTypeConverterNS1_8metadata14Il2CppTypeLessENSA_26Il2CppTypeEqualityComparerEE12SortComparerEPS8_EEjT0_SH_SH_SH_T_
gsk:dynCall_vidi
Sld:__ZN11UnityEngine15PlatformWrapper14GetCloudUserIdEv
d_g:_StreamReader_ReadToEnd_m371831293
LBf:_Mathf_RoundToInt_m1874334613
KLe:_MonoCustomAttrs_GetCustomAttributes_m1775925192
Gpc:__Z42NoAllocHelpers_CUSTOM_ExtractArrayFromListP12Il2CppObject
wvk:_glVertexAttribPointer__wrapper
gsf:_HMAC_Create_m2148924157
Trk:___udivdi3
gMg:_Exception__ctor_m1406832249
WEh:_Enumerator_System_Collections_IEnumerator_get_Current_m2339378585_gshared
uoc:__ZN11PlayerPrefs9SetStringERKN4core12basic_stringIcNS0_20StringStorageDefaultIcEEEES6_
lWc:__ZN9Scripting11UnityEngine7Physics9InitProxyEv
Wfd:__Z13RegisterClassIN2UI11CanvasGroupEEvPKc
Jik:__ZN6il2cpp6icalls8mscorlib6System8Delegate18SetMulticastInvokeEP14Il2CppDelegate
B9e:_Enumerator_VerifyCurrent_m2197239943_gshared
IZ:__ZN11UnityEngine15CloudWebService20WebRequestRestClient5BeginEv
Uok:_fseek
VWc:__ZN16memory_pool_implILi40EE15AutoPoolWrapper10InitializeEPv
Jtb:__Z22TransferField_NonArrayI17RemapPPtrTransfer27Converter_SimpleNativeClassI10RectOffsetEEvRK23StaticTransferFieldInfoR31RuntimeSerializationCommandInfoRT0_
Qyg:_PKCS12_AddCertificate_m3618696508
XQ:__ZN20SoundChannelInstance11set3DSpreadEf
jUg:_Int64_System_IConvertible_ToUInt32_m109903525
HCh:_HashSet_1_Init_m2976925848_gshared
AC:__ZNSt3__26__sortIRN11UnityEngine9Animation11BindingSortEPNS_4pairINS2_14GenericBindingEPNS2_10BoundIndexEEEEEvT0_SB_T_
rma:__ZL50__ManagedRegistrationHelperFunction_UnityExceptionPv
Q9f:_HttpsClientStream_U3CHttpsClientStreamU3Em__0_m2058474197
o5g:_Convert_ToUInt32_m2215525276
F2a:__ZN24GenerateTypeTreeTransfer32TransferSTLStyleArrayWithElementI16SplashScreenLogoEEvRT_17TransferMetaFlags
kPj:__ZN15dense_hashtableINSt3__24pairIK10KeyWrapperINS1_IPK9FieldInfoP11Il2CppClassEEEjEES9_17ReflectionMapHashIS8_EN14dense_hash_mapIS9_jSD_NS9_14EqualsComparerINS0_8equal_toIS8_EEEENS0_9allocatorISB_EEE9SelectKeyESI_SK_E6insertERKSB_
Y0e:_InternalEnumerator_1_get_Current_m2680116177_gshared
vEj:__ZN14dense_hash_mapI10KeyWrapperIPKcEP11Il2CppClassN6il2cpp5utils11StringUtils12StringHasherIS2_EENS3_14EqualsComparerINS7_13VmStringUtils21CaseSensitiveComparerEEENSt3__29allocatorINSF_4pairIKS3_S5_EEEEEC2EjRKSA_RKSE_
Ada:__Z37InitializeIntermediateRendererManagerPv
Bjg:_String_IndexOfOrdinal_m962178384
lIj:__ZN6il2cpp2vm13MetadataCache34GetTypeInfoFromTypeDefinitionIndexEi
hsf:_HMACMD5__ctor_m3129799368
ana:__ZN9Scripting11UnityEngine9Texture2D12CleanupProxyEv
oJd:_TypeBuilder_GetEvent_m2166527753
SFd:_Graphic_CrossFadeColor_m678806803
hzb:__ZL26Transfer_SimpleNativeClassI18StreamedBinaryReadILb1EE8GradientLb1EEvRK29SerializationCommandArgumentsR31RuntimeSerializationCommandInfo
nmi:__Z102RuntimeInvoker_Int32_t2950945753_RuntimeObject_Int32_t2950945753_CharU26_t1697032762_SByte_t1669577662PFvvEPK10MethodInfoPvPS4_
cNe:_MonoType_get_Namespace_m2015358851
kci:_IndexedSet_1_RemoveAt_m3002732320_gshared
SLg:_HashKeys_CopyTo_m4219627824
GOf:_InputField_GetLineStartPosition_m2947412579
oh:_glBlendEquation
P5g:_Convert_ToType_m2406080310
t2h:_ReadOnlyCollection_1_IndexOf_m2659941036_gshared
Yid:__Z38CustomEventData_CUSTOM_Internal_CreateP12Il2CppObjectP12Il2CppString
M1h:_ReadOnlyCollection_1_System_Collections_IList_set_Item_m3570269385_gshared
$Gh:_List_1_AddEnumerable_m2043754576_gshared
eDe:__ZL85Graphic_t1660335611_CustomAttributesCacheGenerator_Graphic_OnPopulateMesh_m2916877004P21CustomAttributesCache
KCd:_DefaultControls_CreateToggle_m1236643913
Dqh:_BitConverterLE_ToSingle_m1153793442
Rkk:__ZN6il2cpp2os5Mutex7TryLockEjb
HRg:_Int16_System_IConvertible_ToByte_m3161982419
Y3:__Z20IsVectorBuiltinParamPKcPi
$4j:__ZN6il2cpp2vm5Field8GetFlagsEP9FieldInfo
Ssf:_MD5CryptoServiceProvider_HashFinal_m2625727830
aIi:_Array_qsort_TisRaycastResult_t3360306849_m3861320071_gshared
Whg:_Single_System_IConvertible_ToUInt32_m289030200
u$j:__ZN6il2cpp6icalls8mscorlib6System10ReflectionL16LoadResourceFileEP24Il2CppReflectionAssembly
hbh:_Double_System_IConvertible_ToDouble_m3692611612
HW:__Z83Register_UnityEngine_Experimental_Audio_AudioSampleProvider_InternalSetScriptingPtrv
_8:__Z13IsFileCreatedRKN4core12basic_stringIcNS_20StringStorageDefaultIcEEEE
Q$f:_Text_OnPopulateMesh_m1525268284
rXg:_FileStream_FlushBuffer_m914568182
TVa:__ZN16LightmapSettings18TransferDeprecatedI14SafeBinaryReadEEvRT_
$_a:__ZN8Renderer11SetMaterialE4PPtrI8MaterialEi
jKh:_StringBuilder_AppendFormat_m921870684
G7j:__ZN15dense_hashtableINSt3__24pairIK10KeyWrapperIP12Il2CppObjectEN6il2cpp2gc9CachedCCWEEES5_NS7_5utils11PointerHashIS3_EEN14dense_hash_mapIS5_S9_SD_NS5_14EqualsComparerINS0_8equal_toIS4_EEEENS0_9allocatorISA_EEE9SelectKeyESI_SK_E5eraseE30dense_hashtable_const_iteratorISA_S5_SD_SM_SI_SK_E
YKg:_Hashtable__ctor_m1684344284
HA:__ZThn152_NK26AnimatorControllerPlayable41GetStateMachineBehaviourVectorDescriptionEv
DAg:_Activator_CheckAbstractType_m2015247896
acg:_RSACryptoServiceProvider_ImportParameters_m614616705
w4i:_SslHandshakeHash_CreateSignature_m1634235041
Bdf:_ShimEnumerator_get_Current_m3504536618_gshared
hra:__ZN9Scripting11UnityEngine21AttributeHelperEngine9InitProxyEv
sUc:__ZN27PerformanceReportingManager29CheckForTargetFrameRateChangeEv
wTf:_LayoutRebuilder_U3CRebuildU3Em__3_m523803689
VR:__ZN11AudioSource8TransferI14SafeBinaryReadEEvRT_
bXg:_FileNotFoundException__ctor_m2477162036
ayh:_EqualityComparer_1__cctor_m149356781_gshared
SZc:__ZNSt3__26__treeINS_12__value_typeIN20TextRenderingPrivate7FontRefEP11FT_FaceRec_EENS_19__map_value_compareIS3_S6_NS_4lessIS3_EELb1EEENS_9allocatorIS6_EEE25__emplace_unique_key_argsIS3_JRKNS_21piecewise_construct_tENS_5tupleIJRKS3_EEENSI_IJEEEEEENS_4pairINS_15__tree_iteratorIS6_PNS_11__tree_nodeIS6_PvEEiEEbEERKT_DpOT0_
Bx:__ZN7mecanim9animation23TransformDeltasFromClipEiiiRKNS0_18ClipMuscleConstantERKNS0_12ClipBindingsERKNS_14ValueArrayMaskERN4math4trsXESC_SC_
ZBb:__Z18Transfer_BlittableI18StreamedBinaryReadILb0EELb0E12PropertyNameEvRK29SerializationCommandArgumentsR31RuntimeSerializationCommandInfo
Zrk:___divdi3
Cic:__ZN9ShaderLab9IntShader26CreateFromSerializedShaderERKNS_16SerializedShaderERNSt3__26vectorI4PPtrI6ShaderENS4_9allocatorIS8_EEEEbPS7_
$aj:_Match_get_Empty_m2060287462
unb:__ZN19ShaderPropertySheet16SetComputeBufferEN9ShaderLab16FastPropertyNameE15ComputeBufferIDNS_8SetFlagsE
sEf:_U3CInvokeMessageIdSubscribersU3Ec__AnonStorey0_U3CU3Em__0_m444206473
euh:_Dictionary_2_ContainsValue_m256968015_gshared
_bk:__ZNK15dense_hashtableINSt3__24pairIK10KeyWrapperIPK19Il2CppGenericMethodEP10MethodInfoEES6_N6il2cpp8metadata23Il2CppGenericMethodHashEN14dense_hash_mapIS6_S9_SD_NS6_14EqualsComparerINSC_26Il2CppGenericMethodCompareEEENS0_9allocatorISA_EEE9SelectKeyESH_SJ_E5beginEv
KXe:_ArrayReadOnlyList_1_get_Item_m1974867852_gshared
NHd:_Image_AddQuad_m969836764
Nmh:_MSCompatUnicodeTable_IsIgnorableNonSpacing_m47098938
zWh:_Collection_1_IsSynchronized_m2655903966_gshared
fTg:_Int32_System_IConvertible_ToSingle_m896140682_AdjustorThunk
A0:__GLOBAL__sub_I_Runtime_Graphics_7_cpp
Fx:__ZN7mecanim21CreateFloatValueArrayEPKNS_18ValueArrayConstantERNS_6memory9AllocatorE
T6b:__ZL12CullGroupJobP20CullingGroupsJobDataj
kgk:_GC_remove_dangling_disappearing_links
z_:__ZN11UnityEngine15CloudWebService14RestDownloader9IsAbortedEv
QA:__ZN7mecanim12statemachine28DestroyStateMachineWorkspaceEPNS0_21StateMachineWorkspaceERNS_6memory9AllocatorE
BKc:__Z30GUIStyle_CUSTOM_SetDefaultFontP12Il2CppObject
ho:FUNCTION_TABLE_f
Uo:FUNCTION_TABLE_i
_dj:_AnchorInfo_get_Position_m1133366486
b_g:_StreamReader_FindNextEOL_m2574298119
iga:__ZN11TypeManager12RegisterTypeERK20TypeRegistrationDesc
LJ:__ZL44__ManagedRegistrationHelperFunction_PoseDataPv
xn:FUNCTION_TABLE_v
P$a:__ZNSt3__26vectorI17BlendShapeChannelNS_9allocatorIS1_EEE8__appendEj
TVb:__ZZ23InitPlayerLoopCallbacksvEN43PostLateUpdateUpdateAllRenderersRegistrator7ForwardEv
a7a:__ZN21LightProbeProxyVolume13GetRenderDataER27LightProbeProxyVolumeSample
$Sd:_Context_get_ContextProperties_m3283598326
Y0i:_Collection_1_System_Collections_IList_set_Item_m4249768453_gshared
Uvj:_Keyboard_PlayRandomSound_m629210842
y1a:__ZN11TimeManager8TransferI24GenerateTypeTreeTransferEEvRT_
ldf:_KeyCollection_System_Collections_ICollection_get_SyncRoot_m3900096134_gshared
fNc:__ZN8JSONRead8TransferItEEvRT_PKc17TransferMetaFlagsb
nC:__ZNK11UnityEngine9Animation28GenericAnimationBindingCache10BindCustomERKNS0_14GenericBindingER9TransformRNS0_10BoundCurveE
SVj:__ZN6il2cpp2vm17TypeNameParseInfoC2ERKS1_
Qmd:__ZN18UnityConnectClient17InitConnectClientEv
unk:_memcmp
Mnd:__ZN22UnityAnalyticsSettings5ResetEv
Nxe:__ZL57GUILayoutEntry_t3214611570_CustomAttributesCacheGeneratorP21CustomAttributesCache
Old:__ZN11UnityEngine7Connect18ConnectSessionInfo8TransferER9JSONWrite
KU:__Z74Register_UnityEngine_AudioListener_INTERNAL_CALL_ReadExtensionPropertyNamev
EHi:_Array_InternalArray__set_Item_TisHitInfo_t3229609740_m1576844560_gshared
aba:__ZN9Scripting32GetCachedPtrFromScriptingWrapperE18ScriptingObjectPtr
qbg:_SslClientStream_OnBeginNegotiateHandshake_m3734240069
Hgd:__ZN2UI29ScheduleUIJobsForInstructionsERNS_7BatchesEjPKNS_13UIInstructionEfjjPNS_13CanvasJobDataE
DP:__ZN5audio5mixer22CreateAudioMixerMemoryERKNS0_18AudioMixerConstantEPN4FMOD6SystemERN7mecanim6memory9AllocatorEib
qLi:_LayoutGroup_SetProperty_TisInt32_t2950945753_m3911895589_gshared
qmf:_BinaryFormatter__ctor_m971003555
auk:dynCall_iiid
Tfi:__Z121RuntimeInvoker_Void_t1185182177_Int32_t2950945753_Int32_t2950945753_Int32_t2950945753_SByte_t1669577662_SByte_t1669577662PFvvEPK10MethodInfoPvPS4_
buk:dynCall_iiif
uni:__Z52RuntimeInvoker_Single_t1397266774_Single_t1397266774PFvvEPK10MethodInfoPvPS4_
aih:_Array_IndexOf_TisRuntimeObject_m828474689_gshared
Tsc:__ZZL31RegisterRectTransformPropertiesR22GenericPropertyBindingEN32Wrapper_RectTransformAnchorMiny113GetFloatValueEPv
OIg:_FixedSizeArrayListWrapper_InsertRange_m1706982628
cUh:_UIntPtr_ToString_m984583492_AdjustorThunk
qJb:__ZL20ShaderWarmupFuncImplP6ShaderiPN9ShaderLab4PassERK16ShaderKeywordSetP10DynamicVBOPvR17ShaderPassContext
qKb:__ZN13GfxDeviceGLESC2E10MemLabelId
qwj:_TextGenerationSettings_Equals_m3618607189
GGj:__ZN15dense_hashtableI10KeyWrapperIPK17Il2CppGenericInstES4_N6il2cpp8metadata21Il2CppGenericInstHashEN14dense_hash_setIS4_S7_NS4_14EqualsComparerINS6_24Il2CppGenericInstCompareEEENSt3__29allocatorIS4_EEE8IdentityESB_SE_E6insertERKS4_
BOj:__ZN15dense_hashtableINSt3__24pairIK10KeyWrapperINS1_IPK14Il2CppAssemblyP11Il2CppClassEEEjEES9_17ReflectionMapHashIS8_EN14dense_hash_mapIS9_jSD_NS9_14EqualsComparerINS0_8equal_toIS8_EEEENS0_9allocatorISB_EEE9SelectKeyESI_SK_E3endEv
$Le:_MonoEnumInfo_get_enum_info_m1661176095
yhj:_GUIUtility_CheckOnGUI_m3924092168
rPb:__ZN14DataBufferGLES12RecordUpdateEv
PZc:__ZN20TextRenderingPrivate15DynamicFontData28GetFaceForFontRefFromOSFontsERKNS_7FontRefE
nEc:__Z34MonoBehaviour_CUSTOM_StopCoroutineP12Il2CppObjectP12Il2CppString
Ujg:_String_Remove_m562998446
PGf:_Ray_GetPoint_m1852405345
I7j:__ZN6il2cpp2vm12GenericClass12SetupMethodsEP11Il2CppClass
gka:__ZL50__ManagedRegistrationHelperFunction_AnimationCurvePv
Qcb:__ZNK20LocalFileSystemPosix18GetApplicationPathEv
AWi:_List_1_set_Item_m658432263_gshared
uFb:__ZN9Scripting30IsSystemCollectionsGenericListE17ScriptingClassPtr
Zid:__Z39CustomEventData_CUSTOM_Internal_DestroyPv
SDf:_PlayerEditorConnectionEvents_AddAndCreate_m3046878154
Dsd:__ZN9Scripting11UnityEngine12Experimental2XR14PlaneAlignment9InitProxyEv
Xuh:_Dictionary_2_Add_m1279427033_gshared
TKc:__Z14GetDefaultSkini
rgd:__ZN2UI23InitializeCanvasManagerEv
swa:__ZN10GameObject16CheckConsistencyEv
axd:_PointerInputModule_GetMousePointerEventData_m4273240034
vvc:__ZN14RenderSettings15InitializeClassEv
Yyd:_AspectRatioFitter_set_aspectMode_m4140288987
Mnc:__Z46Register_UnityEngine_GameObject_get_activeSelfv
jPa:__ZL35stbir__resample_horizontal_upsampleP11stbir__infoPf
LFi:__Z82RuntimeInvoker_RuntimeObject_RaycastResult_t3360306849_RuntimeObject_RuntimeObjectPFvvEPK10MethodInfoPvPS4_
lYi:_Enumerator__ctor_m3419056812_AdjustorThunk
h3e:_InternalEnumerator_1_System_Collections_IEnumerator_get_Current_m1299775605_gshared
YFg:_Byte_ToString_m2335342258
ung:_DictionaryNodeEnumerator_Reset_m2226320064
xsk:dynCall_iifii
rcd:__ZN2UI16GetCanvasManagerEv
Xnd:__ZN11UnityEngine9Analytics22EventLimitReachedEventD2Ev
kBc:__ZN15GUIEventManager8PopEventER10InputEvent
Vnc:__Z31RectOffset_Get_Custom_PropRightP12Il2CppObject
rad:__Z54Register_UnityEngine_TextGenerator_GetVerticesInternalv
kid:__ZNSt3__26__treeINS_12__value_typeIN4core12basic_stringIcNS2_20StringStorageDefaultIcEEEEN11UnityEngine9Analytics15UserCustomEvent11CustomValueEEENS_19__map_value_compareIS6_SB_NS_4lessIS6_EELb1EEE13stl_allocatorISB_L18MemLabelIdentifier6ELi16EEE25__emplace_unique_key_argsIS6_JRKNS_21piecewise_construct_tENS_5tupleIJOS6_EEENSO_IJEEEEEENS_4pairINS_15__tree_iteratorISB_PNS_11__tree_nodeISB_PvEEiEEbEERKT_DpOT0_
Cjg:__Z3BoxP11Il2CppClassPv
GAf:_Input_get_touchSupported_m1480684970
UR:__ZN20SoundChannelInstance9isPlayingEPb
nDf:_MonoBehaviour_StartCoroutine_m3411253000
fTb:__ZN21UniformBufferTFMethodD2Ev
d6a:__ZN18LoadSceneOperation21PostLoadSceneAdditiveEv
H2e:_InternalEnumerator_1_System_Collections_IEnumerator_get_Current_m1096730143_AdjustorThunk
P7b:__Z36CreateScriptingArrayFromUnityObjectsI13dynamic_arrayIP6CameraLj0EEE17ScriptingArrayPtrRKT_17ScriptingClassPtr
Smc:__ZL34GetComponentsImplementationRecurseILb1ELi1ELi2EEbR10GameObjectbRK17CompareParametersRK39GetComponentsImplementation_ReturnValue
_ia:__ZN6prcoreL12RemapGenericI15TexFormatRGB56515TexFormatRGB888EEvPKNS_9InnerInfoE
cQf:_InputField_MoveTextEnd_m2392516920
ejk:__ZN6il2cpp5utils10MemoryPool9AddRegionEj
psg:_X509Certificate2__ctor_m3336405942
HFd:_Graphic_get_workerMesh_m997382591
bKc:__ZN13dynamic_arrayI7GUIClipLj0EE9push_backERKS0_
VEc:__Z38PlayableHandle_CUSTOM_IsValid_InjectedP9HPlayable
cZj:__ZNSt3__214__split_bufferIP12Il2CppThreadRN6il2cpp2gc9AllocatorIS2_EEED2Ev
zhd:__ZN5Umbra16FileOutputStreamD0Ev
UBg:_Array_System_Collections_IList_RemoveAt_m41405158
yre:__ZL89GameObject_t1113636619_CustomAttributesCacheGenerator_GameObject_GetComponent_m1027872079P21CustomAttributesCache
rvi:__Z64RuntimeInvoker_Boolean_t97287965_RuntimeObject_Int64_t3736567304PFvvEPK10MethodInfoPvPS4_
MGc:__Z52Register_UnityEngine_Object_FindObjectFromInstanceIDv
ved:__Z41CanvasGroup_Get_Custom_PropBlocksRaycastsP12Il2CppObject
bek:__ZN6il2cpp2os11Environment17GetProcessorCountEv
vec:__ZNSt3__26vectorIN9ShaderLab26SerializedShaderDependencyENS_9allocatorIS2_EEE8__appendEj
Taa:__ZN32TransformHierarchyChangeDispatch26DispatchSelfAndAllChildrenE15TransformAccessNS_12InterestTypeE
QU:__Z46Register_UnityEngine_AudioSource_get_isPlayingv
Nkd:__ZN11UnityEngine15PlatformWrapper21GetVRDeviceMirrorModeEv
Aud:_EventSystem_OnEnable_m3237278246
mca:__ZN13RuntimeStaticI22VirtualJoystickManagerLb0EE13StaticDestroyEPv
owg:_Interpreter_Balance_m1978770534
oM:__ZN13AudioListener12ApplyFiltersEv
Ana:__ZN9Scripting11UnityEngine9Rendering8GPUFence12CleanupProxyEv
Esd:__ZN9Scripting11UnityEngine12Experimental2XR14PlaneAlignment12CleanupProxyEv
IWi:_List_1_System_Collections_IList_Contains_m353431064_gshared
mpj:_AudioConfigurationChangeHandler_BeginInvoke_m4104069447
Nkk:__ZN6il2cpp8metadata27Il2CppGenericContextCompare7CompareEPK20Il2CppGenericContextS4_
dtk:dynCall_viiii
Api:__Z243RuntimeInvoker_Void_t1185182177_Int16_t2552820387_RuntimeObject_Int32_t2950945753_Int32_t2950945753_Int32_t2950945753_SByte_t1669577662_SByte_t1669577662_SByte_t1669577662_SByte_t1669577662_Int16_t2552820387_SByte_t1669577662_SByte_t1669577662PFvvEPK10MethodInfoPvPS4_
KNg:_CompareInfo_IsPrefix_m796715920
gCj:__ZNK15dense_hashtableINSt3__24pairIK10KeyWrapperIPK22Il2CppGenericParameterEP11Il2CppClassEES6_N6il2cpp5utils11PointerHashIS4_EEN14dense_hash_mapIS6_S9_SE_NS6_14EqualsComparerINS0_8equal_toIS5_EEEENS0_9allocatorISA_EEE9SelectKeyESJ_SL_E23find_position_with_hashERS7_j
v1f:_PrimalityTest_Invoke_m2948246884
dYb:__Z11CopyTextureP7TextureiiS0_ii
Oze:__ZL65EventTrigger_t1076084509_CustomAttributesCacheGenerator_delegatesP21CustomAttributesCache
WVj:__ZNSt3__214__split_bufferIN6il2cpp2vm17TypeNameParseInfoERNS_9allocatorIS3_EEED2Ev
FNb:__ZThn10632_N13GfxDeviceGLES26EnableScissorRectsPlatformEv
MVi:_List_1_System_Collections_IList_Contains_m3717811284_gshared
LLd:_MonoEvent_get_Attributes_m3048829315
rfa:__ZN15DirectorManager14ConnectionPool16GrowEmptyBucketsEv
fKg:_CaseInsensitiveHashCodeProvider_AreEqual_m3534448780
E6:__ZN17PersistentManager32CopyToAwakeFromLoadQueueInternalER18AwakeFromLoadQueue
npi:__Z104RuntimeInvoker_Boolean_t97287965_Int32_t2950945753_Int64U5BU5DU26_t194432655_StringU5BU5DU26_t2154486980PFvvEPK10MethodInfoPvPS4_
qoi:__Z106RuntimeInvoker_RuntimeObject_Int16_t2552820387_RuntimeObject_BooleanU26_t4125257963_BooleanU26_t4125257963PFvvEPK10MethodInfoPvPS4_
JXb:__ZNK6Camera16SetActiveVRUsageEv
GWf:_Scrollbar_set_handleRect_m1170237786
cRc:__ZL26Transfer_SimpleNativeClassI8JSONRead8GradientLb1EEvRK29SerializationCommandArgumentsR31RuntimeSerializationCommandInfo
Xnk:_open
V9i:_X509CrlEntry_get_SerialNumber_m3627212772
E0j:__ZN6il2cpp6icalls8mscorlib6System5Array5CloneEP11Il2CppArray
uac:__Z30GetPlayerShouldRunInBackgroundv
UBf:_Mathf__cctor_m1175545152
SLd:_MonoEvent_IsDefined_m10931749
uog:_NameValueCollection_AsSingleString_m3776180906
Uia:__ZN6prcoreL12RemapGenericI11TexFormatI815TexFormatRGB565EEvPKNS_9InnerInfoE
aTg:_Int32_System_IConvertible_ToInt64_m3520470966
gAc:__ZN16StreamedResource8TransferI19StreamedBinaryWriteILb0EEEEvRT_
MKb:__ZNK13TranslateGLES17FramebufferTargetEN2gl17FramebufferTargetE
u9j:__ZL11on_gc_event11GCEventType
B3e:_InternalEnumerator_1_System_Collections_IEnumerator_get_Current_m1612699335_gshared
k7f:_TlsServerHello__ctor_m3887266572
dfd:__ZN13dynamic_arrayIN2UI8UIVertexELj0EEC2Ej10MemLabelId
pxk:b62
oxk:b61
lxk:b60
Eyk:b67
Dyk:b66
Cyk:b65
Jtf:_Application_set_targetFrameRate_m3682352535
Jyk:b69
Kaj:_Enumerator_get_Current_m359737019
Vza:__ZNSt3__26__treeINS_12__value_typeIi17ShadowCachingDataEENS_19__map_value_compareIiS3_NS_4lessIiEELb1EEE13stl_allocatorIS3_L18MemLabelIdentifier66ELi16EEE7destroyEPNS_11__tree_nodeIS3_PvEE
hEg:_BitConverter_ToInt64_m349022421
vBc:__Z9SetIIMGUIP6IIMGUI
$Ri:_List_1_System_Collections_IList_Add_m1142950911_gshared
Pxi:__Z68RuntimeInvoker_Boolean_t97287965_Double_t594665363_Double_t594665363PFvvEPK10MethodInfoPvPS4_
H5c:_tt_cmap10_get_info
QHb:__Z28SetupPixelCorrectCoordinatesi
VOb:__Z5SplitRKN4core12basic_stringIcNS_20StringStorageDefaultIcEEEEcRNSt3__26vectorIS3_NS6_9allocatorIS3_EEEEi
rGj:__ZN15dense_hashtableI10KeyWrapperIPK19Il2CppGenericMethodES4_N6il2cpp8metadata23Il2CppGenericMethodHashEN14dense_hash_setIS4_S7_NS4_14EqualsComparerINS6_26Il2CppGenericMethodCompareEEENSt3__29allocatorIS4_EEE8IdentityESB_SE_E9copy_fromERKSH_j
bsh:_PKCS1_Sign_v15_m2719206817
Akj:_AesTransform__ctor_m3143546745
M9h:_UnityAction_1_Invoke_m2929687399_gshared
Oeh:_Array_InternalArray__ICollection_Remove_TisRuntimeObject_m2110193223_gshared
bwe:__ZL64EventType_t3528516131_CustomAttributesCacheGenerator_scrollWheelP21CustomAttributesCache
jua:__ZN24GenerateTypeTreeTransfer10SetVersionEi
HCf:_Mesh_SetTangents_m1615111656
Pzc:__ZN13PlayableGraph16DestroyRecursiveEP8Playable
f1j:__ZN6il2cpp2vm9Exception20GetArgumentExceptionERKNS_5utils10StringViewIDsEES6_
$Wa:__ZNSt3__26vectorI13dynamic_arrayI8Vector2fLj0EENS_9allocatorIS3_EEE7reserveEj
EDf:_PlayerEditorConnectionEvents__ctor_m3177489832
dWd:_MethodCallDictionary__cctor_m2213329406
UL:__ZN12AudioManagerD0Ev
ZOf:_InputField_set_textComponent_m2547304131
a3a:__Z13ConvertPixelsPKh13TextureFormatPhS1_j
clk:__ZN6il2cpp5utils35RegisterRuntimeInitializeAndCleanupC2EPFvvES3_i
qnh:_SortKeyBuffer_Initialize_m3786111493
hMi:_Array_InternalArray__get_Item_TisX509ChainStatus_t133602714_m2237651489_gshared
wHe:__ZL58IVertexModifier_t3404627876_CustomAttributesCacheGeneratorP21CustomAttributesCache
K3a:__ZNK22GenericPropertyBinding13SetFloatValueERKN11UnityEngine9Animation10BoundCurveEf
dMf:_Transform_GetEnumerator_m2717073726
Gmg:_Encoding__cctor_m1936558127
OTi:_List_1__ctor_m163821521_gshared
FFe:__ZL90StencilMaterial_t3850132571_CustomAttributesCacheGenerator_StencilMaterial_Add_m3183845017P21CustomAttributesCache
nGf:_QualitySettings_set_vSyncCount_m3131636076
Veg:_X509Certificate_get_Subject_m2638144878
q_c:_raccess_guess_darwin_ufs_export
cuf:_AsyncOperation_Finalize_m1841265672
mVb:__ZN11TypeManager18InitializeAllTypesEv
lqa:__ZN9Scripting11UnityEngine16DiagnosticSwitch9InitProxyEv
AOf:_InputField_MarkGeometryAsDirty_m817808086
VSf:_LayoutGroup_get_isRootLayoutGroup_m1082645254
pS:__ZN9AudioClipD0Ev
fXj:_il2cpp_class_from_name
FVf:_RectMask2D_OnDisable_m809267607
Yx:__ZN17AnimationPlayable16AllocateBindingsEPK35AnimationPlayableEvaluationConstant
bYi:_Queue_1__ctor_m1971992302_gshared
vz:__ZN27AnimationLayerMixerPlayable26ProcessAnimationLayerBeginEP35AnimationPlayableEvaluationConstantP32AnimationPlayableEvaluationInputP33AnimationPlayableEvaluationOutput
xMe:_MonoType_GetEvent_m28975240
RQb:__ZN14GfxContextGLES11MakeCurrentER7ApiGLESN2gl13ContextHandleE
OXg:_MonoIO_Write_m3999708352
suk:dynCall_viffffi
atc:__ZZL31RegisterRectTransformPropertiesR22GenericPropertyBindingEN32Wrapper_RectTransformSizeDeltay113SetFloatValueEPvf
Okh:_Array_InternalArray__ICollection_CopyTo_TisChar_t3634460470_m3599063464_gshared
rLh:_UTF7Encoding_InternalGetChars_m2722395139
F1g:_DateTime_get_Today_m2788644320
nJb:__ZN16GraphicsSettings22WarmupPreloadedShadersEv
Idd:__Z34Canvas_Set_Custom_PropSortingOrderP12Il2CppObjecti
ppf:_SByte_System_IConvertible_ToSingle_m1083054891
vaj:_CostDelegate_Invoke_m898648402
kLh:_UTF7Encoding_Equals_m227704363
Hxf:_DisplaysUpdatedDelegate_Invoke_m3203573844
Qic:__ZN9ShaderLab4Pass6RetainEv
urh:_KeyPairPersistence_get_ContainerName_m4274536094
ky:__ZN7mecanim9animation22CopyAnimationNodeStateEPKNS0_18AnimationNodeStateEPS1_bbRKNS_6bitsetILj83EEE
Ya:invoke_iiiiiiffiiiiiiiiiffffiii
RHf:_Rect_op_Equality_m3986168348
eqd:__ZN20UnityWebRequestProtoI24UnityWebRequestTransport16AtomicRefCounter14RedirectHelper14ResponseHelper15DownloadHandler13UploadHandler18CertificateHandler12HeaderHelper14AsyncOperationE25Job_RedirectTo_MainThreadEPS9_
Bih:_Array_InternalArray__IndexOf_TisSlot_t384495010_m3224390719_gshared
Laf:_Enumerator_System_Collections_IDictionaryEnumerator_get_Key_m4039922590_AdjustorThunk
Xcd:__ZN2UI6Canvas8TransferI14SafeBinaryReadEEvRT_
NPj:__ZN6il2cpp2gc19AppendOnlyGCHashMapIPK10Il2CppTypeP20Il2CppReflectionTypeNS_8metadata14Il2CppTypeHashENS7_26Il2CppTypeEqualityComparerEE3AddERKS4_S6_
PX:__ZN11UnityEngine15CloudWebService17CloudJobScheduler11ScheduleJobEPFvPvES2_
PK:__ZN13RuntimeStaticINSt3__23mapIjP19AudioSampleProviderNS0_4lessIjEE13stl_allocatorINS0_4pairIKjS3_EEL18MemLabelIdentifier27ELi16EEEELb0EE13StaticDestroyEPv
MY:__ZN11UnityEngine15CloudWebService17CloudServiceEvent12ToJsonStringER9JSONWrite
K6f:_TlsClientHello__ctor_m1986768336
rNd:_MonoProperty_GetCustomAttributes_m2723308902
Pca:__ZNK18VertexChannelsInfoltERKS_
Nqi:__Z89RuntimeInvoker_Boolean_t97287965_Int32_t2950945753_Int32U26_t1369213839_Int32_t2950945753PFvvEPK10MethodInfoPvPS4_
xpc:__Z18SetTargetFrameRatei
cGg:_Char_System_IConvertible_ToType_m4138905176_AdjustorThunk
aNc:__ZN9JSONWrite8TransferIfEEvRT_PKc17TransferMetaFlags
A8g:_DBNull_System_IConvertible_ToUInt16_m643477279
mfb:__ZN10MemoryFileD0Ev
JVh:_Collection_1_SetItem_m774004841_gshared
Yzj:_Analytics_GetUnityAnalyticsHandler_m2772482435
cbk:__ZN6il2cpp2os10ThreadImpl22SetNativeThreadCleanupEPFvPvE
T7g:_DateTimeOffset__cctor_m3610253033
JFg:_Byte_CompareTo_m4285128861_AdjustorThunk
ISd:_ConfigHandler_ExtractAssembly_m2143791058
a6j:__ZN6il2cpp8metadataL24RecursiveGenericDepthForEPK17Il2CppGenericInst
fMf:_Transform_GetChild_m1092972975
jqb:__ZN13GUIStyleState8TransferI14SafeBinaryReadEEvRT_
Ld:_glDrawArrays
tX:__ZN9Scripting11UnityEngine23ClothSphereColliderPair12CleanupProxyEv
jpj:_AudioSource_get_clip_m1234340632
hPd:_ResourceCacheItem_t51292791_marshal_pinvoke_back
rmb:__ZNSt3__26vectorIN20GpuProgramParameters15StructParameterENS_9allocatorIS2_EEE21__push_back_slow_pathIS2_EEvOT_
ked:__Z46Register_UnityEngine_Canvas_set_sortingLayerIDv
Tt:__ZN23AnimatedPropertyBuilder5BuildEP13AnimationClip18ScriptingObjectPtr
ZPc:__ZN9JSONWrite8TransferI13dynamic_arrayI8Vector3fLj0EEEEvRT_PKc17TransferMetaFlags
HHc:__ZNSt3__26__treeINS_12__value_typeI7Hash12816CrashReportEventEENS_19__map_value_compareIS2_S4_NS_4lessIS2_EELb1EEE13stl_allocatorIS4_L18MemLabelIdentifier6ELi16EEE12__find_equalIS2_EERPNS_16__tree_node_baseIPvEENS_21__tree_const_iteratorIS4_PNS_11__tree_nodeIS4_SF_EEiEESI_RKT_
d0a:__ZN14BlendShapeData8TransferI18StreamedBinaryReadILb0EEEEvRT_
o7c:_Round_To_Grid
XZc:_UNITY_FT_Stream_Close
Sud:_EventTrigger_OnPointerClick_m1385968891
ZSh:_UInt32_ToString_m4293943134_AdjustorThunk
